
N78k0r-dump-flash.elf:     file format elf32-rl78
N78k0r-dump-flash.elf
architecture: rl78, flags 0x00000112:
EXEC_P, HAS_SYMS, D_PAGED
start address 0x00000000

Program Header:
    LOAD off    0x00001000 vaddr 0x00000000 paddr 0x00000000 align 2**12
         filesz 0x00000710 memsz 0x00000710 flags r-x
    LOAD off    0x00001900 vaddr 0x000ff900 paddr 0x000ff900 align 2**12
         filesz 0x00000000 memsz 0x00000008 flags rw-
private flags = 0x0:

Sections:
Idx Name          Size      VMA       LMA       File off  Algn
  0 .text         00000710  00000000  00000000  00001000  2**8
                  CONTENTS, ALLOC, LOAD, READONLY, CODE
  1 .plt          00000000  00000710  00000710  00001710  2**1
                  CONTENTS, ALLOC, LOAD, READONLY, CODE
  2 .bss          00000008  000ff900  000ff900  00001900  2**1
                  ALLOC
SYMBOL TABLE:
00000000 l    d  .text	00000000 .text
00000710 l    d  .plt	00000000 .plt
000ff900 l    d  .bss	00000000 .bss
00000000 l    df *ABS*	00000000 vectors.o
000fff00 l       *ABS*	00000000 P0
000fff01 l       *ABS*	00000000 P1
000fff03 l       *ABS*	00000000 P3
000fff04 l       *ABS*	00000000 P4
000fff06 l       *ABS*	00000000 P6
000fff07 l       *ABS*	00000000 P7
000fff08 l       *ABS*	00000000 P8
000fff09 l       *ABS*	00000000 P9
000fff0c l       *ABS*	00000000 P12
000fff0d l       *ABS*	00000000 P13
000fff0e l       *ABS*	00000000 P14
000fff10 l       *ABS*	00000000 SDR00
000fff10 l       *ABS*	00000000 SDR00L
000fff14 l       *ABS*	00000000 SDR10
000fff14 l       *ABS*	00000000 SDR10L
000fff16 l       *ABS*	00000000 SDR11
000fff16 l       *ABS*	00000000 SDR11L
000fff18 l       *ABS*	00000000 TDR00
000fff1a l       *ABS*	00000000 TDR01
000fff1e l       *ABS*	00000000 ADCR
000fff1f l       *ABS*	00000000 ADCRH
000fff20 l       *ABS*	00000000 PM0
000fff21 l       *ABS*	00000000 PM1
000fff23 l       *ABS*	00000000 PM3
000fff24 l       *ABS*	00000000 PM4
000fff26 l       *ABS*	00000000 PM6
000fff27 l       *ABS*	00000000 PM7
000fff28 l       *ABS*	00000000 PM8
000fff29 l       *ABS*	00000000 PM9
000fff2c l       *ABS*	00000000 PM12
000fff2e l       *ABS*	00000000 PM14
000fff30 l       *ABS*	00000000 ADM0
00000000 l       *ABS*	00000000 ADM0_ADCE
00000007 l       *ABS*	00000000 ADM0_ADCS
000fff31 l       *ABS*	00000000 ADS
000fff33 l       *ABS*	00000000 ADSMP
000fff36 l       *ABS*	00000000 IPSEL0
000fff37 l       *ABS*	00000000 KRM
000fff38 l       *ABS*	00000000 EGP0
000fff39 l       *ABS*	00000000 EGN0
000fff3a l       *ABS*	00000000 EGP1
000fff3b l       *ABS*	00000000 EGN1
000fff3c l       *ABS*	00000000 STSEL
000fff3e l       *ABS*	00000000 TIS0
000fff3f l       *ABS*	00000000 TIS1
000fff42 l       *ABS*	00000000 ADM1
00000007 l       *ABS*	00000000 ADM1_ADTMD
000fff48 l       *ABS*	00000000 UF0TX
000fff48 l       *ABS*	00000000 UF0TXB
000fff4a l       *ABS*	00000000 UF0RX
000fff4a l       *ABS*	00000000 UF0RXB
000fff4c l       *ABS*	00000000 UF1TX
000fff4c l       *ABS*	00000000 UF1TXB
000fff4e l       *ABS*	00000000 UF1RX
000fff4e l       *ABS*	00000000 UF1RXB
000fff60 l       *ABS*	00000000 TOS0
000fff61 l       *ABS*	00000000 TOS1
000fff64 l       *ABS*	00000000 TDR02
000fff66 l       *ABS*	00000000 TDR03
000fff68 l       *ABS*	00000000 TDR04
000fff6a l       *ABS*	00000000 TDR05
000fff6c l       *ABS*	00000000 TDR06
000fff6e l       *ABS*	00000000 TDR07
000fff70 l       *ABS*	00000000 TDR10
000fff72 l       *ABS*	00000000 TDR11
000fff74 l       *ABS*	00000000 TDR12
000fff76 l       *ABS*	00000000 TDR13
000fff78 l       *ABS*	00000000 TDR14
000fff7a l       *ABS*	00000000 TDR15
000fff7c l       *ABS*	00000000 TDR16
000fff7e l       *ABS*	00000000 TDR17
000fff80 l       *ABS*	00000000 OCDEN
000fff81 l       *ABS*	00000000 BPAL0
000fff82 l       *ABS*	00000000 BPAH0
000fff83 l       *ABS*	00000000 BPAS0
000fff84 l       *ABS*	00000000 BACDVL0
000fff85 l       *ABS*	00000000 BACDVH0
000fff86 l       *ABS*	00000000 BACDML0
000fff87 l       *ABS*	00000000 BACDMH0
000fff88 l       *ABS*	00000000 BPC0
000fff89 l       *ABS*	00000000 MONMOD
000fff8a l       *ABS*	00000000 MONSTA0
000fff8b l       *ABS*	00000000 MONSTA1
00000000 l       *ABS*	00000000 MONSTA1_INTST
00000001 l       *ABS*	00000000 MONSTA1_INTSR
000fff8c l       *ABS*	00000000 ASIM
00000000 l       *ABS*	00000000 ASIM_LASTTX
00000001 l       *ABS*	00000000 ASIM_FILTEREN
00000005 l       *ABS*	00000000 ASIM_CKOUTEN
00000006 l       *ABS*	00000000 ASIM_RXEN
00000007 l       *ABS*	00000000 ASIM_TXEN
000fff8d l       *ABS*	00000000 BRGC0
000fff8e l       *ABS*	00000000 BRGC1
000fff8f l       *ABS*	00000000 RXB
000fff8f l       *ABS*	00000000 TXS
000fffa0 l       *ABS*	00000000 CMC
000fffa1 l       *ABS*	00000000 CSC
00000000 l       *ABS*	00000000 CSC_HIOSTOP
00000006 l       *ABS*	00000000 CSC_XTSTOP
00000007 l       *ABS*	00000000 CSC_MSTOP
000fffa2 l       *ABS*	00000000 OSTC
000fffa3 l       *ABS*	00000000 OSTS
000fffa4 l       *ABS*	00000000 CKC
00000004 l       *ABS*	00000000 CKC_MCM0
00000005 l       *ABS*	00000000 CKC_MCS
00000006 l       *ABS*	00000000 CKC_CSS
00000007 l       *ABS*	00000000 CKC_CLS
000fffa5 l       *ABS*	00000000 CKS
00000007 l       *ABS*	00000000 CKS_PCLOE
000fffa8 l       *ABS*	00000000 RESF
000fffa9 l       *ABS*	00000000 LVIM
00000000 l       *ABS*	00000000 LVIM_LVIF
00000001 l       *ABS*	00000000 LVIM_LVIMD
00000002 l       *ABS*	00000000 LVIM_LVISEL
00000007 l       *ABS*	00000000 LVIM_LVION
000fffaa l       *ABS*	00000000 LVIS
000fffab l       *ABS*	00000000 WDTE
000fffac l       *ABS*	00000000 WUTMCTL
00000007 l       *ABS*	00000000 WUTMCTL_WUTMCE
000fffae l       *ABS*	00000000 WUTMCMP
000fffb0 l       *ABS*	00000000 DSA0
000fffb1 l       *ABS*	00000000 DSA1
000fffb2 l       *ABS*	00000000 DRA0
000fffb2 l       *ABS*	00000000 DRA0L
000fffb3 l       *ABS*	00000000 DRA0H
000fffb4 l       *ABS*	00000000 DRA1
000fffb4 l       *ABS*	00000000 DRA1L
000fffb5 l       *ABS*	00000000 DRA1H
000fffb6 l       *ABS*	00000000 DBC0
000fffb6 l       *ABS*	00000000 DBC0L
000fffb7 l       *ABS*	00000000 DBC0H
000fffb8 l       *ABS*	00000000 DBC1
000fffb8 l       *ABS*	00000000 DBC1L
000fffb9 l       *ABS*	00000000 DBC1H
000fffba l       *ABS*	00000000 DMC0
00000004 l       *ABS*	00000000 DMC0_DWAIT0
00000005 l       *ABS*	00000000 DMC0_DS0
00000006 l       *ABS*	00000000 DMC0_DRS0
00000007 l       *ABS*	00000000 DMC0_STG0
000fffbb l       *ABS*	00000000 DMC1
00000004 l       *ABS*	00000000 DMC1_DWAIT1
00000005 l       *ABS*	00000000 DMC1_DS1
00000006 l       *ABS*	00000000 DMC1_DRS1
00000007 l       *ABS*	00000000 DMC1_STG1
000fffbc l       *ABS*	00000000 DRC0
00000000 l       *ABS*	00000000 DRC0_DST0
00000007 l       *ABS*	00000000 DRC0_DEN0
000fffbd l       *ABS*	00000000 DRC1
00000000 l       *ABS*	00000000 DRC1_DST1
00000007 l       *ABS*	00000000 DRC1_DEN1
000fffbe l       *ABS*	00000000 BECTL
00000000 l       *ABS*	00000000 BECTL_MBTFLG
00000001 l       *ABS*	00000000 BECTL_MBTPR
00000002 l       *ABS*	00000000 BECTL_MSEPR
00000003 l       *ABS*	00000000 BECTL_MCEPR
00000004 l       *ABS*	00000000 BECTL_MWRPR
00000005 l       *ABS*	00000000 BECTL_SPRGMOD
00000006 l       *ABS*	00000000 BECTL_INTMON
00000007 l       *ABS*	00000000 BECTL_FLMDPUP
000fffc0 l       *ABS*	00000000 PFCMD
000fffc1 l       *ABS*	00000000 FLMC
00000000 l       *ABS*	00000000 FLMC_MD0
00000001 l       *ABS*	00000000 FLMC_MD1
00000002 l       *ABS*	00000000 FLMC_MD2
00000003 l       *ABS*	00000000 FLMC_MD3
00000004 l       *ABS*	00000000 FLMC_MD4
00000007 l       *ABS*	00000000 FLMC_MDEN
000fffc2 l       *ABS*	00000000 PFS
00000000 l       *ABS*	00000000 PFS_FPRERR
000fffc4 l       *ABS*	00000000 FLPMC
00000000 l       *ABS*	00000000 FLPMC_BFAEN
00000002 l       *ABS*	00000000 FLPMC_FWEPR
00000004 l       *ABS*	00000000 FLPMC_BRAMEN
000fffc5 l       *ABS*	00000000 FSCTL
00000000 l       *ABS*	00000000 FSCTL_DPROGI
00000001 l       *ABS*	00000000 FSCTL_DRDCLKZ
00000002 l       *ABS*	00000000 FSCTL_DFCLK
00000003 l       *ABS*	00000000 FSCTL_DCKEN
000fffc6 l       *ABS*	00000000 FLAPH
000fffc7 l       *ABS*	00000000 FLEMC
00000000 l       *ABS*	00000000 FLEMC_ECCDIS
00000001 l       *ABS*	00000000 FLEMC_ECCDTS
00000002 l       *ABS*	00000000 FLEMC_ECCETS
00000003 l       *ABS*	00000000 FLEMC_VCMPMD
00000006 l       *ABS*	00000000 FLEMC_ECCER
00000007 l       *ABS*	00000000 FLEMC_VCEQ
000fffc8 l       *ABS*	00000000 FLAPL
000fffca l       *ABS*	00000000 FLARS
000fffcb l       *ABS*	00000000 FLWE
00000000 l       *ABS*	00000000 FLWE_FLWE0
00000001 l       *ABS*	00000000 FLWE_FLWE1
00000002 l       *ABS*	00000000 FLWE_FLWE2
00000003 l       *ABS*	00000000 FLWE_FLWE3
00000004 l       *ABS*	00000000 FLWE_FLWE4
00000005 l       *ABS*	00000000 FLWE_FLWE5
000fffcc l       *ABS*	00000000 FLWH
000fffce l       *ABS*	00000000 FLWL
000fffd0 l       *ABS*	00000000 IF2
000fffd0 l       *ABS*	00000000 IF2L
00000000 l       *ABS*	00000000 IF2L_TMIF05
00000001 l       *ABS*	00000000 IF2L_TMIF06
00000002 l       *ABS*	00000000 IF2L_TMIF07
00000003 l       *ABS*	00000000 IF2L_PIF6
00000004 l       *ABS*	00000000 IF2L_PIF7
00000005 l       *ABS*	00000000 IF2L_C0ERRIF
00000006 l       *ABS*	00000000 IF2L_C0WUPIF
00000007 l       *ABS*	00000000 IF2L_C0RECIF
000fffd1 l       *ABS*	00000000 IF2H
00000000 l       *ABS*	00000000 IF2H_C0TRXIF
00000001 l       *ABS*	00000000 IF2H_TMIF10
00000002 l       *ABS*	00000000 IF2H_TMIF11
00000003 l       *ABS*	00000000 IF2H_TMIF12
00000004 l       *ABS*	00000000 IF2H_TMIF13
00000005 l       *ABS*	00000000 IF2H_MDIF
000fffd2 l       *ABS*	00000000 IF3
000fffd2 l       *ABS*	00000000 IF3L
00000001 l       *ABS*	00000000 IF3L_TMIF14
00000002 l       *ABS*	00000000 IF3L_TMIF15
00000003 l       *ABS*	00000000 IF3L_TMIF16
00000004 l       *ABS*	00000000 IF3L_TMIF17
000fffd3 l       *ABS*	00000000 IF3H
00000003 l       *ABS*	00000000 IF3H_DMAIF2
00000004 l       *ABS*	00000000 IF3H_DMAIF3
000fffd4 l       *ABS*	00000000 MK2
000fffd4 l       *ABS*	00000000 MK2L
00000000 l       *ABS*	00000000 MK2L_TMMK05
00000001 l       *ABS*	00000000 MK2L_TMMK06
00000002 l       *ABS*	00000000 MK2L_TMMK07
00000003 l       *ABS*	00000000 MK2L_PMK6
00000004 l       *ABS*	00000000 MK2L_PMK7
00000005 l       *ABS*	00000000 MK2L_C0ERRMK
00000006 l       *ABS*	00000000 MK2L_C0WUPMK
00000007 l       *ABS*	00000000 MK2L_C0RECMK
000fffd5 l       *ABS*	00000000 MK2H
00000000 l       *ABS*	00000000 MK2H_C0TRXMK
00000001 l       *ABS*	00000000 MK2H_TMMK10
00000002 l       *ABS*	00000000 MK2H_TMMK11
00000003 l       *ABS*	00000000 MK2H_TMMK12
00000004 l       *ABS*	00000000 MK2H_TMMK13
00000005 l       *ABS*	00000000 MK2H_MDMK
000fffd6 l       *ABS*	00000000 MK3
000fffd6 l       *ABS*	00000000 MK3L
00000001 l       *ABS*	00000000 MK3L_TMMK14
00000002 l       *ABS*	00000000 MK3L_TMMK15
00000003 l       *ABS*	00000000 MK3L_TMMK16
00000004 l       *ABS*	00000000 MK3L_TMMK17
000fffd7 l       *ABS*	00000000 MK3H
00000003 l       *ABS*	00000000 MK3H_DMAMK2
00000004 l       *ABS*	00000000 MK3H_DMAMK3
000fffd8 l       *ABS*	00000000 PR02
000fffd8 l       *ABS*	00000000 PR02L
00000000 l       *ABS*	00000000 PR02L_TMPR005
00000001 l       *ABS*	00000000 PR02L_TMPR006
00000002 l       *ABS*	00000000 PR02L_TMPR007
00000003 l       *ABS*	00000000 PR02L_PPR06
00000004 l       *ABS*	00000000 PR02L_PPR07
00000005 l       *ABS*	00000000 PR02L_C0ERRPR0
00000006 l       *ABS*	00000000 PR02L_C0WUPPR0
00000007 l       *ABS*	00000000 PR02L_C0RECPR0
000fffd9 l       *ABS*	00000000 PR02H
00000000 l       *ABS*	00000000 PR02H_C0TRXPR0
00000001 l       *ABS*	00000000 PR02H_TMPR010
00000002 l       *ABS*	00000000 PR02H_TMPR011
00000003 l       *ABS*	00000000 PR02H_TMPR012
00000004 l       *ABS*	00000000 PR02H_TMPR013
00000005 l       *ABS*	00000000 PR02H_MDPR0
000fffda l       *ABS*	00000000 PR03
000fffda l       *ABS*	00000000 PR03L
00000001 l       *ABS*	00000000 PR03L_TMPR014
00000002 l       *ABS*	00000000 PR03L_TMPR015
00000003 l       *ABS*	00000000 PR03L_TMPR016
00000004 l       *ABS*	00000000 PR03L_TMPR017
000fffdb l       *ABS*	00000000 PR03H
00000003 l       *ABS*	00000000 PR03H_DMAPR02
00000004 l       *ABS*	00000000 PR03H_DMAPR03
000fffdc l       *ABS*	00000000 PR12
000fffdc l       *ABS*	00000000 PR12L
00000000 l       *ABS*	00000000 PR12L_TMPR105
00000001 l       *ABS*	00000000 PR12L_TMPR106
00000002 l       *ABS*	00000000 PR12L_TMPR107
00000003 l       *ABS*	00000000 PR12L_PPR16
00000004 l       *ABS*	00000000 PR12L_PPR17
00000005 l       *ABS*	00000000 PR12L_C0ERRPR1
00000006 l       *ABS*	00000000 PR12L_C0WUPPR1
00000007 l       *ABS*	00000000 PR12L_C0RECPR1
000fffdd l       *ABS*	00000000 PR12H
00000000 l       *ABS*	00000000 PR12H_C0TRXPR1
00000001 l       *ABS*	00000000 PR12H_TMPR110
00000002 l       *ABS*	00000000 PR12H_TMPR111
00000003 l       *ABS*	00000000 PR12H_TMPR112
00000004 l       *ABS*	00000000 PR12H_TMPR113
00000005 l       *ABS*	00000000 PR12H_MDPR1
000fffde l       *ABS*	00000000 PR13
000fffde l       *ABS*	00000000 PR13L
00000001 l       *ABS*	00000000 PR13L_TMPR114
00000002 l       *ABS*	00000000 PR13L_TMPR115
00000003 l       *ABS*	00000000 PR13L_TMPR116
00000004 l       *ABS*	00000000 PR13L_TMPR117
000fffdf l       *ABS*	00000000 PR13H
00000003 l       *ABS*	00000000 PR13H_DMAPR12
00000004 l       *ABS*	00000000 PR13H_DMAPR13
000fffe0 l       *ABS*	00000000 IF0
000fffe0 l       *ABS*	00000000 IF0L
00000000 l       *ABS*	00000000 IF0L_WDTIIF
00000001 l       *ABS*	00000000 IF0L_LVIIF
00000002 l       *ABS*	00000000 IF0L_PIF0
00000003 l       *ABS*	00000000 IF0L_PIF1
00000004 l       *ABS*	00000000 IF0L_PIF2
00000005 l       *ABS*	00000000 IF0L_PIF3
00000006 l       *ABS*	00000000 IF0L_PIF4
00000007 l       *ABS*	00000000 IF0L_PIF5
000fffe1 l       *ABS*	00000000 IF0H
00000000 l       *ABS*	00000000 IF0H_CLMIF
00000001 l       *ABS*	00000000 IF0H_CSIIF00
00000003 l       *ABS*	00000000 IF0H_DMAIF0
00000004 l       *ABS*	00000000 IF0H_DMAIF1
00000005 l       *ABS*	00000000 IF0H_WUTMIF
00000006 l       *ABS*	00000000 IF0H_FLIF
00000007 l       *ABS*	00000000 IF0H_LTIF0
000fffe2 l       *ABS*	00000000 IF1
000fffe2 l       *ABS*	00000000 IF1L
00000000 l       *ABS*	00000000 IF1L_LRIF0
00000001 l       *ABS*	00000000 IF1L_LSIF0
00000002 l       *ABS*	00000000 IF1L_PIFLR0
00000004 l       *ABS*	00000000 IF1L_TMIF00
00000005 l       *ABS*	00000000 IF1L_TMIF01
00000006 l       *ABS*	00000000 IF1L_TMIF02
00000007 l       *ABS*	00000000 IF1L_TMIF03
000fffe3 l       *ABS*	00000000 IF1H
00000000 l       *ABS*	00000000 IF1H_ADIF
00000001 l       *ABS*	00000000 IF1H_LTIF1
00000002 l       *ABS*	00000000 IF1H_LRIF1
00000003 l       *ABS*	00000000 IF1H_LSIF1
00000004 l       *ABS*	00000000 IF1H_PIFLR1
00000005 l       *ABS*	00000000 IF1H_CSIIF10
00000006 l       *ABS*	00000000 IF1H_IICIF11
00000007 l       *ABS*	00000000 IF1H_TMIF04
000fffe4 l       *ABS*	00000000 MK0
000fffe4 l       *ABS*	00000000 MK0L
00000000 l       *ABS*	00000000 MK0L_WDTIMK
00000001 l       *ABS*	00000000 MK0L_LVIMK
00000002 l       *ABS*	00000000 MK0L_PMK0
00000003 l       *ABS*	00000000 MK0L_PMK1
00000004 l       *ABS*	00000000 MK0L_PMK2
00000005 l       *ABS*	00000000 MK0L_PMK3
00000006 l       *ABS*	00000000 MK0L_PMK4
00000007 l       *ABS*	00000000 MK0L_PMK5
000fffe5 l       *ABS*	00000000 MK0H
00000000 l       *ABS*	00000000 MK0H_CLMMK
00000001 l       *ABS*	00000000 MK0H_CSIMK00
00000003 l       *ABS*	00000000 MK0H_DMAMK0
00000004 l       *ABS*	00000000 MK0H_DMAMK1
00000005 l       *ABS*	00000000 MK0H_WUTMMK
00000006 l       *ABS*	00000000 MK0H_FLMK
00000007 l       *ABS*	00000000 MK0H_LTMK0
000fffe6 l       *ABS*	00000000 MK1
000fffe6 l       *ABS*	00000000 MK1L
00000000 l       *ABS*	00000000 MK1L_LRMK0
00000001 l       *ABS*	00000000 MK1L_LSMK0
00000002 l       *ABS*	00000000 MK1L_PMKLR0
00000004 l       *ABS*	00000000 MK1L_TMMK00
00000005 l       *ABS*	00000000 MK1L_TMMK01
00000006 l       *ABS*	00000000 MK1L_TMMK02
00000007 l       *ABS*	00000000 MK1L_TMMK03
000fffe7 l       *ABS*	00000000 MK1H
00000000 l       *ABS*	00000000 MK1H_ADMK
00000001 l       *ABS*	00000000 MK1H_LTMK1
00000002 l       *ABS*	00000000 MK1H_LRMK1
00000003 l       *ABS*	00000000 MK1H_LSMK1
00000004 l       *ABS*	00000000 MK1H_PMKLR1
00000005 l       *ABS*	00000000 MK1H_CSIMK10
00000006 l       *ABS*	00000000 MK1H_IICMK11
00000007 l       *ABS*	00000000 MK1H_TMMK04
000fffe8 l       *ABS*	00000000 PR00
000fffe8 l       *ABS*	00000000 PR00L
00000000 l       *ABS*	00000000 PR00L_WDTIPR0
00000001 l       *ABS*	00000000 PR00L_LVIPR0
00000002 l       *ABS*	00000000 PR00L_PPR00
00000003 l       *ABS*	00000000 PR00L_PPR01
00000004 l       *ABS*	00000000 PR00L_PPR02
00000005 l       *ABS*	00000000 PR00L_PPR03
00000006 l       *ABS*	00000000 PR00L_PPR04
00000007 l       *ABS*	00000000 PR00L_PPR05
000fffe9 l       *ABS*	00000000 PR00H
00000000 l       *ABS*	00000000 PR00H_CLMPR0
00000001 l       *ABS*	00000000 PR00H_CSIPR000
00000003 l       *ABS*	00000000 PR00H_DMAPR00
00000004 l       *ABS*	00000000 PR00H_DMAPR01
00000005 l       *ABS*	00000000 PR00H_WUTMPR0
00000006 l       *ABS*	00000000 PR00H_FLPR0
00000007 l       *ABS*	00000000 PR00H_LTPR00
000fffea l       *ABS*	00000000 PR01
000fffea l       *ABS*	00000000 PR01L
00000000 l       *ABS*	00000000 PR01L_LRPR00
00000001 l       *ABS*	00000000 PR01L_LSPR00
00000002 l       *ABS*	00000000 PR01L_PPR0LR0
00000004 l       *ABS*	00000000 PR01L_TMPR000
00000005 l       *ABS*	00000000 PR01L_TMPR001
00000006 l       *ABS*	00000000 PR01L_TMPR002
00000007 l       *ABS*	00000000 PR01L_TMPR003
000fffeb l       *ABS*	00000000 PR01H
00000000 l       *ABS*	00000000 PR01H_ADPR0
00000001 l       *ABS*	00000000 PR01H_LTPR01
00000002 l       *ABS*	00000000 PR01H_LRPR01
00000003 l       *ABS*	00000000 PR01H_LSPR01
00000004 l       *ABS*	00000000 PR01H_PPR0LR1
00000005 l       *ABS*	00000000 PR01H_CSIPR010
00000006 l       *ABS*	00000000 PR01H_IICPR011
00000007 l       *ABS*	00000000 PR01H_TMPR004
000fffec l       *ABS*	00000000 PR10
000fffec l       *ABS*	00000000 PR10L
00000000 l       *ABS*	00000000 PR10L_WDTIPR1
00000001 l       *ABS*	00000000 PR10L_LVIPR1
00000002 l       *ABS*	00000000 PR10L_PPR10
00000003 l       *ABS*	00000000 PR10L_PPR11
00000004 l       *ABS*	00000000 PR10L_PPR12
00000005 l       *ABS*	00000000 PR10L_PPR13
00000006 l       *ABS*	00000000 PR10L_PPR14
00000007 l       *ABS*	00000000 PR10L_PPR15
000fffed l       *ABS*	00000000 PR10H
00000000 l       *ABS*	00000000 PR10H_CLMPR1
00000001 l       *ABS*	00000000 PR10H_CSIPR100
00000003 l       *ABS*	00000000 PR10H_DMAPR10
00000004 l       *ABS*	00000000 PR10H_DMAPR11
00000005 l       *ABS*	00000000 PR10H_WUTMPR1
00000006 l       *ABS*	00000000 PR10H_FLPR1
00000007 l       *ABS*	00000000 PR10H_LTPR10
000fffee l       *ABS*	00000000 PR11
000fffee l       *ABS*	00000000 PR11L
00000000 l       *ABS*	00000000 PR11L_LRPR10
00000001 l       *ABS*	00000000 PR11L_LSPR10
00000002 l       *ABS*	00000000 PR11L_PPR1LR0
00000004 l       *ABS*	00000000 PR11L_TMPR100
00000005 l       *ABS*	00000000 PR11L_TMPR101
00000006 l       *ABS*	00000000 PR11L_TMPR102
00000007 l       *ABS*	00000000 PR11L_TMPR103
000fffef l       *ABS*	00000000 PR11H
00000000 l       *ABS*	00000000 PR11H_ADPR1
00000001 l       *ABS*	00000000 PR11H_LTPR11
00000002 l       *ABS*	00000000 PR11H_LRPR11
00000003 l       *ABS*	00000000 PR11H_LSPR11
00000004 l       *ABS*	00000000 PR11H_PPR1LR1
00000005 l       *ABS*	00000000 PR11H_CSIPR110
00000006 l       *ABS*	00000000 PR11H_IICPR111
00000007 l       *ABS*	00000000 PR11H_TMPR104
000ffff0 l       *ABS*	00000000 MDAL
000ffff0 l       *ABS*	00000000 MULA
000ffff2 l       *ABS*	00000000 MDAH
000ffff2 l       *ABS*	00000000 MULB
000ffff4 l       *ABS*	00000000 MDBH
000ffff4 l       *ABS*	00000000 MULOH
000ffff6 l       *ABS*	00000000 MDBL
000ffff6 l       *ABS*	00000000 MULOL
00000001 l       *ABS*	00000000 MULOL_ISP0
00000002 l       *ABS*	00000000 MULOL_ISP1
00000003 l       *ABS*	00000000 MULOL_RBS0
00000004 l       *ABS*	00000000 MULOL_AC
00000005 l       *ABS*	00000000 MULOL_RBS1
00000006 l       *ABS*	00000000 MULOL_Z
00000007 l       *ABS*	00000000 MULOL_IE
000ffffe l       *ABS*	00000000 PMC
00000000 l       *ABS*	00000000 PMC_MAA
000f0017 l       *ABS*	00000000 ADPC
000f0030 l       *ABS*	00000000 PU0
000f0031 l       *ABS*	00000000 PU1
000f0033 l       *ABS*	00000000 PU3
000f0034 l       *ABS*	00000000 PU4
000f0036 l       *ABS*	00000000 PU6
000f0037 l       *ABS*	00000000 PU7
000f003c l       *ABS*	00000000 PU12
000f003e l       *ABS*	00000000 PU14
000f0046 l       *ABS*	00000000 PIM6
000f0047 l       *ABS*	00000000 PIM7
000f0057 l       *ABS*	00000000 POM7
000f0060 l       *ABS*	00000000 NFEN0
000f0061 l       *ABS*	00000000 NFEN1
000f0062 l       *ABS*	00000000 NFEN2
000f0067 l       *ABS*	00000000 LVIOUT
000f006f l       *ABS*	00000000 PSRSEL
000f0070 l       *ABS*	00000000 GUARD
00000000 l       *ABS*	00000000 GUARD_GDCSC
00000001 l       *ABS*	00000000 GUARD_GDPLL
00000002 l       *ABS*	00000000 GUARD_GDLTRM
00000005 l       *ABS*	00000000 GUARD_GDLVI
00000006 l       *ABS*	00000000 GUARD_GDIAW
00000007 l       *ABS*	00000000 GUARD_GDWDT
000f0071 l       *ABS*	00000000 WDTSELF
000f0074 l       *ABS*	00000000 IAWCTL
00000007 l       *ABS*	00000000 IAWCTL_IAWEN
000f0075 l       *ABS*	00000000 IAWRAM
000f0076 l       *ABS*	00000000 IAWFLASH
000f0080 l       *ABS*	00000000 DSA2
000f0081 l       *ABS*	00000000 DSA3
000f0082 l       *ABS*	00000000 DRA2
000f0082 l       *ABS*	00000000 DRA2L
000f0083 l       *ABS*	00000000 DRA2H
000f0084 l       *ABS*	00000000 DRA3
000f0084 l       *ABS*	00000000 DRA3L
000f0085 l       *ABS*	00000000 DRA3H
000f0086 l       *ABS*	00000000 DBC2
000f0086 l       *ABS*	00000000 DBC2L
000f0087 l       *ABS*	00000000 DBC2H
000f0088 l       *ABS*	00000000 DBC3
000f0088 l       *ABS*	00000000 DBC3L
000f0089 l       *ABS*	00000000 DBC3H
000f008a l       *ABS*	00000000 DMC2
00000004 l       *ABS*	00000000 DMC2_DWAIT2
00000005 l       *ABS*	00000000 DMC2_DS2
00000006 l       *ABS*	00000000 DMC2_DRS2
00000007 l       *ABS*	00000000 DMC2_STG2
000f008b l       *ABS*	00000000 DMC3
00000004 l       *ABS*	00000000 DMC3_DWAIT3
00000005 l       *ABS*	00000000 DMC3_DS3
00000006 l       *ABS*	00000000 DMC3_DRS3
00000007 l       *ABS*	00000000 DMC3_STG3
000f008c l       *ABS*	00000000 DRC2
00000000 l       *ABS*	00000000 DRC2_DST2
00000007 l       *ABS*	00000000 DRC2_DEN2
000f008d l       *ABS*	00000000 DRC3
00000000 l       *ABS*	00000000 DRC3_DST3
00000007 l       *ABS*	00000000 DRC3_DEN3
000f008f l       *ABS*	00000000 DMCALL
00000000 l       *ABS*	00000000 DMCALL_DWAITALL
00000007 l       *ABS*	00000000 DMCALL_DPRMOD
000f00a6 l       *ABS*	00000000 CFSWS
000f00a8 l       *ABS*	00000000 CFSWE
000f00c0 l       *ABS*	00000000 FLBTS
000f00c1 l       *ABS*	00000000 FLRE
00000000 l       *ABS*	00000000 FLRE_FLRE0
00000001 l       *ABS*	00000000 FLRE_FLRE1
00000002 l       *ABS*	00000000 FLRE_FLRE2
00000003 l       *ABS*	00000000 FLRE_FLRE3
00000004 l       *ABS*	00000000 FLRE_FLRE4
00000005 l       *ABS*	00000000 FLRE_FLRE5
000f00c2 l       *ABS*	00000000 FLRH
000f00c4 l       *ABS*	00000000 FLRL
000f00c8 l       *ABS*	00000000 FLTMS
000f00d0 l       *ABS*	00000000 ICEADR
000f00d2 l       *ABS*	00000000 ICEDAT
000f00e0 l       *ABS*	00000000 MDCL
000f00e2 l       *ABS*	00000000 MDCH
000f00e8 l       *ABS*	00000000 MDUC
00000000 l       *ABS*	00000000 MDUC_DIVST
00000007 l       *ABS*	00000000 MDUC_DIVMODE
000f00f0 l       *ABS*	00000000 PER0
00000000 l       *ABS*	00000000 PER0_TAU0EN
00000001 l       *ABS*	00000000 PER0_TAU1EN
00000003 l       *ABS*	00000000 PER0_SAU0EN
00000004 l       *ABS*	00000000 PER0_SAU1EN
00000005 l       *ABS*	00000000 PER0_LIN0EN
00000006 l       *ABS*	00000000 PER0_LIN1EN
00000007 l       *ABS*	00000000 PER0_ADCEN
000f00f1 l       *ABS*	00000000 PER1
00000000 l       *ABS*	00000000 PER1_DFLEN
00000001 l       *ABS*	00000000 PER1_WUTEN
000f00f2 l       *ABS*	00000000 PCKSEL
00000002 l       *ABS*	00000000 PCKSEL_WUTMCKE
00000004 l       *ABS*	00000000 PCKSEL_CANMCKE
000f00f3 l       *ABS*	00000000 OSMC
000f00f6 l       *ABS*	00000000 PLLSTS
00000003 l       *ABS*	00000000 PLLSTS_SELPLLS
00000007 l       *ABS*	00000000 PLLSTS_LOCK
000f00f7 l       *ABS*	00000000 PLLCTL
00000000 l       *ABS*	00000000 PLLCTL_PLLON
00000002 l       *ABS*	00000000 PLLCTL_SELPLL
000f00f8 l       *ABS*	00000000 HIOTRM
000f00fa l       *ABS*	00000000 LIOTRM
000f00fb l       *ABS*	00000000 POCRES
000f00fc l       *ABS*	00000000 STPSTC
00000004 l       *ABS*	00000000 STPSTC_STPLV
00000007 l       *ABS*	00000000 STPSTC_STPOEN
000f00fe l       *ABS*	00000000 BCDADJ
000f0100 l       *ABS*	00000000 SSR00
000f0100 l       *ABS*	00000000 SSR00L
000f0104 l       *ABS*	00000000 SIR00
000f0104 l       *ABS*	00000000 SIR00L
000f0108 l       *ABS*	00000000 SMR00
000f010c l       *ABS*	00000000 SCR00
000f0110 l       *ABS*	00000000 SE0
000f0110 l       *ABS*	00000000 SE0L
000f0112 l       *ABS*	00000000 SS0
000f0112 l       *ABS*	00000000 SS0L
000f0114 l       *ABS*	00000000 ST0
000f0114 l       *ABS*	00000000 ST0L
000f0116 l       *ABS*	00000000 SPS0
000f0116 l       *ABS*	00000000 SPS0L
000f0118 l       *ABS*	00000000 SO0
000f011a l       *ABS*	00000000 SOE0
000f011a l       *ABS*	00000000 SOE0L
000f011c l       *ABS*	00000000 EDR00
000f011c l       *ABS*	00000000 EDR00L
000f0120 l       *ABS*	00000000 SOL0
000f0120 l       *ABS*	00000000 SOL0L
000f0122 l       *ABS*	00000000 SSE0
000f0122 l       *ABS*	00000000 SSE0L
000f0130 l       *ABS*	00000000 SSR10
000f0130 l       *ABS*	00000000 SSR10L
000f0132 l       *ABS*	00000000 SSR11
000f0132 l       *ABS*	00000000 SSR11L
000f0134 l       *ABS*	00000000 SIR10
000f0134 l       *ABS*	00000000 SIR10L
000f0136 l       *ABS*	00000000 SIR11
000f0136 l       *ABS*	00000000 SIR11L
000f0138 l       *ABS*	00000000 SMR10
000f013a l       *ABS*	00000000 SMR11
000f013c l       *ABS*	00000000 SCR10
000f013e l       *ABS*	00000000 SCR11
000f0140 l       *ABS*	00000000 SE1
000f0140 l       *ABS*	00000000 SE1L
000f0142 l       *ABS*	00000000 SS1
000f0142 l       *ABS*	00000000 SS1L
000f0144 l       *ABS*	00000000 ST1
000f0144 l       *ABS*	00000000 ST1L
000f0146 l       *ABS*	00000000 SPS1
000f0146 l       *ABS*	00000000 SPS1L
000f0148 l       *ABS*	00000000 SO1
000f014a l       *ABS*	00000000 SOE1
000f014a l       *ABS*	00000000 SOE1L
000f014c l       *ABS*	00000000 EDR10
000f014c l       *ABS*	00000000 EDR10L
000f014e l       *ABS*	00000000 EDR11
000f014e l       *ABS*	00000000 EDR11L
000f0150 l       *ABS*	00000000 SOL1
000f0150 l       *ABS*	00000000 SOL1L
000f0180 l       *ABS*	00000000 TCR00
000f0182 l       *ABS*	00000000 TCR01
000f0184 l       *ABS*	00000000 TCR02
000f0186 l       *ABS*	00000000 TCR03
000f0188 l       *ABS*	00000000 TCR04
000f018a l       *ABS*	00000000 TCR05
000f018c l       *ABS*	00000000 TCR06
000f018e l       *ABS*	00000000 TCR07
000f0190 l       *ABS*	00000000 TMR00
000f0192 l       *ABS*	00000000 TMR01
000f0194 l       *ABS*	00000000 TMR02
000f0196 l       *ABS*	00000000 TMR03
000f0198 l       *ABS*	00000000 TMR04
000f019a l       *ABS*	00000000 TMR05
000f019c l       *ABS*	00000000 TMR06
000f019e l       *ABS*	00000000 TMR07
000f01a0 l       *ABS*	00000000 TSR00
000f01a0 l       *ABS*	00000000 TSR00L
000f01a2 l       *ABS*	00000000 TSR01
000f01a2 l       *ABS*	00000000 TSR01L
000f01a4 l       *ABS*	00000000 TSR02
000f01a4 l       *ABS*	00000000 TSR02L
000f01a6 l       *ABS*	00000000 TSR03
000f01a6 l       *ABS*	00000000 TSR03L
000f01a8 l       *ABS*	00000000 TSR04
000f01a8 l       *ABS*	00000000 TSR04L
000f01aa l       *ABS*	00000000 TSR05
000f01aa l       *ABS*	00000000 TSR05L
000f01ac l       *ABS*	00000000 TSR06
000f01ac l       *ABS*	00000000 TSR06L
000f01ae l       *ABS*	00000000 TSR07
000f01ae l       *ABS*	00000000 TSR07L
000f01b0 l       *ABS*	00000000 TE0
000f01b0 l       *ABS*	00000000 TE0L
000f01b2 l       *ABS*	00000000 TS0
000f01b2 l       *ABS*	00000000 TS0L
000f01b4 l       *ABS*	00000000 TT0
000f01b4 l       *ABS*	00000000 TT0L
000f01b6 l       *ABS*	00000000 TPS0
000f01b8 l       *ABS*	00000000 TO0
000f01b8 l       *ABS*	00000000 TO0L
000f01ba l       *ABS*	00000000 TOE0
000f01ba l       *ABS*	00000000 TOE0L
000f01bc l       *ABS*	00000000 TOL0
000f01bc l       *ABS*	00000000 TOL0L
000f01be l       *ABS*	00000000 TOM0
000f01be l       *ABS*	00000000 TOM0L
000f01c0 l       *ABS*	00000000 TCR10
000f01c2 l       *ABS*	00000000 TCR11
000f01c4 l       *ABS*	00000000 TCR12
000f01c6 l       *ABS*	00000000 TCR13
000f01c8 l       *ABS*	00000000 TCR14
000f01ca l       *ABS*	00000000 TCR15
000f01cc l       *ABS*	00000000 TCR16
000f01ce l       *ABS*	00000000 TCR17
000f01d0 l       *ABS*	00000000 TMR10
000f01d2 l       *ABS*	00000000 TMR11
000f01d4 l       *ABS*	00000000 TMR12
000f01d6 l       *ABS*	00000000 TMR13
000f01d8 l       *ABS*	00000000 TMR14
000f01da l       *ABS*	00000000 TMR15
000f01dc l       *ABS*	00000000 TMR16
000f01de l       *ABS*	00000000 TMR17
000f01e0 l       *ABS*	00000000 TSR10
000f01e0 l       *ABS*	00000000 TSR10L
000f01e2 l       *ABS*	00000000 TSR11
000f01e2 l       *ABS*	00000000 TSR11L
000f01e4 l       *ABS*	00000000 TSR12
000f01e4 l       *ABS*	00000000 TSR12L
000f01e6 l       *ABS*	00000000 TSR13
000f01e6 l       *ABS*	00000000 TSR13L
000f01e8 l       *ABS*	00000000 TSR14
000f01e8 l       *ABS*	00000000 TSR14L
000f01ea l       *ABS*	00000000 TSR15
000f01ea l       *ABS*	00000000 TSR15L
000f01ec l       *ABS*	00000000 TSR16
000f01ec l       *ABS*	00000000 TSR16L
000f01ee l       *ABS*	00000000 TSR17
000f01ee l       *ABS*	00000000 TSR17L
000f01f0 l       *ABS*	00000000 TE1
000f01f0 l       *ABS*	00000000 TE1L
000f01f2 l       *ABS*	00000000 TS1
000f01f2 l       *ABS*	00000000 TS1L
000f01f4 l       *ABS*	00000000 TT1
000f01f4 l       *ABS*	00000000 TT1L
000f01f6 l       *ABS*	00000000 TPS1
000f01f8 l       *ABS*	00000000 TO1
000f01f8 l       *ABS*	00000000 TO1L
000f01fa l       *ABS*	00000000 TOE1
000f01fa l       *ABS*	00000000 TOE1L
000f01fc l       *ABS*	00000000 TOL1
000f01fc l       *ABS*	00000000 TOL1L
000f01fe l       *ABS*	00000000 TOM1
000f01fe l       *ABS*	00000000 TOM1L
000f0240 l       *ABS*	00000000 UF0CTL0
00000005 l       *ABS*	00000000 UF0CTL0_UF0RXE
00000006 l       *ABS*	00000000 UF0CTL0_UF0TXE
000f0241 l       *ABS*	00000000 UF0OPT0
00000005 l       *ABS*	00000000 UF0OPT0_UF0BTT
00000006 l       *ABS*	00000000 UF0OPT0_UF0BRT
00000007 l       *ABS*	00000000 UF0OPT0_UF0BRF
000f0242 l       *ABS*	00000000 UF0CTL1
000f0244 l       *ABS*	00000000 UF0OPT1
00000005 l       *ABS*	00000000 UF0OPT1_UF0EBC
000f0245 l       *ABS*	00000000 UF0OPT2
00000000 l       *ABS*	00000000 UF0OPT2_UF0ITS
000f0246 l       *ABS*	00000000 UF0STR
000f0248 l       *ABS*	00000000 UF0STC
000f024a l       *ABS*	00000000 UF0WTX
000f024a l       *ABS*	00000000 UF0WTXB
000f024c l       *ABS*	00000000 UF0ERX
000f024c l       *ABS*	00000000 UF0ERXB
000f024e l       *ABS*	00000000 UF0ID
000f024f l       *ABS*	00000000 UF0BUF0
000f0250 l       *ABS*	00000000 UF0BUF1
000f0251 l       *ABS*	00000000 UF0BUF2
000f0252 l       *ABS*	00000000 UF0BUF3
000f0253 l       *ABS*	00000000 UF0BUF4
000f0254 l       *ABS*	00000000 UF0BUF5
000f0255 l       *ABS*	00000000 UF0BUF6
000f0256 l       *ABS*	00000000 UF0BUF7
000f0257 l       *ABS*	00000000 UF0BUF8
000f0258 l       *ABS*	00000000 UF0BUCTL
000f0260 l       *ABS*	00000000 UF1CTL0
00000005 l       *ABS*	00000000 UF1CTL0_UF1RXE
00000006 l       *ABS*	00000000 UF1CTL0_UF1TXE
000f0261 l       *ABS*	00000000 UF1OPT0
00000005 l       *ABS*	00000000 UF1OPT0_UF1BTT
00000006 l       *ABS*	00000000 UF1OPT0_UF1BRT
00000007 l       *ABS*	00000000 UF1OPT0_UF1BRF
000f0262 l       *ABS*	00000000 UF1CTL1
000f0264 l       *ABS*	00000000 UF1OPT1
00000005 l       *ABS*	00000000 UF1OPT1_UF1EBC
000f0265 l       *ABS*	00000000 UF1OPT2
00000000 l       *ABS*	00000000 UF1OPT2_UF1ITS
000f0266 l       *ABS*	00000000 UF1STR
000f0268 l       *ABS*	00000000 UF1STC
000f026a l       *ABS*	00000000 UF1WTX
000f026a l       *ABS*	00000000 UF1WTXB
000f026c l       *ABS*	00000000 UF1ERX
000f026c l       *ABS*	00000000 UF1ERXB
000f026e l       *ABS*	00000000 UF1ID
000f026f l       *ABS*	00000000 UF1BUF0
000f0270 l       *ABS*	00000000 UF1BUF1
000f0271 l       *ABS*	00000000 UF1BUF2
000f0272 l       *ABS*	00000000 UF1BUF3
000f0273 l       *ABS*	00000000 UF1BUF4
000f0274 l       *ABS*	00000000 UF1BUF5
000f0275 l       *ABS*	00000000 UF1BUF6
000f0276 l       *ABS*	00000000 UF1BUF7
000f0277 l       *ABS*	00000000 UF1BUF8
000f0278 l       *ABS*	00000000 UF1BUCTL
000f0280 l       *ABS*	00000000 ADCR0
000f0281 l       *ABS*	00000000 ADCR0H
000f0282 l       *ABS*	00000000 ADCR1
000f0283 l       *ABS*	00000000 ADCR1H
000f0284 l       *ABS*	00000000 ADCR2
000f0285 l       *ABS*	00000000 ADCR2H
000f0286 l       *ABS*	00000000 ADCR3
000f0287 l       *ABS*	00000000 ADCR3H
000f0288 l       *ABS*	00000000 ADCR4
000f0289 l       *ABS*	00000000 ADCR4H
000f028a l       *ABS*	00000000 ADCR5
000f028b l       *ABS*	00000000 ADCR5H
000f028c l       *ABS*	00000000 ADCR6
000f028d l       *ABS*	00000000 ADCR6H
000f028e l       *ABS*	00000000 ADCR7
000f028f l       *ABS*	00000000 ADCR7H
000f0290 l       *ABS*	00000000 ADCR8
000f0291 l       *ABS*	00000000 ADCR8H
000f0292 l       *ABS*	00000000 ADCR9
000f0293 l       *ABS*	00000000 ADCR9H
000f0294 l       *ABS*	00000000 ADCR10
000f0295 l       *ABS*	00000000 ADCR10H
000f04f0 l       *ABS*	00000000 DFLST
00000000 l       *ABS*	00000000 DFLST_DFRDY
000f04f1 l       *ABS*	00000000 FLST
000f0500 l       *ABS*	00000000 DFLICR11
000f0502 l       *ABS*	00000000 DFLICR
000f0502 l       *ABS*	00000000 DFLICR0
000f0503 l       *ABS*	00000000 DFLICR10
000f0504 l       *ABS*	00000000 DFLITM
000f0504 l       *ABS*	00000000 DFLITM0
000f0505 l       *ABS*	00000000 DFLITM1
000f0506 l       *ABS*	00000000 DFLWE0
000f0507 l       *ABS*	00000000 DFLWE1
000f0508 l       *ABS*	00000000 DFLW1H
000f0508 l       *ABS*	00000000 DFLW1HL
000f0509 l       *ABS*	00000000 DFLW1HH
000f050a l       *ABS*	00000000 DFLW1L
000f050a l       *ABS*	00000000 DFLW1LL
000f050b l       *ABS*	00000000 DFLW1LH
000f050c l       *ABS*	00000000 DFTNVM
000f050e l       *ABS*	00000000 DFLTMS
000f050e l       *ABS*	00000000 DFLTMSL
000f050f l       *ABS*	00000000 DFLTMSH
000f0510 l       *ABS*	00000000 DPFCMD
000f0511 l       *ABS*	00000000 DFLMC
000f0512 l       *ABS*	00000000 DPFS
000f0514 l       *ABS*	00000000 DFLPMC
000f0516 l       *ABS*	00000000 DFLAPH
000f0517 l       *ABS*	00000000 DFLEMC
000f0518 l       *ABS*	00000000 DFLAPL
000f0518 l       *ABS*	00000000 DFLAPLL
000f0519 l       *ABS*	00000000 DFLAPLH
000f051a l       *ABS*	00000000 DFLITMC
000f051b l       *ABS*	00000000 DFSCTL
000f051c l       *ABS*	00000000 DFLW0H
000f051c l       *ABS*	00000000 DFLW0HL
000f051d l       *ABS*	00000000 DFLW0HH
000f051e l       *ABS*	00000000 DFLW0L
000f051e l       *ABS*	00000000 DFLW0LL
000f051f l       *ABS*	00000000 DFLW0LH
000f0520 l       *ABS*	00000000 DFLBTS
000f0521 l       *ABS*	00000000 DFLRE
000f0522 l       *ABS*	00000000 DFLRH
000f0522 l       *ABS*	00000000 DFLRHL
000f0523 l       *ABS*	00000000 DFLRHH
000f0524 l       *ABS*	00000000 DFLRL
000f0524 l       *ABS*	00000000 DFLRLL
000f0525 l       *ABS*	00000000 DFLRLH
000f0526 l       *ABS*	00000000 DFLARS
000f0528 l       *ABS*	00000000 DFSSQ
000f0529 l       *ABS*	00000000 DFSAST
000f052a l       *ABS*	00000000 DFSRTY
000f052c l       *ABS*	00000000 DFSRTYBF
000f0530 l       *ABS*	00000000 DFLMCK0
000f0532 l       *ABS*	00000000 DFLMCK1
000f0534 l       *ABS*	00000000 DFLMCK2
000f0536 l       *ABS*	00000000 DFLMCK3
000f0538 l       *ABS*	00000000 DFLMCK4
000f053a l       *ABS*	00000000 DFLTMC0
000f053b l       *ABS*	00000000 DFLTMC1
000f053c l       *ABS*	00000000 DFLTMC2
000f053d l       *ABS*	00000000 DFLTMC3
000f053e l       *ABS*	00000000 DFLTMC4
000f053f l       *ABS*	00000000 DFLTMC5
000f05c0 l       *ABS*	00000000 CGMCTRL
000f05c4 l       *ABS*	00000000 CGMCONF
000f05c6 l       *ABS*	00000000 CGMABT
000f05c8 l       *ABS*	00000000 CGMABTD
000f05ce l       *ABS*	00000000 CGMCS
000f05d0 l       *ABS*	00000000 CMASK1L
000f05d2 l       *ABS*	00000000 CMASK1H
000f05d4 l       *ABS*	00000000 CMASK2L
000f05d6 l       *ABS*	00000000 CMASK2H
000f05d8 l       *ABS*	00000000 CMASK3L
000f05da l       *ABS*	00000000 CMASK3H
000f05dc l       *ABS*	00000000 CMASK4L
000f05de l       *ABS*	00000000 CMASK4H
000f05e0 l       *ABS*	00000000 CCTRL
000f05e2 l       *ABS*	00000000 CLEC
000f05e3 l       *ABS*	00000000 CINFO
000f05e4 l       *ABS*	00000000 CERC
000f05e6 l       *ABS*	00000000 CIE
000f05e8 l       *ABS*	00000000 CINTS
000f05ea l       *ABS*	00000000 CBRP
000f05ec l       *ABS*	00000000 CBTR
000f05ee l       *ABS*	00000000 CLIPT
000f05f0 l       *ABS*	00000000 CRGPT
000f05f2 l       *ABS*	00000000 CLOPT
000f05f4 l       *ABS*	00000000 CTGPT
000f05f6 l       *ABS*	00000000 CTS
000f0600 l       *ABS*	00000000 CMDB0100
000f0600 l       *ABS*	00000000 CMDB000
000f0601 l       *ABS*	00000000 CMDB100
000f0602 l       *ABS*	00000000 CMDB2300
000f0602 l       *ABS*	00000000 CMDB200
000f0603 l       *ABS*	00000000 CMDB300
000f0604 l       *ABS*	00000000 CMDB4500
000f0604 l       *ABS*	00000000 CMDB400
000f0605 l       *ABS*	00000000 CMDB500
000f0606 l       *ABS*	00000000 CMDB6700
000f0606 l       *ABS*	00000000 CMDB600
000f0607 l       *ABS*	00000000 CMDB700
000f0608 l       *ABS*	00000000 CMDLC00
000f0609 l       *ABS*	00000000 CMCONF00
000f060a l       *ABS*	00000000 CMIDL00
000f060c l       *ABS*	00000000 CMIDH00
000f060e l       *ABS*	00000000 CMCTRL00
000f0610 l       *ABS*	00000000 CMDB0101
000f0610 l       *ABS*	00000000 CMDB001
000f0611 l       *ABS*	00000000 CMDB101
000f0612 l       *ABS*	00000000 CMDB2301
000f0612 l       *ABS*	00000000 CMDB201
000f0613 l       *ABS*	00000000 CMDB301
000f0614 l       *ABS*	00000000 CMDB4501
000f0614 l       *ABS*	00000000 CMDB401
000f0615 l       *ABS*	00000000 CMDB501
000f0616 l       *ABS*	00000000 CMDB6701
000f0616 l       *ABS*	00000000 CMDB601
000f0617 l       *ABS*	00000000 CMDB701
000f0618 l       *ABS*	00000000 CMDLC01
000f0619 l       *ABS*	00000000 CMCONF01
000f061a l       *ABS*	00000000 CMIDL01
000f061c l       *ABS*	00000000 CMIDH01
000f061e l       *ABS*	00000000 CMCTRL01
000f0620 l       *ABS*	00000000 CMDB0102
000f0620 l       *ABS*	00000000 CMDB002
000f0621 l       *ABS*	00000000 CMDB102
000f0622 l       *ABS*	00000000 CMDB2302
000f0622 l       *ABS*	00000000 CMDB202
000f0623 l       *ABS*	00000000 CMDB302
000f0624 l       *ABS*	00000000 CMDB4502
000f0624 l       *ABS*	00000000 CMDB402
000f0625 l       *ABS*	00000000 CMDB502
000f0626 l       *ABS*	00000000 CMDB6702
000f0626 l       *ABS*	00000000 CMDB602
000f0627 l       *ABS*	00000000 CMDB702
000f0628 l       *ABS*	00000000 CMDLC02
000f0629 l       *ABS*	00000000 CMCONF02
000f062a l       *ABS*	00000000 CMIDL02
000f062c l       *ABS*	00000000 CMIDH02
000f062e l       *ABS*	00000000 CMCTRL02
000f0630 l       *ABS*	00000000 CMDB0103
000f0630 l       *ABS*	00000000 CMDB003
000f0631 l       *ABS*	00000000 CMDB103
000f0632 l       *ABS*	00000000 CMDB2303
000f0632 l       *ABS*	00000000 CMDB203
000f0633 l       *ABS*	00000000 CMDB303
000f0634 l       *ABS*	00000000 CMDB4503
000f0634 l       *ABS*	00000000 CMDB403
000f0635 l       *ABS*	00000000 CMDB503
000f0636 l       *ABS*	00000000 CMDB6703
000f0636 l       *ABS*	00000000 CMDB603
000f0637 l       *ABS*	00000000 CMDB703
000f0638 l       *ABS*	00000000 CMDLC03
000f0639 l       *ABS*	00000000 CMCONF03
000f063a l       *ABS*	00000000 CMIDL03
000f063c l       *ABS*	00000000 CMIDH03
000f063e l       *ABS*	00000000 CMCTRL03
000f0640 l       *ABS*	00000000 CMDB0104
000f0640 l       *ABS*	00000000 CMDB004
000f0641 l       *ABS*	00000000 CMDB104
000f0642 l       *ABS*	00000000 CMDB2304
000f0642 l       *ABS*	00000000 CMDB204
000f0643 l       *ABS*	00000000 CMDB304
000f0644 l       *ABS*	00000000 CMDB4504
000f0644 l       *ABS*	00000000 CMDB404
000f0645 l       *ABS*	00000000 CMDB504
000f0646 l       *ABS*	00000000 CMDB6704
000f0646 l       *ABS*	00000000 CMDB604
000f0647 l       *ABS*	00000000 CMDB704
000f0648 l       *ABS*	00000000 CMDLC04
000f0649 l       *ABS*	00000000 CMCONF04
000f064a l       *ABS*	00000000 CMIDL04
000f064c l       *ABS*	00000000 CMIDH04
000f064e l       *ABS*	00000000 CMCTRL04
000f0650 l       *ABS*	00000000 CMDB0105
000f0650 l       *ABS*	00000000 CMDB005
000f0651 l       *ABS*	00000000 CMDB105
000f0652 l       *ABS*	00000000 CMDB2305
000f0652 l       *ABS*	00000000 CMDB205
000f0653 l       *ABS*	00000000 CMDB305
000f0654 l       *ABS*	00000000 CMDB4505
000f0654 l       *ABS*	00000000 CMDB405
000f0655 l       *ABS*	00000000 CMDB505
000f0656 l       *ABS*	00000000 CMDB6705
000f0656 l       *ABS*	00000000 CMDB605
000f0657 l       *ABS*	00000000 CMDB705
000f0658 l       *ABS*	00000000 CMDLC05
000f0659 l       *ABS*	00000000 CMCONF05
000f065a l       *ABS*	00000000 CMIDL05
000f065c l       *ABS*	00000000 CMIDH05
000f065e l       *ABS*	00000000 CMCTRL05
000f0660 l       *ABS*	00000000 CMDB0106
000f0660 l       *ABS*	00000000 CMDB006
000f0661 l       *ABS*	00000000 CMDB106
000f0662 l       *ABS*	00000000 CMDB2306
000f0662 l       *ABS*	00000000 CMDB206
000f0663 l       *ABS*	00000000 CMDB306
000f0664 l       *ABS*	00000000 CMDB4506
000f0664 l       *ABS*	00000000 CMDB406
000f0665 l       *ABS*	00000000 CMDB506
000f0666 l       *ABS*	00000000 CMDB6706
000f0666 l       *ABS*	00000000 CMDB606
000f0667 l       *ABS*	00000000 CMDB706
000f0668 l       *ABS*	00000000 CMDLC06
000f0669 l       *ABS*	00000000 CMCONF06
000f066a l       *ABS*	00000000 CMIDL06
000f066c l       *ABS*	00000000 CMIDH06
000f066e l       *ABS*	00000000 CMCTRL06
000f0670 l       *ABS*	00000000 CMDB0107
000f0670 l       *ABS*	00000000 CMDB007
000f0671 l       *ABS*	00000000 CMDB107
000f0672 l       *ABS*	00000000 CMDB2307
000f0672 l       *ABS*	00000000 CMDB207
000f0673 l       *ABS*	00000000 CMDB307
000f0674 l       *ABS*	00000000 CMDB4507
000f0674 l       *ABS*	00000000 CMDB407
000f0675 l       *ABS*	00000000 CMDB507
000f0676 l       *ABS*	00000000 CMDB6707
000f0676 l       *ABS*	00000000 CMDB607
000f0677 l       *ABS*	00000000 CMDB707
000f0678 l       *ABS*	00000000 CMDLC07
000f0679 l       *ABS*	00000000 CMCONF07
000f067a l       *ABS*	00000000 CMIDL07
000f067c l       *ABS*	00000000 CMIDH07
000f067e l       *ABS*	00000000 CMCTRL07
000f0680 l       *ABS*	00000000 CMDB0108
000f0680 l       *ABS*	00000000 CMDB008
000f0681 l       *ABS*	00000000 CMDB108
000f0682 l       *ABS*	00000000 CMDB2308
000f0682 l       *ABS*	00000000 CMDB208
000f0683 l       *ABS*	00000000 CMDB308
000f0684 l       *ABS*	00000000 CMDB4508
000f0684 l       *ABS*	00000000 CMDB408
000f0685 l       *ABS*	00000000 CMDB508
000f0686 l       *ABS*	00000000 CMDB6708
000f0686 l       *ABS*	00000000 CMDB608
000f0687 l       *ABS*	00000000 CMDB708
000f0688 l       *ABS*	00000000 CMDLC08
000f0689 l       *ABS*	00000000 CMCONF08
000f068a l       *ABS*	00000000 CMIDL08
000f068c l       *ABS*	00000000 CMIDH08
000f068e l       *ABS*	00000000 CMCTRL08
000f0690 l       *ABS*	00000000 CMDB0109
000f0690 l       *ABS*	00000000 CMDB009
000f0691 l       *ABS*	00000000 CMDB109
000f0692 l       *ABS*	00000000 CMDB2309
000f0692 l       *ABS*	00000000 CMDB209
000f0693 l       *ABS*	00000000 CMDB309
000f0694 l       *ABS*	00000000 CMDB4509
000f0694 l       *ABS*	00000000 CMDB409
000f0695 l       *ABS*	00000000 CMDB509
000f0696 l       *ABS*	00000000 CMDB6709
000f0696 l       *ABS*	00000000 CMDB609
000f0697 l       *ABS*	00000000 CMDB709
000f0698 l       *ABS*	00000000 CMDLC09
000f0699 l       *ABS*	00000000 CMCONF09
000f069a l       *ABS*	00000000 CMIDL09
000f069c l       *ABS*	00000000 CMIDH09
000f069e l       *ABS*	00000000 CMCTRL09
000f06a0 l       *ABS*	00000000 CMDB0110
000f06a0 l       *ABS*	00000000 CMDB010
000f06a1 l       *ABS*	00000000 CMDB110
000f06a2 l       *ABS*	00000000 CMDB2310
000f06a2 l       *ABS*	00000000 CMDB210
000f06a3 l       *ABS*	00000000 CMDB310
000f06a4 l       *ABS*	00000000 CMDB4510
000f06a4 l       *ABS*	00000000 CMDB410
000f06a5 l       *ABS*	00000000 CMDB510
000f06a6 l       *ABS*	00000000 CMDB6710
000f06a6 l       *ABS*	00000000 CMDB610
000f06a7 l       *ABS*	00000000 CMDB710
000f06a8 l       *ABS*	00000000 CMDLC10
000f06a9 l       *ABS*	00000000 CMCONF10
000f06aa l       *ABS*	00000000 CMIDL10
000f06ac l       *ABS*	00000000 CMIDH10
000f06ae l       *ABS*	00000000 CMCTRL10
000f06b0 l       *ABS*	00000000 CMDB0111
000f06b0 l       *ABS*	00000000 CMDB011
000f06b1 l       *ABS*	00000000 CMDB111
000f06b2 l       *ABS*	00000000 CMDB2311
000f06b2 l       *ABS*	00000000 CMDB211
000f06b3 l       *ABS*	00000000 CMDB311
000f06b4 l       *ABS*	00000000 CMDB4511
000f06b4 l       *ABS*	00000000 CMDB411
000f06b5 l       *ABS*	00000000 CMDB511
000f06b6 l       *ABS*	00000000 CMDB6711
000f06b6 l       *ABS*	00000000 CMDB611
000f06b7 l       *ABS*	00000000 CMDB711
000f06b8 l       *ABS*	00000000 CMDLC11
000f06b9 l       *ABS*	00000000 CMCONF11
000f06ba l       *ABS*	00000000 CMIDL11
000f06bc l       *ABS*	00000000 CMIDH11
000f06be l       *ABS*	00000000 CMCTRL11
000f06c0 l       *ABS*	00000000 CMDB0112
000f06c0 l       *ABS*	00000000 CMDB012
000f06c1 l       *ABS*	00000000 CMDB112
000f06c2 l       *ABS*	00000000 CMDB2312
000f06c2 l       *ABS*	00000000 CMDB212
000f06c3 l       *ABS*	00000000 CMDB312
000f06c4 l       *ABS*	00000000 CMDB4512
000f06c4 l       *ABS*	00000000 CMDB412
000f06c5 l       *ABS*	00000000 CMDB512
000f06c6 l       *ABS*	00000000 CMDB6712
000f06c6 l       *ABS*	00000000 CMDB612
000f06c7 l       *ABS*	00000000 CMDB712
000f06c8 l       *ABS*	00000000 CMDLC12
000f06c9 l       *ABS*	00000000 CMCONF12
000f06ca l       *ABS*	00000000 CMIDL12
000f06cc l       *ABS*	00000000 CMIDH12
000f06ce l       *ABS*	00000000 CMCTRL12
000f06d0 l       *ABS*	00000000 CMDB0113
000f06d0 l       *ABS*	00000000 CMDB013
000f06d1 l       *ABS*	00000000 CMDB113
000f06d2 l       *ABS*	00000000 CMDB2313
000f06d2 l       *ABS*	00000000 CMDB213
000f06d3 l       *ABS*	00000000 CMDB313
000f06d4 l       *ABS*	00000000 CMDB4513
000f06d4 l       *ABS*	00000000 CMDB413
000f06d5 l       *ABS*	00000000 CMDB513
000f06d6 l       *ABS*	00000000 CMDB6713
000f06d6 l       *ABS*	00000000 CMDB613
000f06d7 l       *ABS*	00000000 CMDB713
000f06d8 l       *ABS*	00000000 CMDLC13
000f06d9 l       *ABS*	00000000 CMCONF13
000f06da l       *ABS*	00000000 CMIDL13
000f06dc l       *ABS*	00000000 CMIDH13
000f06de l       *ABS*	00000000 CMCTRL13
000f06e0 l       *ABS*	00000000 CMDB0114
000f06e0 l       *ABS*	00000000 CMDB014
000f06e1 l       *ABS*	00000000 CMDB114
000f06e2 l       *ABS*	00000000 CMDB2314
000f06e2 l       *ABS*	00000000 CMDB214
000f06e3 l       *ABS*	00000000 CMDB314
000f06e4 l       *ABS*	00000000 CMDB4514
000f06e4 l       *ABS*	00000000 CMDB414
000f06e5 l       *ABS*	00000000 CMDB514
000f06e6 l       *ABS*	00000000 CMDB6714
000f06e6 l       *ABS*	00000000 CMDB614
000f06e7 l       *ABS*	00000000 CMDB714
000f06e8 l       *ABS*	00000000 CMDLC14
000f06e9 l       *ABS*	00000000 CMCONF14
000f06ea l       *ABS*	00000000 CMIDL14
000f06ec l       *ABS*	00000000 CMIDH14
000f06ee l       *ABS*	00000000 CMCTRL14
000f06f0 l       *ABS*	00000000 CMDB0115
000f06f0 l       *ABS*	00000000 CMDB015
000f06f1 l       *ABS*	00000000 CMDB115
000f06f2 l       *ABS*	00000000 CMDB2315
000f06f2 l       *ABS*	00000000 CMDB215
000f06f3 l       *ABS*	00000000 CMDB315
000f06f4 l       *ABS*	00000000 CMDB4515
000f06f4 l       *ABS*	00000000 CMDB415
000f06f5 l       *ABS*	00000000 CMDB515
000f06f6 l       *ABS*	00000000 CMDB6715
000f06f6 l       *ABS*	00000000 CMDB615
000f06f7 l       *ABS*	00000000 CMDB715
000f06f8 l       *ABS*	00000000 CMDLC15
000f06f9 l       *ABS*	00000000 CMCONF15
000f06fa l       *ABS*	00000000 CMIDL15
000f06fc l       *ABS*	00000000 CMIDH15
000f06fe l       *ABS*	00000000 CMCTRL15
0000ff00 l       *ABS*	00000000 P0_PIO
0000ff20 l       *ABS*	00000000 P0_DIR
00000030 l       *ABS*	00000000 P0_PEN
0000ff01 l       *ABS*	00000000 P1_PIO
0000ff21 l       *ABS*	00000000 P1_DIR
00000031 l       *ABS*	00000000 P1_PEN
0000ffff l       *ABS*	00000000 P2_PIO
0000ffff l       *ABS*	00000000 P2_DIR
0000ffff l       *ABS*	00000000 P2_PEN
0000ff03 l       *ABS*	00000000 P3_PIO
0000ff23 l       *ABS*	00000000 P3_DIR
00000033 l       *ABS*	00000000 P3_PEN
0000ff04 l       *ABS*	00000000 P4_PIO
0000ff24 l       *ABS*	00000000 P4_DIR
00000034 l       *ABS*	00000000 P4_PEN
0000ffff l       *ABS*	00000000 P5_PIO
0000ffff l       *ABS*	00000000 P5_DIR
0000ffff l       *ABS*	00000000 P5_PEN
0000ff06 l       *ABS*	00000000 P6_PIO
0000ff26 l       *ABS*	00000000 P6_DIR
00000036 l       *ABS*	00000000 P6_PEN
0000ff07 l       *ABS*	00000000 P7_PIO
0000ff27 l       *ABS*	00000000 P7_DIR
00000037 l       *ABS*	00000000 P7_PEN
0000ff08 l       *ABS*	00000000 P8_PIO
0000ff28 l       *ABS*	00000000 P8_DIR
0000ffff l       *ABS*	00000000 P8_PEN
0000ff09 l       *ABS*	00000000 P9_PIO
0000ff29 l       *ABS*	00000000 P9_DIR
0000ffff l       *ABS*	00000000 P9_PEN
0000ffff l       *ABS*	00000000 P10_PIO
0000ffff l       *ABS*	00000000 P10_DIR
0000ffff l       *ABS*	00000000 P10_PEN
0000ffff l       *ABS*	00000000 P11_PIO
0000ffff l       *ABS*	00000000 P11_DIR
0000ffff l       *ABS*	00000000 P11_PEN
0000ff0c l       *ABS*	00000000 P12_PIO
0000ff2c l       *ABS*	00000000 P12_DIR
0000003c l       *ABS*	00000000 P12_PEN
0000ff0d l       *ABS*	00000000 P13_PIO
0000ffff l       *ABS*	00000000 P13_DIR
0000ffff l       *ABS*	00000000 P13_PEN
0000ff0e l       *ABS*	00000000 P14_PIO
0000ff2e l       *ABS*	00000000 P14_DIR
0000003e l       *ABS*	00000000 P14_PEN
0000ffff l       *ABS*	00000000 P15_PIO
0000ffff l       *ABS*	00000000 P15_DIR
0000ffff l       *ABS*	00000000 P15_PEN
00000000 l       *ABS*	00000000 PORT_0
00000006 l       *ABS*	00000000 PORT_1
0000000c l       *ABS*	00000000 PORT_3
00000012 l       *ABS*	00000000 PORT_4
00000018 l       *ABS*	00000000 PORT_6
0000001e l       *ABS*	00000000 PORT_7
00000024 l       *ABS*	00000000 PORT_8
0000002a l       *ABS*	00000000 PORT_9
00000030 l       *ABS*	00000000 PORT_12
00000036 l       *ABS*	00000000 PORT_14
00000001 l       *ABS*	00000000 PWM0
0000ff23 l       *ABS*	00000000 PWM0_PDIR
00000001 l       *ABS*	00000000 PWM0_PMASK
00000001 l       *ABS*	00000000 PWM1
0000ff2c l       *ABS*	00000000 PWM1_PDIR
00000020 l       *ABS*	00000000 PWM1_PMASK
0000014c l       .text	00000000 mystart
00000157 l       .text	00000000 default_handler
00000000 l    df *ABS*	00000000 build/src/main.o
000ffef0 l       *ABS*	00000000 r8
000ffee8 l       *ABS*	00000000 r16
000ffee0 l       *ABS*	00000000 r24
000ffef1 l       *ABS*	00000000 r9
000ffee9 l       *ABS*	00000000 r17
000ffee1 l       *ABS*	00000000 r25
000ffef2 l       *ABS*	00000000 r10
000ffeea l       *ABS*	00000000 r18
000ffee2 l       *ABS*	00000000 r26
000ffef3 l       *ABS*	00000000 r11
000ffeeb l       *ABS*	00000000 r19
000ffee3 l       *ABS*	00000000 r27
000ffef4 l       *ABS*	00000000 r12
000ffeec l       *ABS*	00000000 r20
000ffee4 l       *ABS*	00000000 r28
000ffef5 l       *ABS*	00000000 r13
000ffeed l       *ABS*	00000000 r21
000ffee5 l       *ABS*	00000000 r29
000ffef6 l       *ABS*	00000000 r14
000ffeee l       *ABS*	00000000 r22
000ffee6 l       *ABS*	00000000 r30
000ffef7 l       *ABS*	00000000 r15
000ffeef l       *ABS*	00000000 r23
000ffee7 l       *ABS*	00000000 r31
0000023d l       .text	00000000 .L2
00000244 l       .text	00000000 .L3
00000225 l       .text	00000000 .L4
0000064d l       .text	00000000 .L8
0000065d l       .text	00000000 .L9
000006ac l       .text	00000000 .L10
000006d9 l       .text	00000000 .L11
000006c1 l       .text	00000000 .L12
000006d6 l       .text	00000000 .L13
00000693 l       .text	00000000 .L14
00000643 l       .text	00000000 .L15
00000000 l    df *ABS*	00000000 build/src/interrupts.o
000ffef0 l       *ABS*	00000000 r8
000ffee8 l       *ABS*	00000000 r16
000ffee0 l       *ABS*	00000000 r24
000ffef1 l       *ABS*	00000000 r9
000ffee9 l       *ABS*	00000000 r17
000ffee1 l       *ABS*	00000000 r25
000ffef2 l       *ABS*	00000000 r10
000ffeea l       *ABS*	00000000 r18
000ffee2 l       *ABS*	00000000 r26
000ffef3 l       *ABS*	00000000 r11
000ffeeb l       *ABS*	00000000 r19
000ffee3 l       *ABS*	00000000 r27
000ffef4 l       *ABS*	00000000 r12
000ffeec l       *ABS*	00000000 r20
000ffee4 l       *ABS*	00000000 r28
000ffef5 l       *ABS*	00000000 r13
000ffeed l       *ABS*	00000000 r21
000ffee5 l       *ABS*	00000000 r29
000ffef6 l       *ABS*	00000000 r14
000ffeee l       *ABS*	00000000 r22
000ffee6 l       *ABS*	00000000 r30
000ffef7 l       *ABS*	00000000 r15
000ffeef l       *ABS*	00000000 r23
000ffee7 l       *ABS*	00000000 r31
00000000 l    df *ABS*	00000000 unilib.o
000ffef0 l       *ABS*	00000000 r8
000ffee8 l       *ABS*	00000000 r16
000ffee0 l       *ABS*	00000000 r24
000ffef1 l       *ABS*	00000000 r9
000ffee9 l       *ABS*	00000000 r17
000ffee1 l       *ABS*	00000000 r25
000ffef2 l       *ABS*	00000000 r10
000ffeea l       *ABS*	00000000 r18
000ffee2 l       *ABS*	00000000 r26
000ffef3 l       *ABS*	00000000 r11
000ffeeb l       *ABS*	00000000 r19
000ffee3 l       *ABS*	00000000 r27
000ffef4 l       *ABS*	00000000 r12
000ffeec l       *ABS*	00000000 r20
000ffee4 l       *ABS*	00000000 r28
000ffef5 l       *ABS*	00000000 r13
000ffeed l       *ABS*	00000000 r21
000ffee5 l       *ABS*	00000000 r29
000ffef6 l       *ABS*	00000000 r14
000ffeee l       *ABS*	00000000 r22
000ffee6 l       *ABS*	00000000 r30
000ffef7 l       *ABS*	00000000 r15
000ffeef l       *ABS*	00000000 r23
000ffee7 l       *ABS*	00000000 r31
000002f6 l       .text	00000000 .L7
000002d0 l       .text	00000000 .L4
00000328 l       .text	00000000 .L14
00000324 l       .text	00000000 .L15
00000316 l       .text	00000000 .L10
000002fb l       .text	00000000 .L9
0000036f l       .text	00000000 .L17
00000387 l       .text	00000000 .L18
000003a0 l       .text	00000000 .L19
00000393 l       .text	00000000 .L20
000003b5 l       .text	00000000 .L27
000003bd l       .text	00000000 .L21
000003aa l       .text	00000000 .L22
000003cf l       .text	00000000 .L23
000003d7 l       .text	00000000 .L24
00000000 l    df *ABS*	00000000 outchar.o
000ffef0 l       *ABS*	00000000 r8
000ffee8 l       *ABS*	00000000 r16
000ffee0 l       *ABS*	00000000 r24
000ffef1 l       *ABS*	00000000 r9
000ffee9 l       *ABS*	00000000 r17
000ffee1 l       *ABS*	00000000 r25
000ffef2 l       *ABS*	00000000 r10
000ffeea l       *ABS*	00000000 r18
000ffee2 l       *ABS*	00000000 r26
000ffef3 l       *ABS*	00000000 r11
000ffeeb l       *ABS*	00000000 r19
000ffee3 l       *ABS*	00000000 r27
000ffef4 l       *ABS*	00000000 r12
000ffeec l       *ABS*	00000000 r20
000ffee4 l       *ABS*	00000000 r28
000ffef5 l       *ABS*	00000000 r13
000ffeed l       *ABS*	00000000 r21
000ffee5 l       *ABS*	00000000 r29
000ffef6 l       *ABS*	00000000 r14
000ffeee l       *ABS*	00000000 r22
000ffee6 l       *ABS*	00000000 r30
000ffef7 l       *ABS*	00000000 r15
000ffeef l       *ABS*	00000000 r23
000ffee7 l       *ABS*	00000000 r31
00000000 l    df *ABS*	00000000 unilib_portio_asm.o
00000488 l       .text	00000000 set_pin_done
000004d0 l       .text	00000000 set_pip_done
0000050e l       .text	00000000 portpin_set_low
000005b5 l       .text	00000000 gpl_return0
000005ae l       .text	00000000 gpl_return1
00000000 l    df *ABS*	00000000 unilib_interrupts.o
000ffef0 l       *ABS*	00000000 r8
000ffee8 l       *ABS*	00000000 r16
000ffee0 l       *ABS*	00000000 r24
000ffef1 l       *ABS*	00000000 r9
000ffee9 l       *ABS*	00000000 r17
000ffee1 l       *ABS*	00000000 r25
000ffef2 l       *ABS*	00000000 r10
000ffeea l       *ABS*	00000000 r18
000ffee2 l       *ABS*	00000000 r26
000ffef3 l       *ABS*	00000000 r11
000ffeeb l       *ABS*	00000000 r19
000ffee3 l       *ABS*	00000000 r27
000ffef4 l       *ABS*	00000000 r12
000ffeec l       *ABS*	00000000 r20
000ffee4 l       *ABS*	00000000 r28
000ffef5 l       *ABS*	00000000 r13
000ffeed l       *ABS*	00000000 r21
000ffee5 l       *ABS*	00000000 r29
000ffef6 l       *ABS*	00000000 r14
000ffeee l       *ABS*	00000000 r22
000ffee6 l       *ABS*	00000000 r30
000ffef7 l       *ABS*	00000000 r15
000ffeef l       *ABS*	00000000 r23
000ffee7 l       *ABS*	00000000 r31
00000601 l       .text	00000000 .L12
000003f0 g     F .text	00000004 disable_interrupts
000004f6 g       .text	00000000 portpin_set_high
000ff904 g     O .bss	00000002 printf_output
000ff906 g     O .bss	00000002 unilib_tick_counter
0000028f g       .text	00000000 get_fbyte1
00000423 g     F .text	00000002 OUTPUT_NONE
0000048b g       .text	00000000 port_set_input_nopull
00000710 g       .text	00000000 etext
000ff902 g     O .bss	00000002 memptr
0000040e g     F .text	00000006 set_outchar_routine
00000008 g       *ABS*	00000000 _bss_size
0000043a g       .text	00000000 portpin_set_output
000002c8 g     F .text	0000002f unilib_pause
000004d3 g       .text	00000000 port_set_input_pullup
0000027f g       .text	00000000 get_fbyte0
0000045e g       .text	00000000 portpin_set_input_nopull
00000710 g       .plt	00000000 _data_image
00000108 g       .text	00000000 unilib_and_table
000ff900 g       .plt	00000000 _data_section_start
000005c5  w    F .text	00000003 isr_pwm3
00000450 g       .text	00000000 port_set_output
000002f7 g     F .text	00000032 unilib_pause_ms
0000029f g       .text	00000000 get_fbyte2
00000536 g       .text	00000000 port_set_nibble0
00000329 g     F .text	000000c3 clock_config
00000598 g       .text	00000000 portpin_get
000005d1  w    F .text	00000003 isr_recv_uart1
00000000 g       *ABS*	00000000 _data_section_size
000005cb  w    F .text	00000003 isr_recv_uart0
00000000 g       .text	00000000 start
0000058a g       .text	00000000 port_get
00000110 g       .text	00000000 unilib_port_table
0000054d g       .text	00000000 port_set_nibble1
0000050e g       .text	00000000 portpin_set_low
000005c2  w    F .text	00000003 isr_pwm2
000004a8 g       .text	00000000 portpin_set_input_pullup
000003f4 g     F .text	0000001a OUTPUT_MEMORY
000ff900 g       .bss	00000000 _bss_start
00000100 g       .text	00000000 unilib_or_table
000002bf g     F .text	00000007 unilib_init
00000710 g       *ABS*	00000000 _data_image_end
000005d7  w    F .text	00000003 isr_ext1
000005da g     F .text	0000003e _tick_handler
00000425 g     F .text	00000015 set_outchar_memory
00000577 g       .text	00000000 port_set_low
00000414 g     F .text	0000000f unilib_outchar
000002c6 g     F .text	00000002 abort
000005bc  w    F .text	00000003 isr_pwm0
00000200 g     F .text	0000008b out_byte
00000526 g       .text	00000000 port_set
000005d4  w    F .text	00000003 isr_ext0
000005bf  w    F .text	00000003 isr_pwm1
000005c8  w    F .text	00000003 isr_uart0_send
000005ce  w    F .text	00000003 isr_uart1_send
000003ec g     F .text	00000004 enable_interrupts
000ff900 g       .plt	00000000 edata
000002af g       .text	00000000 get_fbyte3
00000566 g       .text	00000000 port_set_high
000ff900 g     O .bss	00000001 unilib_cpu_freq
000004f0 g       .text	00000000 portpin_set
0000027e g     F .text	00000001 user_tick
00000615 g     F .text	0000011d main



Disassembly of section .text:

00000000 <start>:
   0:	4c 01                         	cmp	a, #1
   2:	57 01                         	mov	h, #1
   4:	57 01                         	mov	h, #1
   6:	57 01                         	mov	h, #1
   8:	57 01                         	mov	h, #1
   a:	57 01                         	mov	h, #1
   c:	57 01                         	mov	h, #1
   e:	57 01                         	mov	h, #1
  10:	57 01                         	mov	h, #1
  12:	d4 05                         	cmp0	0xfff05
  14:	57 01                         	mov	h, #1
  16:	57 01                         	mov	h, #1
  18:	57 01                         	mov	h, #1
  1a:	57 01                         	mov	h, #1
  1c:	57 01                         	mov	h, #1
  1e:	da 05                         	movw	bc, 0xfff05
  20:	57 01                         	mov	h, #1
  22:	c8 05 cb                      	mov	[sp+5], #203
  25:	05                            	addw	ax, de
  26:	57 01                         	mov	h, #1
  28:	57 01                         	mov	h, #1
  2a:	57 01                         	mov	h, #1
  2c:	bc 05                         	movw	[hl+5], ax
  2e:	57 01                         	mov	h, #1
  30:	bf 05 57                      	movw	!f5705 <CMCTRL15+0x5007>, ax
  33:	01                            	addw	ax, ax
  34:	57 01                         	mov	h, #1
  36:	ce 05 d1                      	mov	0xfff05, #209
  39:	05                            	addw	ax, de
  3a:	57 01                         	mov	h, #1
  3c:	57 01                         	mov	h, #1
  3e:	57 01                         	mov	h, #1
  40:	57 01                         	mov	h, #1
  42:	57 01                         	mov	h, #1
  44:	57 01                         	mov	h, #1
  46:	57 01                         	mov	h, #1
  48:	57 01                         	mov	h, #1
  4a:	d7                            	ret
  4b:	05                            	addw	ax, de
  4c:	57 01                         	mov	h, #1
  4e:	57 01                         	mov	h, #1
  50:	57 01                         	mov	h, #1
  52:	57 01                         	mov	h, #1
  54:	57 01                         	mov	h, #1
  56:	c2                            	pop	bc
  57:	05                            	addw	ax, de
  58:	57 01                         	mov	h, #1
  5a:	c5                            	push	de
  5b:	05                            	addw	ax, de
  5c:	57 01                         	mov	h, #1
  5e:	57 01                         	mov	h, #1
  60:	57 01                         	mov	h, #1
  62:	57 01                         	mov	h, #1
  64:	57 01                         	mov	h, #1
  66:	57 01                         	mov	h, #1
  68:	57 01                         	mov	h, #1
  6a:	57 01                         	mov	h, #1
  6c:	57 01                         	mov	h, #1
  6e:	57 01                         	mov	h, #1
  70:	57 01                         	mov	h, #1
  72:	57 01                         	mov	h, #1
  74:	57 01                         	mov	h, #1
  76:	57 01                         	mov	h, #1
  78:	57 01                         	mov	h, #1
  7a:	57 01                         	mov	h, #1
  7c:	57 01                         	mov	h, #1
  7e:	57 01                         	mov	h, #1
  80:	57 01                         	mov	h, #1
  82:	57 01                         	mov	h, #1
  84:	57 01                         	mov	h, #1
  86:	57 01                         	mov	h, #1
  88:	57 01                         	mov	h, #1
  8a:	57 01                         	mov	h, #1
  8c:	57 01                         	mov	h, #1
  8e:	57 01                         	mov	h, #1
  90:	57 01                         	mov	h, #1
  92:	57 01                         	mov	h, #1
  94:	57 01                         	mov	h, #1
  96:	57 01                         	mov	h, #1
  98:	57 01                         	mov	h, #1
  9a:	57 01                         	mov	h, #1
  9c:	57 01                         	mov	h, #1
  9e:	57 01                         	mov	h, #1
  a0:	57 01                         	mov	h, #1
  a2:	57 01                         	mov	h, #1
  a4:	57 01                         	mov	h, #1
  a6:	57 01                         	mov	h, #1
  a8:	57 01                         	mov	h, #1
  aa:	57 01                         	mov	h, #1
  ac:	57 01                         	mov	h, #1
  ae:	57 01                         	mov	h, #1
  b0:	57 01                         	mov	h, #1
  b2:	57 01                         	mov	h, #1
  b4:	57 01                         	mov	h, #1
  b6:	57 01                         	mov	h, #1
  b8:	57 01                         	mov	h, #1
  ba:	57 01                         	mov	h, #1
  bc:	57 01                         	mov	h, #1
  be:	57 01                         	mov	h, #1
  c0:	00                            	nop
  c1:	dd ff                         	bz	$c2 <P14_PEN+0x84>
  c3:	04 00 00                      	addw	ax, #0
	...

00000100 <unilib_or_table>:
 100:	01                            	addw	ax, ax
 101:	02 04 08                      	addw	ax, !f0804 <CMCTRL15+0x106>
 104:	10 20                         	addw	sp, #32
 106:	40 80 fe fd                   	cmp	!ffe80 <unilib_tick_counter+0x57a>, #253

00000108 <unilib_and_table>:
 108:	fe fd fb                      	call	$!fffffd08 <PMC+0xffeffd0a>
 10b:	f7                            	clrw	bc
 10c:	ef df                         	br	$ed <P14_PEN+0xaf>
 10e:	bf 7f 00                      	movw	!f007f <IAWFLASH+0x9>, ax

00000110 <unilib_port_table>:
 110:	00                            	nop
 111:	ff                            	brk1
 112:	20 ff                         	subw	sp, #255
 114:	30 00 01                      	movw	ax, #256
 117:	ff                            	brk1
 118:	21                            	subw	ax, ax
 119:	ff                            	brk1
 11a:	31 00 03 ff                   	btclr	0xfff03.0, $11d <unilib_port_table+0xd>
 11e:	23                            	subw	ax, bc
 11f:	ff                            	brk1
 120:	33                            	xchw	ax, bc
 121:	00                            	nop
 122:	04 ff 24                      	addw	ax, #0x24ff
 125:	ff                            	brk1
 126:	34 00 06                      	movw	de, #0x600
 129:	ff                            	brk1
 12a:	26 ff                         	subw	ax, 0xffeff
 12c:	36 00 07                      	movw	hl, #0x700
 12f:	ff                            	brk1
 130:	27                            	subw	ax, hl
 131:	ff                            	brk1
 132:	37                            	xchw	ax, hl
 133:	00                            	nop
 134:	08                            	xch	a, x
 135:	ff                            	brk1
 136:	28 ff ff                      	mov	65535[c], a
 139:	ff                            	brk1
 13a:	09 ff 29                      	mov	a, 10751[b]
 13d:	ff                            	brk1
 13e:	ff                            	brk1
 13f:	ff                            	brk1
 140:	0c ff                         	add	a, #255
 142:	2c ff                         	sub	a, #255
 144:	3c 00                         	subc	a, #0
 146:	0e ff                         	add	a, [hl+255]
 148:	2e ff                         	sub	a, [hl+255]
 14a:	3e 00                         	subc	a, [hl+0]

0000014c <mystart>:
 14c:	cb f8 e0 fe                   	movw	sp, #0xfee0
 150:	61 cf                         	sel	rb0
 152:	41 00                         	mov	es, #0
 154:	ee be 04                      	br	$!615 <main>

00000157 <default_handler>:
 157:	61 fc                         	reti
	...

00000200 <out_byte>:
 200:	61 ef                         	sel	rb2
 202:	c1                            	push	ax
 203:	c3                            	push	bc
 204:	61 cf                         	sel	rb0
 206:	20 04                         	subw	sp, #4
 208:	88 0c                         	mov	a, [sp+12]
 20a:	9d ea                         	mov	0xffeea, a
 20c:	51 12                         	mov	a, #18
 20e:	98 00                         	mov	[sp+0], a
 210:	f1                            	clrb	a
 211:	98 02                         	mov	[sp+2], a
 213:	fd 0e 05                      	call	!50e <portpin_set_low>
 216:	30 0c 00                      	movw	ax, #12
 219:	b8 00                         	movw	[sp+0], ax
 21b:	f6                            	clrw	ax
 21c:	b8 02                         	movw	[sp+2], ax
 21e:	fd c8 02                      	call	!2c8 <unilib_pause>
 221:	c9 e8 08 00                   	movw	0xffee8, #8

00000225 <.L4>:
 225:	8d ea                         	mov	a, 0xffeea
 227:	5c 01                         	and	a, #1
 229:	9d f0                         	mov	0xffef0, a
 22b:	51 12                         	mov	a, #18
 22d:	98 00                         	mov	[sp+0], a
 22f:	d4 f0                         	cmp0	0xffef0
 231:	61 f8                         	sknz
 233:	ef 08                         	br	$23d <.L2>
 235:	f1                            	clrb	a
 236:	98 02                         	mov	[sp+2], a
 238:	fd f6 04                      	call	!4f6 <portpin_set_high>
 23b:	ef 07                         	br	$244 <.L3>

0000023d <.L2>:
 23d:	8d f0                         	mov	a, 0xffef0
 23f:	98 02                         	mov	[sp+2], a
 241:	fd 0e 05                      	call	!50e <portpin_set_low>

00000244 <.L3>:
 244:	8d ea                         	mov	a, 0xffeea
 246:	31 1a                         	shr	a, 1
 248:	9d ea                         	mov	0xffeea, a
 24a:	30 0c 00                      	movw	ax, #12
 24d:	b8 00                         	movw	[sp+0], ax
 24f:	f6                            	clrw	ax
 250:	b8 02                         	movw	[sp+2], ax
 252:	fd c8 02                      	call	!2c8 <unilib_pause>
 255:	b6 e8                         	decw	0xffee8
 257:	ad e8                         	movw	ax, 0xffee8
 259:	44 00 00                      	cmpw	ax, #0
 25c:	61 e8                         	skz
 25e:	ef c5                         	br	$225 <.L4>
 260:	51 12                         	mov	a, #18
 262:	98 00                         	mov	[sp+0], a
 264:	f1                            	clrb	a
 265:	98 02                         	mov	[sp+2], a
 267:	fd f6 04                      	call	!4f6 <portpin_set_high>
 26a:	30 24 00                      	movw	ax, #36
 26d:	b8 00                         	movw	[sp+0], ax
 26f:	f6                            	clrw	ax
 270:	b8 02                         	movw	[sp+2], ax
 272:	fd c8 02                      	call	!2c8 <unilib_pause>
 275:	10 04                         	addw	sp, #4
 277:	61 ef                         	sel	rb2
 279:	c2                            	pop	bc
 27a:	c0                            	pop	ax
 27b:	61 cf                         	sel	rb0
 27d:	d7                            	ret

0000027e <user_tick>:
 27e:	d7                            	ret

0000027f <get_fbyte0>:
 27f:	c3                            	push	bc
 280:	c7                            	push	hl
 281:	a8 08                         	movw	ax, [sp+8]
 283:	16                            	movw	hl, ax
 284:	41 00                         	mov	es, #0
 286:	11 8b                         	mov	a, es:[hl]
 288:	41 00                         	mov	es, #0
 28a:	9d f0                         	mov	0xffef0, a
 28c:	c6                            	pop	hl
 28d:	c2                            	pop	bc
 28e:	d7                            	ret

0000028f <get_fbyte1>:
 28f:	c3                            	push	bc
 290:	c7                            	push	hl
 291:	a8 08                         	movw	ax, [sp+8]
 293:	16                            	movw	hl, ax
 294:	41 01                         	mov	es, #1
 296:	11 8b                         	mov	a, es:[hl]
 298:	41 00                         	mov	es, #0
 29a:	9d f0                         	mov	0xffef0, a
 29c:	c6                            	pop	hl
 29d:	c2                            	pop	bc
 29e:	d7                            	ret

0000029f <get_fbyte2>:
 29f:	c3                            	push	bc
 2a0:	c7                            	push	hl
 2a1:	a8 08                         	movw	ax, [sp+8]
 2a3:	16                            	movw	hl, ax
 2a4:	41 02                         	mov	es, #2
 2a6:	11 8b                         	mov	a, es:[hl]
 2a8:	41 00                         	mov	es, #0
 2aa:	9d f0                         	mov	0xffef0, a
 2ac:	c6                            	pop	hl
 2ad:	c2                            	pop	bc
 2ae:	d7                            	ret

000002af <get_fbyte3>:
 2af:	c3                            	push	bc
 2b0:	c7                            	push	hl
 2b1:	a8 08                         	movw	ax, [sp+8]
 2b3:	16                            	movw	hl, ax
 2b4:	41 03                         	mov	es, #3
 2b6:	11 8b                         	mov	a, es:[hl]
 2b8:	41 00                         	mov	es, #0
 2ba:	9d f0                         	mov	0xffef0, a
 2bc:	c6                            	pop	hl
 2bd:	c2                            	pop	bc
 2be:	d7                            	ret

000002bf <unilib_init>:
 2bf:	30 23 04                      	movw	ax, #0x423
 2c2:	bf 04 f9                      	movw	!ff904 <printf_output>, ax
 2c5:	d7                            	ret

000002c6 <abort>:
 2c6:	00                            	nop
 2c7:	d7                            	ret

000002c8 <unilib_pause>:
 2c8:	a8 04                         	movw	ax, [sp+4]
 2ca:	bd f0                         	movw	0xffef0, ax
 2cc:	a8 06                         	movw	ax, [sp+6]
 2ce:	bd f2                         	movw	0xffef2, ax

000002d0 <.L4>:
 2d0:	ad f2                         	movw	ax, 0xffef2
 2d2:	44 00 00                      	cmpw	ax, #0
 2d5:	71 ff                         	xor1	cy, a.7
 2d7:	ad f0                         	movw	ax, 0xffef0
 2d9:	61 f8                         	sknz
 2db:	44 00 00                      	cmpw	ax, #0
 2de:	61 e3                         	skh
 2e0:	ef 14                         	br	$2f6 <.L7>
 2e2:	00                            	nop
 2e3:	ad f0                         	movw	ax, 0xffef0
 2e5:	04 ff ff                      	addw	ax, #0xffff
 2e8:	bd f0                         	movw	0xffef0, ax
 2ea:	ad f2                         	movw	ax, 0xffef2
 2ec:	61 d8                         	sknc
 2ee:	a1                            	incw	ax
 2ef:	04 ff ff                      	addw	ax, #0xffff
 2f2:	bd f2                         	movw	0xffef2, ax
 2f4:	ef da                         	br	$2d0 <.L4>

000002f6 <.L7>:
 2f6:	d7                            	ret

000002f7 <unilib_pause_ms>:
 2f7:	a8 04                         	movw	ax, [sp+4]
 2f9:	bd f2                         	movw	0xffef2, ax

000002fb <.L9>:
 2fb:	ad f2                         	movw	ax, 0xffef2
 2fd:	44 00 00                      	cmpw	ax, #0
 300:	61 f8                         	sknz
 302:	ef 24                         	br	$328 <.L14>
 304:	8f 00 f9                      	mov	a, !ff900 <_data_section_start>
 307:	70                            	mov	x, a
 308:	51 00                         	mov	a, #0
 30a:	bd f4                         	movw	0xffef4, ax
 30c:	01                            	addw	ax, ax
 30d:	06 f4                         	addw	ax, 0xffef4
 30f:	31 3d                         	shlw	ax, 3
 311:	06 f4                         	addw	ax, 0xffef4
 313:	01                            	addw	ax, ax
 314:	bd f0                         	movw	0xffef0, ax

00000316 <.L10>:
 316:	ad f0                         	movw	ax, 0xffef0
 318:	44 00 00                      	cmpw	ax, #0
 31b:	61 f8                         	sknz
 31d:	ef 05                         	br	$324 <.L15>
 31f:	00                            	nop
 320:	b6 f0                         	decw	0xffef0
 322:	ef f2                         	br	$316 <.L10>

00000324 <.L15>:
 324:	b6 f2                         	decw	0xffef2
 326:	ef d3                         	br	$2fb <.L9>

00000328 <.L14>:
 328:	d7                            	ret

00000329 <clock_config>:
 329:	61 ef                         	sel	rb2
 32b:	c1                            	push	ax
 32c:	61 cf                         	sel	rb0
 32e:	20 04                         	subw	sp, #4
 330:	a8 0a                         	movw	ax, [sp+10]
 332:	bd e8                         	movw	0xffee8, ax
 334:	60                            	mov	a, x
 335:	5c 77                         	and	a, #119
 337:	9d f1                         	mov	0xffef1, a
 339:	8d e8                         	mov	a, 0xffee8
 33b:	5c 28                         	and	a, #40
 33d:	9d e9                         	mov	0xffee9, a
 33f:	5a e8 10                      	and	0xffee8, #16
 342:	8f 00 f9                      	mov	a, !ff900 <_data_section_start>
 345:	8f 70 00                      	mov	a, !f0070 <GUARD>
 348:	6c 02                         	or	a, #2
 34a:	9f 70 00                      	mov	!f0070 <GUARD>, a
 34d:	6c 01                         	or	a, #1
 34f:	9f 70 00                      	mov	!f0070 <GUARD>, a
 352:	8f f7 00                      	mov	a, !f00f7 <PLLCTL>
 355:	5c fb                         	and	a, #251
 357:	9f f7 00                      	mov	!f00f7 <PLLCTL>, a
 35a:	8d f1                         	mov	a, 0xffef1
 35c:	9f a4 ff                      	mov	!fffa4 <CKC>, a
 35f:	d4 e8                         	cmp0	0xffee8
 361:	61 e8                         	skz
 363:	ef 0a                         	br	$36f <.L17>
 365:	8f a1 ff                      	mov	a, !fffa1 <CSC>
 368:	5c fe                         	and	a, #254
 36a:	9f a1 ff                      	mov	!fffa1 <CSC>, a
 36d:	ef 18                         	br	$387 <.L18>

0000036f <.L17>:
 36f:	51 40                         	mov	a, #64
 371:	9f a0 ff                      	mov	!fffa0 <CMC>, a
 374:	8f a1 ff                      	mov	a, !fffa1 <CSC>
 377:	5c 7f                         	and	a, #127
 379:	9f a1 ff                      	mov	!fffa1 <CSC>, a
 37c:	30 e8 03                      	movw	ax, #0x3e8
 37f:	b8 00                         	movw	[sp+0], ax
 381:	f6                            	clrw	ax
 382:	b8 02                         	movw	[sp+2], ax
 384:	fd c8 02                      	call	!2c8 <unilib_pause>

00000387 <.L18>:
 387:	4a e9 08                      	cmp	0xffee9, #8
 38a:	61 e8                         	skz
 38c:	ef 12                         	br	$3a0 <.L19>
 38e:	51 11                         	mov	a, #17
 390:	9f f7 00                      	mov	!f00f7 <PLLCTL>, a

00000393 <.L20>:
 393:	8f f6 00                      	mov	a, !f00f6 <PLLSTS>
 396:	4c 00                         	cmp	a, #0
 398:	71 ff                         	xor1	cy, a.7
 39a:	61 c8                         	skc
 39c:	ef f5                         	br	$393 <.L20>
 39e:	ef 15                         	br	$3b5 <.L27>

000003a0 <.L19>:
 3a0:	4a e9 28                      	cmp	0xffee9, #40
 3a3:	61 e8                         	skz
 3a5:	ef 16                         	br	$3bd <.L21>
 3a7:	e5 f7 00                      	oneb	!f00f7 <PLLCTL>

000003aa <.L22>:
 3aa:	8f f6 00                      	mov	a, !f00f6 <PLLSTS>
 3ad:	4c 00                         	cmp	a, #0
 3af:	71 ff                         	xor1	cy, a.7
 3b1:	61 c8                         	skc
 3b3:	ef f5                         	br	$3aa <.L22>

000003b5 <.L27>:
 3b5:	8f f7 00                      	mov	a, !f00f7 <PLLCTL>
 3b8:	6c 04                         	or	a, #4
 3ba:	9f f7 00                      	mov	!f00f7 <PLLCTL>, a

000003bd <.L21>:
 3bd:	d4 e8                         	cmp0	0xffee8
 3bf:	61 e8                         	skz
 3c1:	ef 0c                         	br	$3cf <.L23>
 3c3:	51 c0                         	mov	a, #192
 3c5:	9f a1 ff                      	mov	!fffa1 <CSC>, a
 3c8:	8d e8                         	mov	a, 0xffee8
 3ca:	9f a0 ff                      	mov	!fffa0 <CMC>, a
 3cd:	ef 08                         	br	$3d7 <.L24>

000003cf <.L23>:
 3cf:	8f a1 ff                      	mov	a, !fffa1 <CSC>
 3d2:	6c 01                         	or	a, #1
 3d4:	9f a1 ff                      	mov	!fffa1 <CSC>, a

000003d7 <.L24>:
 3d7:	8f 70 00                      	mov	a, !f0070 <GUARD>
 3da:	5c fd                         	and	a, #253
 3dc:	9f 70 00                      	mov	!f0070 <GUARD>, a
 3df:	5c fe                         	and	a, #254
 3e1:	9f 70 00                      	mov	!f0070 <GUARD>, a
 3e4:	10 04                         	addw	sp, #4
 3e6:	61 ef                         	sel	rb2
 3e8:	c0                            	pop	ax
 3e9:	61 cf                         	sel	rb0
 3eb:	d7                            	ret

000003ec <enable_interrupts>:
 3ec:	71 7a fa                      	ei
 3ef:	d7                            	ret

000003f0 <disable_interrupts>:
 3f0:	71 7b fa                      	di
 3f3:	d7                            	ret

000003f4 <OUTPUT_MEMORY>:
 3f4:	af 02 f9                      	movw	ax, !ff902 <memptr>
 3f7:	bd f0                         	movw	0xffef0, ax
 3f9:	a1                            	incw	ax
 3fa:	bf 02 f9                      	movw	!ff902 <memptr>, ax
 3fd:	ad f0                         	movw	ax, 0xffef0
 3ff:	12                            	movw	bc, ax
 400:	88 04                         	mov	a, [sp+4]
 402:	48 00 00                      	mov	0[bc], a
 405:	af 02 f9                      	movw	ax, !ff902 <memptr>
 408:	12                            	movw	bc, ax
 409:	f1                            	clrb	a
 40a:	48 00 00                      	mov	0[bc], a
 40d:	d7                            	ret

0000040e <set_outchar_routine>:
 40e:	a8 04                         	movw	ax, [sp+4]
 410:	bf 04 f9                      	movw	!ff904 <printf_output>, ax
 413:	d7                            	ret

00000414 <unilib_outchar>:
 414:	20 02                         	subw	sp, #2
 416:	88 06                         	mov	a, [sp+6]
 418:	98 00                         	mov	[sp+0], a
 41a:	af 04 f9                      	movw	ax, !ff904 <printf_output>
 41d:	12                            	movw	bc, ax
 41e:	61 da                         	call	bc
 420:	10 02                         	addw	sp, #2
 422:	d7                            	ret

00000423 <OUTPUT_NONE>:
 423:	00                            	nop
 424:	d7                            	ret

00000425 <set_outchar_memory>:
 425:	a8 04                         	movw	ax, [sp+4]
 427:	bd f0                         	movw	0xffef0, ax
 429:	30 f4 03                      	movw	ax, #0x3f4
 42c:	bf 04 f9                      	movw	!ff904 <printf_output>, ax
 42f:	ad f0                         	movw	ax, 0xffef0
 431:	bf 02 f9                      	movw	!ff902 <memptr>, ax
 434:	12                            	movw	bc, ax
 435:	f1                            	clrb	a
 436:	48 00 00                      	mov	0[bc], a
 439:	d7                            	ret

0000043a <portpin_set_output>:
 43a:	c3                            	push	bc
 43b:	88 06                         	mov	a, [sp+6]
 43d:	72                            	mov	c, a
 43e:	11 69 12 01                   	movw	ax, es:274[c]
 442:	16                            	movw	hl, ax
 443:	88 08                         	mov	a, [sp+8]
 445:	5c 07                         	and	a, #7
 447:	72                            	mov	c, a
 448:	11 29 08 01                   	mov	a, es:264[c]
 44c:	5d                            	and	a, [hl]
 44d:	9b                            	mov	[hl], a
 44e:	c2                            	pop	bc
 44f:	d7                            	ret

00000450 <port_set_output>:
 450:	c3                            	push	bc
 451:	88 06                         	mov	a, [sp+6]
 453:	72                            	mov	c, a
 454:	11 69 12 01                   	movw	ax, es:274[c]
 458:	16                            	movw	hl, ax
 459:	51 00                         	mov	a, #0
 45b:	9b                            	mov	[hl], a
 45c:	c2                            	pop	bc
 45d:	d7                            	ret

0000045e <portpin_set_input_nopull>:
 45e:	c3                            	push	bc
 45f:	c7                            	push	hl
 460:	88 08                         	mov	a, [sp+8]
 462:	72                            	mov	c, a
 463:	11 69 12 01                   	movw	ax, es:274[c]
 467:	16                            	movw	hl, ax
 468:	88 0a                         	mov	a, [sp+10]
 46a:	5c 07                         	and	a, #7
 46c:	72                            	mov	c, a
 46d:	11 29 00 01                   	mov	a, es:256[c]
 471:	9d f0                         	mov	0xffef0, a
 473:	6d                            	or	a, [hl]
 474:	9b                            	mov	[hl], a
 475:	88 08                         	mov	a, [sp+8]
 477:	72                            	mov	c, a
 478:	11 69 14 01                   	movw	ax, es:276[c]
 47c:	44 ff ff                      	cmpw	ax, #0xffff
 47f:	dd 07                         	bz	$488 <set_pin_done>
 481:	16                            	movw	hl, ax
 482:	8d f0                         	mov	a, 0xffef0
 484:	7c ff                         	xor	a, #255
 486:	5d                            	and	a, [hl]
 487:	9b                            	mov	[hl], a

00000488 <set_pin_done>:
 488:	c6                            	pop	hl
 489:	c2                            	pop	bc
 48a:	d7                            	ret

0000048b <port_set_input_nopull>:
 48b:	c3                            	push	bc
 48c:	c7                            	push	hl
 48d:	88 08                         	mov	a, [sp+8]
 48f:	72                            	mov	c, a
 490:	11 69 12 01                   	movw	ax, es:274[c]
 494:	16                            	movw	hl, ax
 495:	51 ff                         	mov	a, #255
 497:	9b                            	mov	[hl], a
 498:	11 69 14 01                   	movw	ax, es:276[c]
 49c:	44 ff ff                      	cmpw	ax, #0xffff
 49f:	dd e7                         	bz	$488 <set_pin_done>
 4a1:	16                            	movw	hl, ax
 4a2:	51 00                         	mov	a, #0
 4a4:	9b                            	mov	[hl], a
 4a5:	c6                            	pop	hl
 4a6:	c2                            	pop	bc
 4a7:	d7                            	ret

000004a8 <portpin_set_input_pullup>:
 4a8:	c3                            	push	bc
 4a9:	c7                            	push	hl
 4aa:	88 08                         	mov	a, [sp+8]
 4ac:	72                            	mov	c, a
 4ad:	11 69 12 01                   	movw	ax, es:274[c]
 4b1:	16                            	movw	hl, ax
 4b2:	88 0a                         	mov	a, [sp+10]
 4b4:	5c 07                         	and	a, #7
 4b6:	72                            	mov	c, a
 4b7:	11 29 00 01                   	mov	a, es:256[c]
 4bb:	9d f0                         	mov	0xffef0, a
 4bd:	6d                            	or	a, [hl]
 4be:	9b                            	mov	[hl], a
 4bf:	88 08                         	mov	a, [sp+8]
 4c1:	72                            	mov	c, a
 4c2:	11 69 14 01                   	movw	ax, es:276[c]
 4c6:	44 ff ff                      	cmpw	ax, #0xffff
 4c9:	dd 05                         	bz	$4d0 <set_pip_done>
 4cb:	16                            	movw	hl, ax
 4cc:	8d f0                         	mov	a, 0xffef0
 4ce:	6d                            	or	a, [hl]
 4cf:	9b                            	mov	[hl], a

000004d0 <set_pip_done>:
 4d0:	c6                            	pop	hl
 4d1:	c2                            	pop	bc
 4d2:	d7                            	ret

000004d3 <port_set_input_pullup>:
 4d3:	c3                            	push	bc
 4d4:	c7                            	push	hl
 4d5:	88 08                         	mov	a, [sp+8]
 4d7:	72                            	mov	c, a
 4d8:	11 69 12 01                   	movw	ax, es:274[c]
 4dc:	16                            	movw	hl, ax
 4dd:	51 ff                         	mov	a, #255
 4df:	9b                            	mov	[hl], a
 4e0:	11 69 14 01                   	movw	ax, es:276[c]
 4e4:	44 ff ff                      	cmpw	ax, #0xffff
 4e7:	dd e7                         	bz	$4d0 <set_pip_done>
 4e9:	16                            	movw	hl, ax
 4ea:	51 ff                         	mov	a, #255
 4ec:	9b                            	mov	[hl], a
 4ed:	c6                            	pop	hl
 4ee:	c2                            	pop	bc
 4ef:	d7                            	ret

000004f0 <portpin_set>:
 4f0:	88 08                         	mov	a, [sp+8]
 4f2:	4c 00                         	cmp	a, #0
 4f4:	dd 18                         	bz	$50e <portpin_set_low>

000004f6 <portpin_set_high>:
 4f6:	c3                            	push	bc
 4f7:	c7                            	push	hl
 4f8:	88 08                         	mov	a, [sp+8]
 4fa:	72                            	mov	c, a
 4fb:	11 69 10 01                   	movw	ax, es:272[c]
 4ff:	16                            	movw	hl, ax
 500:	88 0a                         	mov	a, [sp+10]
 502:	5c 07                         	and	a, #7
 504:	72                            	mov	c, a
 505:	11 29 00 01                   	mov	a, es:256[c]
 509:	6d                            	or	a, [hl]
 50a:	9b                            	mov	[hl], a
 50b:	c6                            	pop	hl
 50c:	c2                            	pop	bc
 50d:	d7                            	ret

0000050e <portpin_set_low>:
 50e:	c3                            	push	bc
 50f:	c7                            	push	hl
 510:	88 08                         	mov	a, [sp+8]
 512:	72                            	mov	c, a
 513:	11 69 10 01                   	movw	ax, es:272[c]
 517:	16                            	movw	hl, ax
 518:	88 0a                         	mov	a, [sp+10]
 51a:	5c 07                         	and	a, #7
 51c:	72                            	mov	c, a
 51d:	11 29 08 01                   	mov	a, es:264[c]
 521:	5d                            	and	a, [hl]
 522:	9b                            	mov	[hl], a
 523:	c6                            	pop	hl
 524:	c2                            	pop	bc
 525:	d7                            	ret

00000526 <port_set>:
 526:	c3                            	push	bc
 527:	c7                            	push	hl
 528:	88 08                         	mov	a, [sp+8]
 52a:	72                            	mov	c, a
 52b:	11 69 10 01                   	movw	ax, es:272[c]
 52f:	16                            	movw	hl, ax
 530:	88 0a                         	mov	a, [sp+10]
 532:	9b                            	mov	[hl], a
 533:	c6                            	pop	hl
 534:	c2                            	pop	bc
 535:	d7                            	ret

00000536 <port_set_nibble0>:
 536:	c3                            	push	bc
 537:	c7                            	push	hl
 538:	88 08                         	mov	a, [sp+8]
 53a:	72                            	mov	c, a
 53b:	11 69 10 01                   	movw	ax, es:272[c]
 53f:	16                            	movw	hl, ax
 540:	8b                            	mov	a, [hl]
 541:	5c f0                         	and	a, #240
 543:	9b                            	mov	[hl], a
 544:	88 0a                         	mov	a, [sp+10]
 546:	5c 0f                         	and	a, #15
 548:	0d                            	add	a, [hl]
 549:	9b                            	mov	[hl], a
 54a:	c6                            	pop	hl
 54b:	c2                            	pop	bc
 54c:	d7                            	ret

0000054d <port_set_nibble1>:
 54d:	c3                            	push	bc
 54e:	c7                            	push	hl
 54f:	88 08                         	mov	a, [sp+8]
 551:	72                            	mov	c, a
 552:	11 69 10 01                   	movw	ax, es:272[c]
 556:	16                            	movw	hl, ax
 557:	8b                            	mov	a, [hl]
 558:	5c 0f                         	and	a, #15
 55a:	9b                            	mov	[hl], a
 55b:	88 0a                         	mov	a, [sp+10]
 55d:	31 49                         	shl	a, 4
 55f:	5c f0                         	and	a, #240
 561:	0d                            	add	a, [hl]
 562:	9b                            	mov	[hl], a
 563:	c6                            	pop	hl
 564:	c2                            	pop	bc
 565:	d7                            	ret

00000566 <port_set_high>:
 566:	c3                            	push	bc
 567:	c7                            	push	hl
 568:	88 08                         	mov	a, [sp+8]
 56a:	72                            	mov	c, a
 56b:	11 69 10 01                   	movw	ax, es:272[c]
 56f:	16                            	movw	hl, ax
 570:	88 0a                         	mov	a, [sp+10]
 572:	6d                            	or	a, [hl]
 573:	9b                            	mov	[hl], a
 574:	c6                            	pop	hl
 575:	c2                            	pop	bc
 576:	d7                            	ret

00000577 <port_set_low>:
 577:	c3                            	push	bc
 578:	c7                            	push	hl
 579:	88 08                         	mov	a, [sp+8]
 57b:	72                            	mov	c, a
 57c:	11 69 10 01                   	movw	ax, es:272[c]
 580:	16                            	movw	hl, ax
 581:	88 0a                         	mov	a, [sp+10]
 583:	7c ff                         	xor	a, #255
 585:	5d                            	and	a, [hl]
 586:	9b                            	mov	[hl], a
 587:	c6                            	pop	hl
 588:	c2                            	pop	bc
 589:	d7                            	ret

0000058a <port_get>:
 58a:	c3                            	push	bc
 58b:	c7                            	push	hl
 58c:	88 08                         	mov	a, [sp+8]
 58e:	72                            	mov	c, a
 58f:	11 69 10 01                   	movw	ax, es:272[c]
 593:	16                            	movw	hl, ax
 594:	8b                            	mov	a, [hl]
 595:	c6                            	pop	hl
 596:	c2                            	pop	bc
 597:	d7                            	ret

00000598 <portpin_get>:
 598:	c3                            	push	bc
 599:	c7                            	push	hl
 59a:	88 08                         	mov	a, [sp+8]
 59c:	72                            	mov	c, a
 59d:	11 69 10 01                   	movw	ax, es:272[c]
 5a1:	16                            	movw	hl, ax
 5a2:	88 0a                         	mov	a, [sp+10]
 5a4:	5c 07                         	and	a, #7
 5a6:	72                            	mov	c, a
 5a7:	11 29 00 01                   	mov	a, es:256[c]
 5ab:	5d                            	and	a, [hl]
 5ac:	dd 07                         	bz	$5b5 <gpl_return0>

000005ae <gpl_return1>:
 5ae:	51 01                         	mov	a, #1
 5b0:	9d f0                         	mov	0xffef0, a
 5b2:	c6                            	pop	hl
 5b3:	c2                            	pop	bc
 5b4:	d7                            	ret

000005b5 <gpl_return0>:
 5b5:	51 00                         	mov	a, #0
 5b7:	9d f0                         	mov	0xffef0, a
 5b9:	c6                            	pop	hl
 5ba:	c2                            	pop	bc
 5bb:	d7                            	ret

000005bc <isr_pwm0>:
 5bc:	61 fc                         	reti
 5be:	d7                            	ret

000005bf <isr_pwm1>:
 5bf:	61 fc                         	reti
 5c1:	d7                            	ret

000005c2 <isr_pwm2>:
 5c2:	61 fc                         	reti
 5c4:	d7                            	ret

000005c5 <isr_pwm3>:
 5c5:	61 fc                         	reti
 5c7:	d7                            	ret

000005c8 <isr_uart0_send>:
 5c8:	61 fc                         	reti
 5ca:	d7                            	ret

000005cb <isr_recv_uart0>:
 5cb:	61 fc                         	reti
 5cd:	d7                            	ret

000005ce <isr_uart1_send>:
 5ce:	61 fc                         	reti
 5d0:	d7                            	ret

000005d1 <isr_recv_uart1>:
 5d1:	61 fc                         	reti
 5d3:	d7                            	ret

000005d4 <isr_ext0>:
 5d4:	61 fc                         	reti
 5d6:	d7                            	ret

000005d7 <isr_ext1>:
 5d7:	61 fc                         	reti
 5d9:	d7                            	ret

000005da <_tick_handler>:
 5da:	61 cf                         	sel	rb0
 5dc:	c1                            	push	ax
 5dd:	c3                            	push	bc
 5de:	c5                            	push	de
 5df:	c7                            	push	hl
 5e0:	61 df                         	sel	rb1
 5e2:	c1                            	push	ax
 5e3:	c3                            	push	bc
 5e4:	c5                            	push	de
 5e5:	c7                            	push	hl
 5e6:	61 ef                         	sel	rb2
 5e8:	c7                            	push	hl
 5e9:	61 cf                         	sel	rb0
 5eb:	af 06 f9                      	movw	ax, !ff906 <unilib_tick_counter>
 5ee:	44 00 00                      	cmpw	ax, #0
 5f1:	61 f8                         	sknz
 5f3:	ef 0c                         	br	$601 <.L12>
 5f5:	af 06 f9                      	movw	ax, !ff906 <unilib_tick_counter>
 5f8:	bd f0                         	movw	0xffef0, ax
 5fa:	b6 f0                         	decw	0xffef0
 5fc:	ad f0                         	movw	ax, 0xffef0
 5fe:	bf 06 f9                      	movw	!ff906 <unilib_tick_counter>, ax

00000601 <.L12>:
 601:	fd 7e 02                      	call	!27e <user_tick>
 604:	61 ef                         	sel	rb2
 606:	c6                            	pop	hl
 607:	61 df                         	sel	rb1
 609:	c6                            	pop	hl
 60a:	c4                            	pop	de
 60b:	c2                            	pop	bc
 60c:	c0                            	pop	ax
 60d:	61 cf                         	sel	rb0
 60f:	c6                            	pop	hl
 610:	c4                            	pop	de
 611:	c2                            	pop	bc
 612:	c0                            	pop	ax
 613:	61 fc                         	reti

00000615 <main>:
 615:	61 ef                         	sel	rb2
 617:	c1                            	push	ax
 618:	c3                            	push	bc
 619:	c5                            	push	de
 61a:	61 cf                         	sel	rb0
 61c:	20 08                         	subw	sp, #8
 61e:	fd bf 02                      	call	!2bf <unilib_init>
 621:	51 12                         	mov	a, #18
 623:	98 00                         	mov	[sp+0], a
 625:	f1                            	clrb	a
 626:	98 02                         	mov	[sp+2], a
 628:	fd 3a 04                      	call	!43a <portpin_set_output>
 62b:	51 12                         	mov	a, #18
 62d:	98 00                         	mov	[sp+0], a
 62f:	f1                            	clrb	a
 630:	98 02                         	mov	[sp+2], a
 632:	fd f6 04                      	call	!4f6 <portpin_set_high>
 635:	30 09 0c                      	movw	ax, #0xc09
 638:	b8 00                         	movw	[sp+0], ax
 63a:	fd 29 03                      	call	!329 <clock_config>
 63d:	f6                            	clrw	ax
 63e:	b8 04                         	movw	[sp+4], ax
 640:	f6                            	clrw	ax
 641:	b8 06                         	movw	[sp+6], ax

00000643 <.L15>:
 643:	51 12                         	mov	a, #18
 645:	98 00                         	mov	[sp+0], a
 647:	f1                            	clrb	a
 648:	98 02                         	mov	[sp+2], a
 64a:	fd a8 04                      	call	!4a8 <portpin_set_input_pullup>

0000064d <.L8>:
 64d:	51 12                         	mov	a, #18
 64f:	98 00                         	mov	[sp+0], a
 651:	f1                            	clrb	a
 652:	98 02                         	mov	[sp+2], a
 654:	fd 98 05                      	call	!598 <portpin_get>
 657:	d4 f0                         	cmp0	0xffef0
 659:	61 e8                         	skz
 65b:	ef f0                         	br	$64d <.L8>

0000065d <.L9>:
 65d:	51 12                         	mov	a, #18
 65f:	98 00                         	mov	[sp+0], a
 661:	f1                            	clrb	a
 662:	98 02                         	mov	[sp+2], a
 664:	fd 98 05                      	call	!598 <portpin_get>
 667:	d4 f0                         	cmp0	0xffef0
 669:	61 f8                         	sknz
 66b:	ef f0                         	br	$65d <.L9>
 66d:	e6                            	onew	ax
 66e:	b8 00                         	movw	[sp+0], ax
 670:	fd f7 02                      	call	!2f7 <unilib_pause_ms>
 673:	51 12                         	mov	a, #18
 675:	98 00                         	mov	[sp+0], a
 677:	f1                            	clrb	a
 678:	98 02                         	mov	[sp+2], a
 67a:	fd f6 04                      	call	!4f6 <portpin_set_high>
 67d:	51 12                         	mov	a, #18
 67f:	98 00                         	mov	[sp+0], a
 681:	f1                            	clrb	a
 682:	98 02                         	mov	[sp+2], a
 684:	fd 3a 04                      	call	!43a <portpin_set_output>
 687:	a8 04                         	movw	ax, [sp+4]
 689:	bd e8                         	movw	0xffee8, ax
 68b:	a8 06                         	movw	ax, [sp+6]
 68d:	bd ea                         	movw	0xffeea, ax
 68f:	c9 ec 00 08                   	movw	0xffeec, #0x800

00000693 <.L14>:
 693:	ad e8                         	movw	ax, 0xffee8
 695:	b8 00                         	movw	[sp+0], ax
 697:	ad ea                         	movw	ax, 0xffeea
 699:	44 00 00                      	cmpw	ax, #0
 69c:	ad e8                         	movw	ax, 0xffee8
 69e:	61 f8                         	sknz
 6a0:	44 ff ff                      	cmpw	ax, #0xffff
 6a3:	61 f3                         	sknh
 6a5:	ef 05                         	br	$6ac <.L10>
 6a7:	fd 7f 02                      	call	!27f <get_fbyte0>
 6aa:	ef 2d                         	br	$6d9 <.L11>

000006ac <.L10>:
 6ac:	ad ea                         	movw	ax, 0xffeea
 6ae:	44 01 00                      	cmpw	ax, #1
 6b1:	ad e8                         	movw	ax, 0xffee8
 6b3:	61 f8                         	sknz
 6b5:	44 ff ff                      	cmpw	ax, #0xffff
 6b8:	61 f3                         	sknh
 6ba:	ef 05                         	br	$6c1 <.L12>
 6bc:	fd 8f 02                      	call	!28f <get_fbyte1>
 6bf:	ef 18                         	br	$6d9 <.L11>

000006c1 <.L12>:
 6c1:	ad ea                         	movw	ax, 0xffeea
 6c3:	44 02 00                      	cmpw	ax, #2
 6c6:	ad e8                         	movw	ax, 0xffee8
 6c8:	61 f8                         	sknz
 6ca:	44 ff ff                      	cmpw	ax, #0xffff
 6cd:	61 f3                         	sknh
 6cf:	ef 05                         	br	$6d6 <.L13>
 6d1:	fd 9f 02                      	call	!29f <get_fbyte2>
 6d4:	ef 03                         	br	$6d9 <.L11>

000006d6 <.L13>:
 6d6:	fd af 02                      	call	!2af <get_fbyte3>

000006d9 <.L11>:
 6d9:	ad e8                         	movw	ax, 0xffee8
 6db:	04 01 00                      	addw	ax, #1
 6de:	bd e8                         	movw	0xffee8, ax
 6e0:	ad ea                         	movw	ax, 0xffeea
 6e2:	61 d8                         	sknc
 6e4:	a1                            	incw	ax
 6e5:	04 00 00                      	addw	ax, #0
 6e8:	bd ea                         	movw	0xffeea, ax
 6ea:	8d f0                         	mov	a, 0xffef0
 6ec:	98 00                         	mov	[sp+0], a
 6ee:	fd 00 02                      	call	!200 <out_byte>
 6f1:	b6 ec                         	decw	0xffeec
 6f3:	ad ec                         	movw	ax, 0xffeec
 6f5:	44 00 00                      	cmpw	ax, #0
 6f8:	61 e8                         	skz
 6fa:	ef 97                         	br	$693 <.L14>
 6fc:	a8 04                         	movw	ax, [sp+4]
 6fe:	04 00 08                      	addw	ax, #0x800
 701:	b8 04                         	movw	[sp+4], ax
 703:	a8 06                         	movw	ax, [sp+6]
 705:	61 d8                         	sknc
 707:	a1                            	incw	ax
 708:	04 00 00                      	addw	ax, #0
 70b:	b8 06                         	movw	[sp+6], ax
 70d:	ed 43 06                      	br	!643 <.L15>
