
boot.elf:     file format elf32-powerpc
boot.elf
architecture: powerpc:common, flags 0x00000112:
EXEC_P, HAS_SYMS, D_PAGED
start address 0x00000000

Program Header:
    LOAD off    0x00010000 vaddr 0x52800000 paddr 0x52800000 align 2**16
         filesz 0x000001ec memsz 0x000001ec flags r-x
    LOAD off    0x000101ec vaddr 0x528001ec paddr 0x528001ec align 2**16
         filesz 0x00000000 memsz 0x00000004 flags rwx
    LOAD off    0x000101f0 vaddr 0x528001f0 paddr 0x528001f0 align 2**16
         filesz 0x00000000 memsz 0x00000000 flags rw-

Sections:
Idx Name          Size      VMA       LMA       File off  Algn
  0 .text         000001ec  52800000  52800000  00010000  2**4
                  CONTENTS, ALLOC, LOAD, READONLY, CODE, VLE
  1 .stacks       00000004  528001ec  528001ec  000101ec  2**0
                  ALLOC
  2 .data         00000000  528001f0  528001f0  000101f0  2**0
                  CONTENTS, ALLOC, LOAD, DATA
  3 .PPC.EMB.apuinfo 00000018  00000000  00000000  000101f0  2**0
                  CONTENTS, READONLY
SYMBOL TABLE:
52800000 l    d  .text	00000000 .text
528001ec l    d  .stacks	00000000 .stacks
528001f0 l    d  .data	00000000 .data
00000000 l    d  .PPC.EMB.apuinfo	00000000 .PPC.EMB.apuinfo
00000000 l    df *ABS*	00000000 build/src/boot.o
00000000 l       *ABS*	00000000 r0
00000001 l       *ABS*	00000000 r1
00000001 l       *ABS*	00000000 rsp
00000002 l       *ABS*	00000000 r2
00000003 l       *ABS*	00000000 r3
00000004 l       *ABS*	00000000 r4
00000005 l       *ABS*	00000000 r5
00000006 l       *ABS*	00000000 r6
00000007 l       *ABS*	00000000 r7
00000008 l       *ABS*	00000000 r8
00000009 l       *ABS*	00000000 r9
0000000a l       *ABS*	00000000 r10
0000000b l       *ABS*	00000000 r11
0000000c l       *ABS*	00000000 r12
0000000d l       *ABS*	00000000 r13
0000000e l       *ABS*	00000000 r14
0000000f l       *ABS*	00000000 r15
00000010 l       *ABS*	00000000 r16
00000011 l       *ABS*	00000000 r17
00000012 l       *ABS*	00000000 r18
00000013 l       *ABS*	00000000 r19
00000014 l       *ABS*	00000000 r20
00000015 l       *ABS*	00000000 r21
00000016 l       *ABS*	00000000 r22
00000017 l       *ABS*	00000000 r23
00000018 l       *ABS*	00000000 r24
00000019 l       *ABS*	00000000 r25
0000001a l       *ABS*	00000000 r26
0000001b l       *ABS*	00000000 r27
0000001c l       *ABS*	00000000 r28
0000001d l       *ABS*	00000000 r29
0000001e l       *ABS*	00000000 r30
0000001f l       *ABS*	00000000 r31
0000f7fc l       *ABS*	00000000 SIUL_BASE
00001300 l       *ABS*	00000000 GPDO0
00001304 l       *ABS*	00000000 GPDO1
00001308 l       *ABS*	00000000 GPDO2
0000130c l       *ABS*	00000000 GPDO3
00001310 l       *ABS*	00000000 GPDO4
00001314 l       *ABS*	00000000 GPDO5
00001318 l       *ABS*	00000000 GPDO6
0000131c l       *ABS*	00000000 GPDO7
00001320 l       *ABS*	00000000 GPDO8
00001324 l       *ABS*	00000000 GPDO9
00001328 l       *ABS*	00000000 GPDO10
0000132c l       *ABS*	00000000 GPDO11
00001330 l       *ABS*	00000000 GPDO12
00001334 l       *ABS*	00000000 GPDO13
00001338 l       *ABS*	00000000 GPDO14
0000133c l       *ABS*	00000000 GPDO15
00001340 l       *ABS*	00000000 GPDO16
00001344 l       *ABS*	00000000 GPDO17
00001348 l       *ABS*	00000000 GPDO18
0000134c l       *ABS*	00000000 GPDO19
00001350 l       *ABS*	00000000 GPDO20
00001354 l       *ABS*	00000000 GPDO21
00001358 l       *ABS*	00000000 GPDO22
0000135c l       *ABS*	00000000 GPDO23
00001360 l       *ABS*	00000000 GPDO24
00001364 l       *ABS*	00000000 GPDO25
00001368 l       *ABS*	00000000 GPDO26
0000136c l       *ABS*	00000000 GPDO27
00001370 l       *ABS*	00000000 GPDO28
00001374 l       *ABS*	00000000 GPDO29
00001378 l       *ABS*	00000000 GPDO30
0000137c l       *ABS*	00000000 GPDO31
00001380 l       *ABS*	00000000 GPDO32
00001384 l       *ABS*	00000000 GPDO33
00001388 l       *ABS*	00000000 GPDO34
0000138c l       *ABS*	00000000 GPDO35
00001390 l       *ABS*	00000000 GPDO36
00001394 l       *ABS*	00000000 GPDO37
00001398 l       *ABS*	00000000 GPDO38
0000139c l       *ABS*	00000000 GPDO39
00001500 l       *ABS*	00000000 GPDI0
00001504 l       *ABS*	00000000 GPDI1
00001508 l       *ABS*	00000000 GPDI2
0000150c l       *ABS*	00000000 GPDI3
00001510 l       *ABS*	00000000 GPDI4
00001514 l       *ABS*	00000000 GPDI5
00001518 l       *ABS*	00000000 GPDI6
0000151c l       *ABS*	00000000 GPDI7
00001520 l       *ABS*	00000000 GPDI8
00001524 l       *ABS*	00000000 GPDI9
00001528 l       *ABS*	00000000 GPDI10
0000152c l       *ABS*	00000000 GPDI11
00001530 l       *ABS*	00000000 GPDI12
00001534 l       *ABS*	00000000 GPDI13
00001538 l       *ABS*	00000000 GPDI14
0000153c l       *ABS*	00000000 GPDI15
00001540 l       *ABS*	00000000 GPDI16
00001544 l       *ABS*	00000000 GPDI17
00001548 l       *ABS*	00000000 GPDI18
0000154c l       *ABS*	00000000 GPDI19
00001550 l       *ABS*	00000000 GPDI20
00001554 l       *ABS*	00000000 GPDI21
00001558 l       *ABS*	00000000 GPDI22
0000155c l       *ABS*	00000000 GPDI23
00001560 l       *ABS*	00000000 GPDI24
00001564 l       *ABS*	00000000 GPDI25
00001568 l       *ABS*	00000000 GPDI26
0000156c l       *ABS*	00000000 GPDI27
00001570 l       *ABS*	00000000 GPDI28
00001574 l       *ABS*	00000000 GPDI29
00001578 l       *ABS*	00000000 GPDI30
0000157c l       *ABS*	00000000 GPDI31
00001580 l       *ABS*	00000000 GPDI32
00001584 l       *ABS*	00000000 GPDI33
00001588 l       *ABS*	00000000 GPDI34
0000158c l       *ABS*	00000000 GPDI35
00001590 l       *ABS*	00000000 GPDI36
00001594 l       *ABS*	00000000 GPDI37
00001598 l       *ABS*	00000000 GPDI38
0000159c l       *ABS*	00000000 GPDI39
00001700 l       *ABS*	00000000 PGPDO0
00001704 l       *ABS*	00000000 PGPDO1
00001708 l       *ABS*	00000000 PGPDO2
0000170c l       *ABS*	00000000 PGPDO3
00001710 l       *ABS*	00000000 PGPDO4
00001700 l       *ABS*	00000000 POUT_A
00001702 l       *ABS*	00000000 POUT_B
00001704 l       *ABS*	00000000 POUT_C
00001706 l       *ABS*	00000000 POUT_D
00001708 l       *ABS*	00000000 POUT_E
0000170a l       *ABS*	00000000 POUT_F
0000170c l       *ABS*	00000000 POUT_G
0000170e l       *ABS*	00000000 POUT_H
00001710 l       *ABS*	00000000 POUT_I
00001712 l       *ABS*	00000000 POUT_J
00001740 l       *ABS*	00000000 PGPDI0
00001744 l       *ABS*	00000000 PGPDI1
00001748 l       *ABS*	00000000 PGPDI2
0000174c l       *ABS*	00000000 PGPDI3
00001750 l       *ABS*	00000000 PGPDI4
00001740 l       *ABS*	00000000 PIN_A
00001742 l       *ABS*	00000000 PIN_B
00001744 l       *ABS*	00000000 PIN_C
00001746 l       *ABS*	00000000 PIN_D
00001748 l       *ABS*	00000000 PIN_E
0000174a l       *ABS*	00000000 PIN_F
0000174c l       *ABS*	00000000 PIN_G
0000174e l       *ABS*	00000000 PIN_H
00001750 l       *ABS*	00000000 PIN_I
00001752 l       *ABS*	00000000 PIN_J
00000240 l       *ABS*	00000000 MCSR_A0
00000244 l       *ABS*	00000000 MCSR_A1
00000248 l       *ABS*	00000000 MCSR_A2
0000024c l       *ABS*	00000000 MCSR_A3
00000250 l       *ABS*	00000000 MCSR_A4
00000254 l       *ABS*	00000000 MCSR_A5
00000258 l       *ABS*	00000000 MCSR_A6
0000025c l       *ABS*	00000000 MCSR_A7
00000260 l       *ABS*	00000000 MCSR_A8
00000264 l       *ABS*	00000000 MCSR_A9
00000268 l       *ABS*	00000000 MCSR_A10
0000026c l       *ABS*	00000000 MCSR_A11
00000270 l       *ABS*	00000000 MCSR_A12
00000274 l       *ABS*	00000000 MCSR_A13
00000278 l       *ABS*	00000000 MCSR_A14
0000027c l       *ABS*	00000000 MCSR_A15
00000280 l       *ABS*	00000000 MCSR_B0
00000284 l       *ABS*	00000000 MCSR_B1
00000288 l       *ABS*	00000000 MCSR_B2
0000028c l       *ABS*	00000000 MCSR_B3
00000290 l       *ABS*	00000000 MCSR_B4
00000294 l       *ABS*	00000000 MCSR_B5
00000298 l       *ABS*	00000000 MCSR_B6
0000029c l       *ABS*	00000000 MCSR_B7
000002a0 l       *ABS*	00000000 MCSR_B8
000002a4 l       *ABS*	00000000 MCSR_B9
000002a8 l       *ABS*	00000000 MCSR_B10
000002ac l       *ABS*	00000000 MCSR_B11
000002b0 l       *ABS*	00000000 MCSR_B12
000002b4 l       *ABS*	00000000 MCSR_B13
000002b8 l       *ABS*	00000000 MCSR_B14
000002bc l       *ABS*	00000000 MCSR_B15
000002c0 l       *ABS*	00000000 MCSR_C0
000002c4 l       *ABS*	00000000 MCSR_C1
000002c8 l       *ABS*	00000000 MCSR_C2
000002cc l       *ABS*	00000000 MCSR_C3
000002d0 l       *ABS*	00000000 MCSR_C4
000002d4 l       *ABS*	00000000 MCSR_C5
000002d8 l       *ABS*	00000000 MCSR_C6
000002dc l       *ABS*	00000000 MCSR_C7
000002e0 l       *ABS*	00000000 MCSR_C8
000002e4 l       *ABS*	00000000 MCSR_C9
000002e8 l       *ABS*	00000000 MCSR_C10
000002ec l       *ABS*	00000000 MCSR_C11
000002f0 l       *ABS*	00000000 MCSR_C12
000002f4 l       *ABS*	00000000 MCSR_C13
000002f8 l       *ABS*	00000000 MCSR_C14
000002fc l       *ABS*	00000000 MCSR_C15
00000300 l       *ABS*	00000000 MCSR_D0
00000304 l       *ABS*	00000000 MCSR_D1
00000308 l       *ABS*	00000000 MCSR_D2
0000030c l       *ABS*	00000000 MCSR_D3
00000310 l       *ABS*	00000000 MCSR_D4
00000314 l       *ABS*	00000000 MCSR_D5
00000318 l       *ABS*	00000000 MCSR_D6
0000031c l       *ABS*	00000000 MCSR_D7
00000320 l       *ABS*	00000000 MCSR_D8
00000324 l       *ABS*	00000000 MCSR_D9
00000328 l       *ABS*	00000000 MCSR_D10
0000032c l       *ABS*	00000000 MCSR_D11
00000330 l       *ABS*	00000000 MCSR_D12
00000334 l       *ABS*	00000000 MCSR_D13
00000338 l       *ABS*	00000000 MCSR_D14
0000033c l       *ABS*	00000000 MCSR_D15
00000340 l       *ABS*	00000000 MCSR_E0
00000344 l       *ABS*	00000000 MCSR_E1
00000348 l       *ABS*	00000000 MCSR_E2
0000034c l       *ABS*	00000000 MCSR_E3
00000350 l       *ABS*	00000000 MCSR_E4
00000354 l       *ABS*	00000000 MCSR_E5
00000358 l       *ABS*	00000000 MCSR_E6
0000035c l       *ABS*	00000000 MCSR_E7
00000360 l       *ABS*	00000000 MCSR_E8
00000364 l       *ABS*	00000000 MCSR_E9
00000368 l       *ABS*	00000000 MCSR_E10
0000036c l       *ABS*	00000000 MCSR_E11
00000370 l       *ABS*	00000000 MCSR_E12
00000374 l       *ABS*	00000000 MCSR_E13
00000378 l       *ABS*	00000000 MCSR_E14
0000037c l       *ABS*	00000000 MCSR_E15
00000380 l       *ABS*	00000000 MCSR_F0
00000384 l       *ABS*	00000000 MCSR_F1
00000388 l       *ABS*	00000000 MCSR_F2
0000038c l       *ABS*	00000000 MCSR_F3
00000390 l       *ABS*	00000000 MCSR_F4
00000394 l       *ABS*	00000000 MCSR_F5
00000398 l       *ABS*	00000000 MCSR_F6
0000039c l       *ABS*	00000000 MCSR_F7
000003a0 l       *ABS*	00000000 MCSR_F8
000003a4 l       *ABS*	00000000 MCSR_F9
000003a8 l       *ABS*	00000000 MCSR_F10
000003ac l       *ABS*	00000000 MCSR_F11
000003b0 l       *ABS*	00000000 MCSR_F12
000003b4 l       *ABS*	00000000 MCSR_F13
000003b8 l       *ABS*	00000000 MCSR_F14
000003bc l       *ABS*	00000000 MCSR_F15
000003c0 l       *ABS*	00000000 MCSR_G0
000003c4 l       *ABS*	00000000 MCSR_G1
000003c8 l       *ABS*	00000000 MCSR_G2
000003cc l       *ABS*	00000000 MCSR_G3
000003d0 l       *ABS*	00000000 MCSR_G4
000003d4 l       *ABS*	00000000 MCSR_G5
000003d8 l       *ABS*	00000000 MCSR_G6
000003dc l       *ABS*	00000000 MCSR_G7
000003e0 l       *ABS*	00000000 MCSR_G8
000003e4 l       *ABS*	00000000 MCSR_G9
000003e8 l       *ABS*	00000000 MCSR_G10
000003ec l       *ABS*	00000000 MCSR_G11
000003f0 l       *ABS*	00000000 MCSR_G12
000003f4 l       *ABS*	00000000 MCSR_G13
000003f8 l       *ABS*	00000000 MCSR_G14
000003fc l       *ABS*	00000000 MCSR_G15
00000400 l       *ABS*	00000000 MCSR_H0
00000404 l       *ABS*	00000000 MCSR_H1
00000408 l       *ABS*	00000000 MCSR_H2
0000040c l       *ABS*	00000000 MCSR_H3
00000410 l       *ABS*	00000000 MCSR_H4
00000414 l       *ABS*	00000000 MCSR_H5
00000418 l       *ABS*	00000000 MCSR_H6
0000041c l       *ABS*	00000000 MCSR_H7
00000420 l       *ABS*	00000000 MCSR_H8
00000424 l       *ABS*	00000000 MCSR_H9
00000428 l       *ABS*	00000000 MCSR_H10
0000042c l       *ABS*	00000000 MCSR_H11
00000430 l       *ABS*	00000000 MCSR_H12
00000434 l       *ABS*	00000000 MCSR_H13
00000438 l       *ABS*	00000000 MCSR_H14
0000043c l       *ABS*	00000000 MCSR_H15
00000440 l       *ABS*	00000000 MCSR_I0
00000444 l       *ABS*	00000000 MCSR_I1
00000448 l       *ABS*	00000000 MCSR_I2
0000044c l       *ABS*	00000000 MCSR_I3
00000450 l       *ABS*	00000000 MCSR_I4
00000454 l       *ABS*	00000000 MCSR_I5
00000458 l       *ABS*	00000000 MCSR_I6
0000045c l       *ABS*	00000000 MCSR_I7
00000460 l       *ABS*	00000000 MCSR_I8
00000464 l       *ABS*	00000000 MCSR_I9
00000468 l       *ABS*	00000000 MCSR_I10
0000046c l       *ABS*	00000000 MCSR_I11
00000470 l       *ABS*	00000000 MCSR_I12
00000474 l       *ABS*	00000000 MCSR_I13
00000478 l       *ABS*	00000000 MCSR_I14
0000047c l       *ABS*	00000000 MCSR_I15
00000480 l       *ABS*	00000000 MCSR_J0
00000484 l       *ABS*	00000000 MCSR_J1
00000488 l       *ABS*	00000000 MCSR_J2
0000048c l       *ABS*	00000000 MCSR_J3
00000490 l       *ABS*	00000000 MCSR_J4
00000494 l       *ABS*	00000000 MCSR_J5
00000498 l       *ABS*	00000000 MCSR_J6
0000049c l       *ABS*	00000000 MCSR_J7
000004a0 l       *ABS*	00000000 MCSR_J8
000004a4 l       *ABS*	00000000 MCSR_J9
000004a8 l       *ABS*	00000000 MCSR_J10
000004ac l       *ABS*	00000000 MCSR_J11
000004b0 l       *ABS*	00000000 MCSR_J12
000004b4 l       *ABS*	00000000 MCSR_J13
000004b8 l       *ABS*	00000000 MCSR_J14
000004bc l       *ABS*	00000000 MCSR_J15
00000003 l       *ABS*	00000000 MCSR_UNCONNECT
00000088 l       *ABS*	00000000 MCSR_INPUT
00000089 l       *ABS*	00000000 MCSR_INPUT_PU
0000008a l       *ABS*	00000000 MCSR_INPUT_PD
00002288 l       *ABS*	00000000 MCSR_OUTPUT
00002188 l       *ABS*	00000000 MCSR_OUTPUT_OD
0000f405 l       *ABS*	00000000 SWT_BASE
00008000 l       *ABS*	00000000 SWT_CR
00008004 l       *ABS*	00000000 SWT_IR
00008008 l       *ABS*	00000000 SWT_TO
0000800c l       *ABS*	00000000 SWT_WN
00008010 l       *ABS*	00000000 SWT_SR
00008014 l       *ABS*	00000000 SWT_CO
00008018 l       *ABS*	00000000 SWT_SK
0000f7fb l       *ABS*	00000000 ME_BASE
00008000 l       *ABS*	00000000 ME_GS
00008004 l       *ABS*	00000000 ME_MCTL
00008008 l       *ABS*	00000000 ME_ME
0000800c l       *ABS*	00000000 ME_MIS
00008010 l       *ABS*	00000000 ME_IM
00008014 l       *ABS*	00000000 ME_IMTS
00008018 l       *ABS*	00000000 ME_DMTS
00008080 l       *ABS*	00000000 ME_RUN_PC0
00008084 l       *ABS*	00000000 ME_RUN_PC1
00008088 l       *ABS*	00000000 ME_RUN_PC2
0000808c l       *ABS*	00000000 ME_RUN_PC3
00008090 l       *ABS*	00000000 ME_RUN_PC4
00008094 l       *ABS*	00000000 ME_RUN_PC5
00008098 l       *ABS*	00000000 ME_RUN_PC6
0000809c l       *ABS*	00000000 ME_RUN_PC7
0000802c l       *ABS*	00000000 ME_DRUN_MC
0000c3fe l       *ABS*	00000000 FMPLL_BASE
000000a0 l       *ABS*	00000000 FMPLL0_CR
000000c0 l       *ABS*	00000000 FMPLL1_CR
0000ffe4 l       *ABS*	00000000 LINFLEX0_BASE
00000000 l       *ABS*	00000000 LINFLEX0_LINCR1
00000010 l       *ABS*	00000000 LINFLEX0_UARTCR
00000014 l       *ABS*	00000000 LINFLEX0_UARTSR
00000028 l       *ABS*	00000000 LINFLEX0_LINBRR
0000002c l       *ABS*	00000000 LINFLEX0_LINBFRR
00000038 l       *ABS*	00000000 LINFLEX0_BRDL
0000003c l       *ABS*	00000000 LINFLEX0_BRDM
0000c3f8 l       *ABS*	00000000 PFLASH_BASE
00008000 l       *ABS*	00000000 PFLASH_MCR
00008004 l       *ABS*	00000000 PFLASH_LML
00008010 l       *ABS*	00000000 PFLASH_LMS
0000c3f9 l       *ABS*	00000000 PFLASH_BASE_N
ffff8000 l       *ABS*	00000000 PFLASH_MCR_N
ffff8010 l       *ABS*	00000000 PFLASH_LMS_N
0000c3f8 l       *ABS*	00000000 DFLASH_BASE
0000c000 l       *ABS*	00000000 DFLASH_MCR
fff48000 l       *ABS*	00000000 INTC_BASE
fff48010 l       *ABS*	00000000 INTC_IACKR
fff48018 l       *ABS*	00000000 INTC_EOIR
00000800 l       *ABS*	00000000 block_size
00000001 l       *ABS*	00000000 DEBUG_LED
52800100 l       .text	00000000 main_start
5280016e l       .text	00000000 rfill_1
528001a4 l       .text	00000000 loop
528001a8 l       .text	00000000 w1
528001bc l       .text	00000000 w2
528001f0 g       .data	00000000 __data_start__
528081f0 g       .data	00000000 __sdata_start__
528081f0 g       .text	00000000 __sdata2_start__
00000000 g       *ABS*	00000000 _reset_address
528001f0 g       .data	00000000 __heap_base__
528001f0 g       .text	00000000 __romdata_start__
528001f0 g       .stacks	00000000 __main_thread_stack_end__
52810000 g       *ABS*	00000000 __heap_end__
528001f0 g       .data	00000000 __bss_start__
ffffffff g       *ABS*	00000000 __flash_size__
528001f0 g       .data	00000000 __data_end__
528001f0 g       .data	00000000 __bss_end__
52800000 g       .text	00000000 _start
00000000 g       *ABS*	00000000 __irq_stack_size__
ffffffff g       *ABS*	00000000 __flash_end__
00010000 g       *ABS*	00000000 __ram_size__
52800000 g       .text	00000000 __ram_start__
528001f0 g       .stacks	00000000 __process_stack_base__
528001f0 g       .stacks	00000000 __irq_stack_end__
52810000 g       *ABS*	00000000 __ram_end__
528001f0 g       .stacks	00000000 __irq_stack_base__
528001f0 g       .stacks	00000000 __main_thread_stack_base__
00000000 g       .text	00000000 __flash_start__
528001f0 g       .stacks	00000000 __process_stack_end__
00000000 g       *ABS*	00000000 __process_stack_size__



Disassembly of section .text:

52800000 <__ram_start__>:
	...

52800100 <main_start>:
52800100:	73 1e e4 05 	e_lis   r24,62469
52800104:	73 30 00 10 	e_li    r25,32784
52800108:	44 89       	se_or   r25,r24
5280010a:	73 98 05 20 	e_li    r28,50464
5280010e:	57 99 00 00 	e_stw   r28,0(r25)
52800112:	73 9b 01 28 	e_li    r28,55592
52800116:	57 99 00 00 	e_stw   r28,0(r25)
5280011a:	73 30 00 00 	e_li    r25,32768
5280011e:	44 89       	se_or   r25,r24
52800120:	53 99 00 00 	e_lwz   r28,0(r25)
52800124:	77 9c 00 3d 	e_rlwinm r28,r28,0,0,30
52800128:	57 99 00 00 	e_stw   r28,0(r25)
5280012c:	73 1e e7 fb 	e_lis   r24,63483
52800130:	73 30 00 80 	e_li    r25,32896
52800134:	44 89       	se_or   r25,r24
52800136:	73 80 00 fe 	e_li    r28,254
5280013a:	57 99 00 00 	e_stw   r28,0(r25)
5280013e:	73 30 00 04 	e_li    r25,32772
52800142:	44 89       	se_or   r25,r24
52800144:	73 a6 e0 00 	e_lis   r29,12288
52800148:	73 8b 02 f0 	e_li    r28,23280
5280014c:	44 dc       	se_or   r28,r29
5280014e:	d0 c9       	se_stw  r28,0(r25)
52800150:	73 94 05 0f 	e_li    r28,42255
52800154:	44 dc       	se_or   r28,r29
52800156:	d0 c9       	se_stw  r28,0(r25)
52800158:	73 8a e2 80 	e_lis   r28,21120
5280015c:	73 a1 00 00 	e_li    r29,2048
52800160:	44 dc       	se_or   r28,r29
52800162:	73 c0 00 00 	e_li    r30,0
52800166:	73 e0 00 00 	e_li    r31,0
5280016a:	73 60 00 00 	e_li    r27,0

5280016e <rfill_1>:
5280016e:	1b dc 09 00 	e_stmw  r30,0(r28)
52800172:	1f 9c 00 08 	e_add16i r28,r28,8
52800176:	1f 7b 00 01 	e_add16i r27,r27,1
5280017a:	70 7b 9f 00 	e_cmp16i r27,7936
5280017e:	e2 f8       	se_bne  5280016e <rfill_1>
52800180:	70 2a e2 80 	e_lis   r1,21120
52800184:	73 3f 07 fc 	e_li    r25,65532
52800188:	44 91       	se_or   r1,r25
5280018a:	73 3e e7 fc 	e_lis   r25,63484
5280018e:	73 84 e2 88 	e_lis   r28,8840
52800192:	57 99 04 44 	e_stw   r28,1092(r25)
52800196:	57 99 04 48 	e_stw   r28,1096(r25)
5280019a:	70 ca e2 80 	e_lis   r6,21120
5280019e:	70 a0 00 80 	e_li    r5,128
528001a2:	44 56       	se_or   r6,r5

528001a4 <loop>:
528001a4:	70 60 e0 08 	e_lis   r3,8

528001a8 <w1>:
528001a8:	26 03       	se_subi. r3,1
528001aa:	e2 ff       	se_bne  528001a8 <w1>
528001ac:	48 1c       	se_li   r28,1
528001ae:	37 99 13 81 	e_stb   r28,4993(r25)
528001b2:	48 0c       	se_li   r28,0
528001b4:	37 99 13 82 	e_stb   r28,4994(r25)
528001b8:	70 60 e0 08 	e_lis   r3,8

528001bc <w2>:
528001bc:	26 03       	se_subi. r3,1
528001be:	e2 ff       	se_bne  528001bc <w2>
528001c0:	50 f9 17 10 	e_lwz   r7,5904(r25)
528001c4:	d2 76       	se_stw  r7,8(r6)
528001c6:	48 0c       	se_li   r28,0
528001c8:	37 99 13 81 	e_stb   r28,4993(r25)
528001cc:	48 1c       	se_li   r28,1
528001ce:	37 99 13 82 	e_stb   r28,4994(r25)
528001d2:	50 f9 00 04 	e_lwz   r7,4(r25)
528001d6:	d0 76       	se_stw  r7,0(r6)
528001d8:	50 f9 00 08 	e_lwz   r7,8(r25)
528001dc:	d1 76       	se_stw  r7,4(r6)
528001de:	50 f9 04 44 	e_lwz   r7,1092(r25)
528001e2:	d2 76       	se_stw  r7,8(r6)
528001e4:	50 f9 17 10 	e_lwz   r7,5904(r25)
528001e8:	d3 76       	se_stw  r7,12(r6)
528001ea:	e8 dd       	se_b    528001a4 <loop>

Disassembly of section .PPC.EMB.apuinfo:

00000000 <.PPC.EMB.apuinfo>:
   0:	00 00 00 08 	.long 0x8
   4:	00 00 00 04 	.long 0x4
   8:	00 00 00 02 	.long 0x2
   c:	41 50 55 69 	bdztl   4*cr4+lt,5574 <MCSR_OUTPUT+0x32ec>
  10:	6e 66 6f 00 	xoris   r6,r19,28416
  14:	01 04 00 01 	.long 0x1040001

boot.elf:     file format elf32-powerpc
boot.elf
architecture: powerpc:common, flags 0x00000112:
EXEC_P, HAS_SYMS, D_PAGED
start address 0x00000000

Program Header:
    LOAD off    0x00000000 vaddr 0x00600000 paddr 0x00600000 align 2**16
         filesz 0x0000c1ec memsz 0x0000c1ec flags r-x
    LOAD off    0x00010000 vaddr 0x52800000 paddr 0x0060c1f0 align 2**16
         filesz 0x00000000 memsz 0x00000000 flags rw-

Sections:
Idx Name          Size      VMA       LMA       File off  Algn
  0 .text         000001ec  0060c000  0060c000  0000c000  2**4
                  CONTENTS, ALLOC, LOAD, READONLY, CODE, VLE
  1 .stacks       00000000  52800000  52800000  00010000  2**0
                  CONTENTS
  2 .data         00000000  52800000  0060c1f0  00010000  2**0
                  CONTENTS, ALLOC, LOAD, DATA
  3 .PPC.EMB.apuinfo 00000018  00000000  00000000  00010000  2**0
                  CONTENTS, READONLY
SYMBOL TABLE:
0060c000 l    d  .text	00000000 .text
52800000 l    d  .stacks	00000000 .stacks
52800000 l    d  .data	00000000 .data
00000000 l    d  .PPC.EMB.apuinfo	00000000 .PPC.EMB.apuinfo
00000000 l    df *ABS*	00000000 build/src/boot.o
00000000 l       *ABS*	00000000 r0
00000001 l       *ABS*	00000000 r1
00000001 l       *ABS*	00000000 rsp
00000002 l       *ABS*	00000000 r2
00000003 l       *ABS*	00000000 r3
00000004 l       *ABS*	00000000 r4
00000005 l       *ABS*	00000000 r5
00000006 l       *ABS*	00000000 r6
00000007 l       *ABS*	00000000 r7
00000008 l       *ABS*	00000000 r8
00000009 l       *ABS*	00000000 r9
0000000a l       *ABS*	00000000 r10
0000000b l       *ABS*	00000000 r11
0000000c l       *ABS*	00000000 r12
0000000d l       *ABS*	00000000 r13
0000000e l       *ABS*	00000000 r14
0000000f l       *ABS*	00000000 r15
00000010 l       *ABS*	00000000 r16
00000011 l       *ABS*	00000000 r17
00000012 l       *ABS*	00000000 r18
00000013 l       *ABS*	00000000 r19
00000014 l       *ABS*	00000000 r20
00000015 l       *ABS*	00000000 r21
00000016 l       *ABS*	00000000 r22
00000017 l       *ABS*	00000000 r23
00000018 l       *ABS*	00000000 r24
00000019 l       *ABS*	00000000 r25
0000001a l       *ABS*	00000000 r26
0000001b l       *ABS*	00000000 r27
0000001c l       *ABS*	00000000 r28
0000001d l       *ABS*	00000000 r29
0000001e l       *ABS*	00000000 r30
0000001f l       *ABS*	00000000 r31
0000f7fc l       *ABS*	00000000 SIUL_BASE
00001300 l       *ABS*	00000000 GPDO0
00001304 l       *ABS*	00000000 GPDO1
00001308 l       *ABS*	00000000 GPDO2
0000130c l       *ABS*	00000000 GPDO3
00001310 l       *ABS*	00000000 GPDO4
00001314 l       *ABS*	00000000 GPDO5
00001318 l       *ABS*	00000000 GPDO6
0000131c l       *ABS*	00000000 GPDO7
00001320 l       *ABS*	00000000 GPDO8
00001324 l       *ABS*	00000000 GPDO9
00001328 l       *ABS*	00000000 GPDO10
0000132c l       *ABS*	00000000 GPDO11
00001330 l       *ABS*	00000000 GPDO12
00001334 l       *ABS*	00000000 GPDO13
00001338 l       *ABS*	00000000 GPDO14
0000133c l       *ABS*	00000000 GPDO15
00001340 l       *ABS*	00000000 GPDO16
00001344 l       *ABS*	00000000 GPDO17
00001348 l       *ABS*	00000000 GPDO18
0000134c l       *ABS*	00000000 GPDO19
00001350 l       *ABS*	00000000 GPDO20
00001354 l       *ABS*	00000000 GPDO21
00001358 l       *ABS*	00000000 GPDO22
0000135c l       *ABS*	00000000 GPDO23
00001360 l       *ABS*	00000000 GPDO24
00001364 l       *ABS*	00000000 GPDO25
00001368 l       *ABS*	00000000 GPDO26
0000136c l       *ABS*	00000000 GPDO27
00001370 l       *ABS*	00000000 GPDO28
00001374 l       *ABS*	00000000 GPDO29
00001378 l       *ABS*	00000000 GPDO30
0000137c l       *ABS*	00000000 GPDO31
00001380 l       *ABS*	00000000 GPDO32
00001384 l       *ABS*	00000000 GPDO33
00001388 l       *ABS*	00000000 GPDO34
0000138c l       *ABS*	00000000 GPDO35
00001390 l       *ABS*	00000000 GPDO36
00001394 l       *ABS*	00000000 GPDO37
00001398 l       *ABS*	00000000 GPDO38
0000139c l       *ABS*	00000000 GPDO39
00001500 l       *ABS*	00000000 GPDI0
00001504 l       *ABS*	00000000 GPDI1
00001508 l       *ABS*	00000000 GPDI2
0000150c l       *ABS*	00000000 GPDI3
00001510 l       *ABS*	00000000 GPDI4
00001514 l       *ABS*	00000000 GPDI5
00001518 l       *ABS*	00000000 GPDI6
0000151c l       *ABS*	00000000 GPDI7
00001520 l       *ABS*	00000000 GPDI8
00001524 l       *ABS*	00000000 GPDI9
00001528 l       *ABS*	00000000 GPDI10
0000152c l       *ABS*	00000000 GPDI11
00001530 l       *ABS*	00000000 GPDI12
00001534 l       *ABS*	00000000 GPDI13
00001538 l       *ABS*	00000000 GPDI14
0000153c l       *ABS*	00000000 GPDI15
00001540 l       *ABS*	00000000 GPDI16
00001544 l       *ABS*	00000000 GPDI17
00001548 l       *ABS*	00000000 GPDI18
0000154c l       *ABS*	00000000 GPDI19
00001550 l       *ABS*	00000000 GPDI20
00001554 l       *ABS*	00000000 GPDI21
00001558 l       *ABS*	00000000 GPDI22
0000155c l       *ABS*	00000000 GPDI23
00001560 l       *ABS*	00000000 GPDI24
00001564 l       *ABS*	00000000 GPDI25
00001568 l       *ABS*	00000000 GPDI26
0000156c l       *ABS*	00000000 GPDI27
00001570 l       *ABS*	00000000 GPDI28
00001574 l       *ABS*	00000000 GPDI29
00001578 l       *ABS*	00000000 GPDI30
0000157c l       *ABS*	00000000 GPDI31
00001580 l       *ABS*	00000000 GPDI32
00001584 l       *ABS*	00000000 GPDI33
00001588 l       *ABS*	00000000 GPDI34
0000158c l       *ABS*	00000000 GPDI35
00001590 l       *ABS*	00000000 GPDI36
00001594 l       *ABS*	00000000 GPDI37
00001598 l       *ABS*	00000000 GPDI38
0000159c l       *ABS*	00000000 GPDI39
00001700 l       *ABS*	00000000 PGPDO0
00001704 l       *ABS*	00000000 PGPDO1
00001708 l       *ABS*	00000000 PGPDO2
0000170c l       *ABS*	00000000 PGPDO3
00001710 l       *ABS*	00000000 PGPDO4
00001700 l       *ABS*	00000000 POUT_A
00001702 l       *ABS*	00000000 POUT_B
00001704 l       *ABS*	00000000 POUT_C
00001706 l       *ABS*	00000000 POUT_D
00001708 l       *ABS*	00000000 POUT_E
0000170a l       *ABS*	00000000 POUT_F
0000170c l       *ABS*	00000000 POUT_G
0000170e l       *ABS*	00000000 POUT_H
00001710 l       *ABS*	00000000 POUT_I
00001712 l       *ABS*	00000000 POUT_J
00001740 l       *ABS*	00000000 PGPDI0
00001744 l       *ABS*	00000000 PGPDI1
00001748 l       *ABS*	00000000 PGPDI2
0000174c l       *ABS*	00000000 PGPDI3
00001750 l       *ABS*	00000000 PGPDI4
00001740 l       *ABS*	00000000 PIN_A
00001742 l       *ABS*	00000000 PIN_B
00001744 l       *ABS*	00000000 PIN_C
00001746 l       *ABS*	00000000 PIN_D
00001748 l       *ABS*	00000000 PIN_E
0000174a l       *ABS*	00000000 PIN_F
0000174c l       *ABS*	00000000 PIN_G
0000174e l       *ABS*	00000000 PIN_H
00001750 l       *ABS*	00000000 PIN_I
00001752 l       *ABS*	00000000 PIN_J
00000240 l       *ABS*	00000000 MCSR_A0
00000244 l       *ABS*	00000000 MCSR_A1
00000248 l       *ABS*	00000000 MCSR_A2
0000024c l       *ABS*	00000000 MCSR_A3
00000250 l       *ABS*	00000000 MCSR_A4
00000254 l       *ABS*	00000000 MCSR_A5
00000258 l       *ABS*	00000000 MCSR_A6
0000025c l       *ABS*	00000000 MCSR_A7
00000260 l       *ABS*	00000000 MCSR_A8
00000264 l       *ABS*	00000000 MCSR_A9
00000268 l       *ABS*	00000000 MCSR_A10
0000026c l       *ABS*	00000000 MCSR_A11
00000270 l       *ABS*	00000000 MCSR_A12
00000274 l       *ABS*	00000000 MCSR_A13
00000278 l       *ABS*	00000000 MCSR_A14
0000027c l       *ABS*	00000000 MCSR_A15
00000280 l       *ABS*	00000000 MCSR_B0
00000284 l       *ABS*	00000000 MCSR_B1
00000288 l       *ABS*	00000000 MCSR_B2
0000028c l       *ABS*	00000000 MCSR_B3
00000290 l       *ABS*	00000000 MCSR_B4
00000294 l       *ABS*	00000000 MCSR_B5
00000298 l       *ABS*	00000000 MCSR_B6
0000029c l       *ABS*	00000000 MCSR_B7
000002a0 l       *ABS*	00000000 MCSR_B8
000002a4 l       *ABS*	00000000 MCSR_B9
000002a8 l       *ABS*	00000000 MCSR_B10
000002ac l       *ABS*	00000000 MCSR_B11
000002b0 l       *ABS*	00000000 MCSR_B12
000002b4 l       *ABS*	00000000 MCSR_B13
000002b8 l       *ABS*	00000000 MCSR_B14
000002bc l       *ABS*	00000000 MCSR_B15
000002c0 l       *ABS*	00000000 MCSR_C0
000002c4 l       *ABS*	00000000 MCSR_C1
000002c8 l       *ABS*	00000000 MCSR_C2
000002cc l       *ABS*	00000000 MCSR_C3
000002d0 l       *ABS*	00000000 MCSR_C4
000002d4 l       *ABS*	00000000 MCSR_C5
000002d8 l       *ABS*	00000000 MCSR_C6
000002dc l       *ABS*	00000000 MCSR_C7
000002e0 l       *ABS*	00000000 MCSR_C8
000002e4 l       *ABS*	00000000 MCSR_C9
000002e8 l       *ABS*	00000000 MCSR_C10
000002ec l       *ABS*	00000000 MCSR_C11
000002f0 l       *ABS*	00000000 MCSR_C12
000002f4 l       *ABS*	00000000 MCSR_C13
000002f8 l       *ABS*	00000000 MCSR_C14
000002fc l       *ABS*	00000000 MCSR_C15
00000300 l       *ABS*	00000000 MCSR_D0
00000304 l       *ABS*	00000000 MCSR_D1
00000308 l       *ABS*	00000000 MCSR_D2
0000030c l       *ABS*	00000000 MCSR_D3
00000310 l       *ABS*	00000000 MCSR_D4
00000314 l       *ABS*	00000000 MCSR_D5
00000318 l       *ABS*	00000000 MCSR_D6
0000031c l       *ABS*	00000000 MCSR_D7
00000320 l       *ABS*	00000000 MCSR_D8
00000324 l       *ABS*	00000000 MCSR_D9
00000328 l       *ABS*	00000000 MCSR_D10
0000032c l       *ABS*	00000000 MCSR_D11
00000330 l       *ABS*	00000000 MCSR_D12
00000334 l       *ABS*	00000000 MCSR_D13
00000338 l       *ABS*	00000000 MCSR_D14
0000033c l       *ABS*	00000000 MCSR_D15
00000340 l       *ABS*	00000000 MCSR_E0
00000344 l       *ABS*	00000000 MCSR_E1
00000348 l       *ABS*	00000000 MCSR_E2
0000034c l       *ABS*	00000000 MCSR_E3
00000350 l       *ABS*	00000000 MCSR_E4
00000354 l       *ABS*	00000000 MCSR_E5
00000358 l       *ABS*	00000000 MCSR_E6
0000035c l       *ABS*	00000000 MCSR_E7
00000360 l       *ABS*	00000000 MCSR_E8
00000364 l       *ABS*	00000000 MCSR_E9
00000368 l       *ABS*	00000000 MCSR_E10
0000036c l       *ABS*	00000000 MCSR_E11
00000370 l       *ABS*	00000000 MCSR_E12
00000374 l       *ABS*	00000000 MCSR_E13
00000378 l       *ABS*	00000000 MCSR_E14
0000037c l       *ABS*	00000000 MCSR_E15
00000380 l       *ABS*	00000000 MCSR_F0
00000384 l       *ABS*	00000000 MCSR_F1
00000388 l       *ABS*	00000000 MCSR_F2
0000038c l       *ABS*	00000000 MCSR_F3
00000390 l       *ABS*	00000000 MCSR_F4
00000394 l       *ABS*	00000000 MCSR_F5
00000398 l       *ABS*	00000000 MCSR_F6
0000039c l       *ABS*	00000000 MCSR_F7
000003a0 l       *ABS*	00000000 MCSR_F8
000003a4 l       *ABS*	00000000 MCSR_F9
000003a8 l       *ABS*	00000000 MCSR_F10
000003ac l       *ABS*	00000000 MCSR_F11
000003b0 l       *ABS*	00000000 MCSR_F12
000003b4 l       *ABS*	00000000 MCSR_F13
000003b8 l       *ABS*	00000000 MCSR_F14
000003bc l       *ABS*	00000000 MCSR_F15
000003c0 l       *ABS*	00000000 MCSR_G0
000003c4 l       *ABS*	00000000 MCSR_G1
000003c8 l       *ABS*	00000000 MCSR_G2
000003cc l       *ABS*	00000000 MCSR_G3
000003d0 l       *ABS*	00000000 MCSR_G4
000003d4 l       *ABS*	00000000 MCSR_G5
000003d8 l       *ABS*	00000000 MCSR_G6
000003dc l       *ABS*	00000000 MCSR_G7
000003e0 l       *ABS*	00000000 MCSR_G8
000003e4 l       *ABS*	00000000 MCSR_G9
000003e8 l       *ABS*	00000000 MCSR_G10
000003ec l       *ABS*	00000000 MCSR_G11
000003f0 l       *ABS*	00000000 MCSR_G12
000003f4 l       *ABS*	00000000 MCSR_G13
000003f8 l       *ABS*	00000000 MCSR_G14
000003fc l       *ABS*	00000000 MCSR_G15
00000400 l       *ABS*	00000000 MCSR_H0
00000404 l       *ABS*	00000000 MCSR_H1
00000408 l       *ABS*	00000000 MCSR_H2
0000040c l       *ABS*	00000000 MCSR_H3
00000410 l       *ABS*	00000000 MCSR_H4
00000414 l       *ABS*	00000000 MCSR_H5
00000418 l       *ABS*	00000000 MCSR_H6
0000041c l       *ABS*	00000000 MCSR_H7
00000420 l       *ABS*	00000000 MCSR_H8
00000424 l       *ABS*	00000000 MCSR_H9
00000428 l       *ABS*	00000000 MCSR_H10
0000042c l       *ABS*	00000000 MCSR_H11
00000430 l       *ABS*	00000000 MCSR_H12
00000434 l       *ABS*	00000000 MCSR_H13
00000438 l       *ABS*	00000000 MCSR_H14
0000043c l       *ABS*	00000000 MCSR_H15
00000440 l       *ABS*	00000000 MCSR_I0
00000444 l       *ABS*	00000000 MCSR_I1
00000448 l       *ABS*	00000000 MCSR_I2
0000044c l       *ABS*	00000000 MCSR_I3
00000450 l       *ABS*	00000000 MCSR_I4
00000454 l       *ABS*	00000000 MCSR_I5
00000458 l       *ABS*	00000000 MCSR_I6
0000045c l       *ABS*	00000000 MCSR_I7
00000460 l       *ABS*	00000000 MCSR_I8
00000464 l       *ABS*	00000000 MCSR_I9
00000468 l       *ABS*	00000000 MCSR_I10
0000046c l       *ABS*	00000000 MCSR_I11
00000470 l       *ABS*	00000000 MCSR_I12
00000474 l       *ABS*	00000000 MCSR_I13
00000478 l       *ABS*	00000000 MCSR_I14
0000047c l       *ABS*	00000000 MCSR_I15
00000480 l       *ABS*	00000000 MCSR_J0
00000484 l       *ABS*	00000000 MCSR_J1
00000488 l       *ABS*	00000000 MCSR_J2
0000048c l       *ABS*	00000000 MCSR_J3
00000490 l       *ABS*	00000000 MCSR_J4
00000494 l       *ABS*	00000000 MCSR_J5
00000498 l       *ABS*	00000000 MCSR_J6
0000049c l       *ABS*	00000000 MCSR_J7
000004a0 l       *ABS*	00000000 MCSR_J8
000004a4 l       *ABS*	00000000 MCSR_J9
000004a8 l       *ABS*	00000000 MCSR_J10
000004ac l       *ABS*	00000000 MCSR_J11
000004b0 l       *ABS*	00000000 MCSR_J12
000004b4 l       *ABS*	00000000 MCSR_J13
000004b8 l       *ABS*	00000000 MCSR_J14
000004bc l       *ABS*	00000000 MCSR_J15
00000003 l       *ABS*	00000000 MCSR_UNCONNECT
00000088 l       *ABS*	00000000 MCSR_INPUT
00000089 l       *ABS*	00000000 MCSR_INPUT_PU
0000008a l       *ABS*	00000000 MCSR_INPUT_PD
00002288 l       *ABS*	00000000 MCSR_OUTPUT
00002188 l       *ABS*	00000000 MCSR_OUTPUT_OD
0000f405 l       *ABS*	00000000 SWT_BASE
00008000 l       *ABS*	00000000 SWT_CR
00008004 l       *ABS*	00000000 SWT_IR
00008008 l       *ABS*	00000000 SWT_TO
0000800c l       *ABS*	00000000 SWT_WN
00008010 l       *ABS*	00000000 SWT_SR
00008014 l       *ABS*	00000000 SWT_CO
00008018 l       *ABS*	00000000 SWT_SK
0000f7fb l       *ABS*	00000000 ME_BASE
00008000 l       *ABS*	00000000 ME_GS
00008004 l       *ABS*	00000000 ME_MCTL
00008008 l       *ABS*	00000000 ME_ME
0000800c l       *ABS*	00000000 ME_MIS
00008010 l       *ABS*	00000000 ME_IM
00008014 l       *ABS*	00000000 ME_IMTS
00008018 l       *ABS*	00000000 ME_DMTS
00008080 l       *ABS*	00000000 ME_RUN_PC0
00008084 l       *ABS*	00000000 ME_RUN_PC1
00008088 l       *ABS*	00000000 ME_RUN_PC2
0000808c l       *ABS*	00000000 ME_RUN_PC3
00008090 l       *ABS*	00000000 ME_RUN_PC4
00008094 l       *ABS*	00000000 ME_RUN_PC5
00008098 l       *ABS*	00000000 ME_RUN_PC6
0000809c l       *ABS*	00000000 ME_RUN_PC7
0000802c l       *ABS*	00000000 ME_DRUN_MC
0000c3fe l       *ABS*	00000000 FMPLL_BASE
000000a0 l       *ABS*	00000000 FMPLL0_CR
000000c0 l       *ABS*	00000000 FMPLL1_CR
0000ffe4 l       *ABS*	00000000 LINFLEX0_BASE
00000000 l       *ABS*	00000000 LINFLEX0_LINCR1
00000010 l       *ABS*	00000000 LINFLEX0_UARTCR
00000014 l       *ABS*	00000000 LINFLEX0_UARTSR
00000028 l       *ABS*	00000000 LINFLEX0_LINBRR
0000002c l       *ABS*	00000000 LINFLEX0_LINBFRR
00000038 l       *ABS*	00000000 LINFLEX0_BRDL
0000003c l       *ABS*	00000000 LINFLEX0_BRDM
0000c3f8 l       *ABS*	00000000 PFLASH_BASE
00008000 l       *ABS*	00000000 PFLASH_MCR
00008004 l       *ABS*	00000000 PFLASH_LML
00008010 l       *ABS*	00000000 PFLASH_LMS
0000c3f9 l       *ABS*	00000000 PFLASH_BASE_N
ffff8000 l       *ABS*	00000000 PFLASH_MCR_N
ffff8010 l       *ABS*	00000000 PFLASH_LMS_N
0000c3f8 l       *ABS*	00000000 DFLASH_BASE
0000c000 l       *ABS*	00000000 DFLASH_MCR
fff48000 l       *ABS*	00000000 INTC_BASE
fff48010 l       *ABS*	00000000 INTC_IACKR
fff48018 l       *ABS*	00000000 INTC_EOIR
00000800 l       *ABS*	00000000 block_size
00000001 l       *ABS*	00000000 DEBUG_LED
0060c100 l       .text	00000000 main_start
0060c16e l       .text	00000000 rfill_1
0060c1a4 l       .text	00000000 loop
0060c1a8 l       .text	00000000 w1
0060c1bc l       .text	00000000 w2
52800000 g       .data	00000000 __data_start__
52808000 g       .data	00000000 __sdata_start__
006141f0 g       .text	00000000 __sdata2_start__
00000000 g       *ABS*	00000000 _reset_address
52800000 g       .data	00000000 __heap_base__
0060c1f0 g       .text	00000000 __romdata_start__
52800000 g       .stacks	00000000 __main_thread_stack_end__
52810000 g       *ABS*	00000000 __heap_end__
52800000 g       .data	00000000 __bss_start__
00024000 g       *ABS*	00000000 __flash_size__
52800000 g       .data	00000000 __data_end__
52800000 g       .data	00000000 __bss_end__
0060c000 g       .text	00000000 _start
00000000 g       *ABS*	00000000 __irq_stack_size__
00630000 g       *ABS*	00000000 __flash_end__
00010000 g       *ABS*	00000000 __ram_size__
52800000 g       .text	00000000 __ram_start__
52800000 g       .stacks	00000000 __process_stack_base__
52800000 g       .stacks	00000000 __irq_stack_end__
52810000 g       *ABS*	00000000 __ram_end__
52800000 g       .stacks	00000000 __irq_stack_base__
52800000 g       .stacks	00000000 __main_thread_stack_base__
0060c000 g       .text	00000000 __flash_start__
52800000 g       .stacks	00000000 __process_stack_end__
00000000 g       *ABS*	00000000 __process_stack_size__



Disassembly of section .text:

0060c000 <__flash_start__>:
	...

0060c100 <main_start>:
  60c100:	73 1e e4 05 	e_lis   r24,62469
  60c104:	73 30 00 10 	e_li    r25,32784
  60c108:	44 89       	se_or   r25,r24
  60c10a:	73 98 05 20 	e_li    r28,50464
  60c10e:	57 99 00 00 	e_stw   r28,0(r25)
  60c112:	73 9b 01 28 	e_li    r28,55592
  60c116:	57 99 00 00 	e_stw   r28,0(r25)
  60c11a:	73 30 00 00 	e_li    r25,32768
  60c11e:	44 89       	se_or   r25,r24
  60c120:	53 99 00 00 	e_lwz   r28,0(r25)
  60c124:	77 9c 00 3d 	e_rlwinm r28,r28,0,0,30
  60c128:	57 99 00 00 	e_stw   r28,0(r25)
  60c12c:	73 1e e7 fb 	e_lis   r24,63483
  60c130:	73 30 00 80 	e_li    r25,32896
  60c134:	44 89       	se_or   r25,r24
  60c136:	73 80 00 fe 	e_li    r28,254
  60c13a:	57 99 00 00 	e_stw   r28,0(r25)
  60c13e:	73 30 00 04 	e_li    r25,32772
  60c142:	44 89       	se_or   r25,r24
  60c144:	73 a6 e0 00 	e_lis   r29,12288
  60c148:	73 8b 02 f0 	e_li    r28,23280
  60c14c:	44 dc       	se_or   r28,r29
  60c14e:	d0 c9       	se_stw  r28,0(r25)
  60c150:	73 94 05 0f 	e_li    r28,42255
  60c154:	44 dc       	se_or   r28,r29
  60c156:	d0 c9       	se_stw  r28,0(r25)
  60c158:	73 8a e2 80 	e_lis   r28,21120
  60c15c:	73 a1 00 00 	e_li    r29,2048
  60c160:	44 dc       	se_or   r28,r29
  60c162:	73 c0 00 00 	e_li    r30,0
  60c166:	73 e0 00 00 	e_li    r31,0
  60c16a:	73 60 00 00 	e_li    r27,0

0060c16e <rfill_1>:
  60c16e:	1b dc 09 00 	e_stmw  r30,0(r28)
  60c172:	1f 9c 00 08 	e_add16i r28,r28,8
  60c176:	1f 7b 00 01 	e_add16i r27,r27,1
  60c17a:	70 7b 9f 00 	e_cmp16i r27,7936
  60c17e:	e2 f8       	se_bne  60c16e <rfill_1>
  60c180:	70 2a e2 80 	e_lis   r1,21120
  60c184:	73 3f 07 fc 	e_li    r25,65532
  60c188:	44 91       	se_or   r1,r25
  60c18a:	73 3e e7 fc 	e_lis   r25,63484
  60c18e:	73 84 e2 88 	e_lis   r28,8840
  60c192:	57 99 04 44 	e_stw   r28,1092(r25)
  60c196:	57 99 04 48 	e_stw   r28,1096(r25)
  60c19a:	70 ca e2 80 	e_lis   r6,21120
  60c19e:	70 a0 00 80 	e_li    r5,128
  60c1a2:	44 56       	se_or   r6,r5

0060c1a4 <loop>:
  60c1a4:	70 60 e0 08 	e_lis   r3,8

0060c1a8 <w1>:
  60c1a8:	26 03       	se_subi. r3,1
  60c1aa:	e2 ff       	se_bne  60c1a8 <w1>
  60c1ac:	48 1c       	se_li   r28,1
  60c1ae:	37 99 13 81 	e_stb   r28,4993(r25)
  60c1b2:	48 0c       	se_li   r28,0
  60c1b4:	37 99 13 82 	e_stb   r28,4994(r25)
  60c1b8:	70 60 e0 08 	e_lis   r3,8

0060c1bc <w2>:
  60c1bc:	26 03       	se_subi. r3,1
  60c1be:	e2 ff       	se_bne  60c1bc <w2>
  60c1c0:	50 f9 17 10 	e_lwz   r7,5904(r25)
  60c1c4:	d2 76       	se_stw  r7,8(r6)
  60c1c6:	48 0c       	se_li   r28,0
  60c1c8:	37 99 13 81 	e_stb   r28,4993(r25)
  60c1cc:	48 1c       	se_li   r28,1
  60c1ce:	37 99 13 82 	e_stb   r28,4994(r25)
  60c1d2:	50 f9 00 04 	e_lwz   r7,4(r25)
  60c1d6:	d0 76       	se_stw  r7,0(r6)
  60c1d8:	50 f9 00 08 	e_lwz   r7,8(r25)
  60c1dc:	d1 76       	se_stw  r7,4(r6)
  60c1de:	50 f9 04 44 	e_lwz   r7,1092(r25)
  60c1e2:	d2 76       	se_stw  r7,8(r6)
  60c1e4:	50 f9 17 10 	e_lwz   r7,5904(r25)
  60c1e8:	d3 76       	se_stw  r7,12(r6)
  60c1ea:	e8 dd       	se_b    60c1a4 <loop>

Disassembly of section .PPC.EMB.apuinfo:

00000000 <.PPC.EMB.apuinfo>:
   0:	00 00 00 08 	.long 0x8
   4:	00 00 00 04 	.long 0x4
   8:	00 00 00 02 	.long 0x2
   c:	41 50 55 69 	bdztl   4*cr4+lt,5574 <MCSR_OUTPUT+0x32ec>
  10:	6e 66 6f 00 	xoris   r6,r19,28416
  14:	01 04 00 01 	.long 0x1040001

boot.elf:     file format elf32-powerpc
boot.elf
architecture: powerpc:common, flags 0x00000112:
EXEC_P, HAS_SYMS, D_PAGED
start address 0x00000000

Program Header:
    LOAD off    0x00000000 vaddr 0x00600000 paddr 0x00600000 align 2**16
         filesz 0x0000c1ec memsz 0x0000c1ec flags r-x
    LOAD off    0x00010000 vaddr 0x52800000 paddr 0x0060c1f0 align 2**16
         filesz 0x00000000 memsz 0x00000000 flags rw-

Sections:
Idx Name          Size      VMA       LMA       File off  Algn
  0 .text         000001ec  0060c000  0060c000  0000c000  2**4
                  CONTENTS, ALLOC, LOAD, READONLY, CODE, VLE
  1 .stacks       00000000  52800000  52800000  00010000  2**0
                  CONTENTS
  2 .data         00000000  52800000  0060c1f0  00010000  2**0
                  CONTENTS, ALLOC, LOAD, DATA
  3 .PPC.EMB.apuinfo 00000018  00000000  00000000  00010000  2**0
                  CONTENTS, READONLY
SYMBOL TABLE:
0060c000 l    d  .text	00000000 .text
52800000 l    d  .stacks	00000000 .stacks
52800000 l    d  .data	00000000 .data
00000000 l    d  .PPC.EMB.apuinfo	00000000 .PPC.EMB.apuinfo
00000000 l    df *ABS*	00000000 build/src/boot.o
00000000 l       *ABS*	00000000 r0
00000001 l       *ABS*	00000000 r1
00000001 l       *ABS*	00000000 rsp
00000002 l       *ABS*	00000000 r2
00000003 l       *ABS*	00000000 r3
00000004 l       *ABS*	00000000 r4
00000005 l       *ABS*	00000000 r5
00000006 l       *ABS*	00000000 r6
00000007 l       *ABS*	00000000 r7
00000008 l       *ABS*	00000000 r8
00000009 l       *ABS*	00000000 r9
0000000a l       *ABS*	00000000 r10
0000000b l       *ABS*	00000000 r11
0000000c l       *ABS*	00000000 r12
0000000d l       *ABS*	00000000 r13
0000000e l       *ABS*	00000000 r14
0000000f l       *ABS*	00000000 r15
00000010 l       *ABS*	00000000 r16
00000011 l       *ABS*	00000000 r17
00000012 l       *ABS*	00000000 r18
00000013 l       *ABS*	00000000 r19
00000014 l       *ABS*	00000000 r20
00000015 l       *ABS*	00000000 r21
00000016 l       *ABS*	00000000 r22
00000017 l       *ABS*	00000000 r23
00000018 l       *ABS*	00000000 r24
00000019 l       *ABS*	00000000 r25
0000001a l       *ABS*	00000000 r26
0000001b l       *ABS*	00000000 r27
0000001c l       *ABS*	00000000 r28
0000001d l       *ABS*	00000000 r29
0000001e l       *ABS*	00000000 r30
0000001f l       *ABS*	00000000 r31
0000f7fc l       *ABS*	00000000 SIUL_BASE
00001300 l       *ABS*	00000000 GPDO0
00001304 l       *ABS*	00000000 GPDO1
00001308 l       *ABS*	00000000 GPDO2
0000130c l       *ABS*	00000000 GPDO3
00001310 l       *ABS*	00000000 GPDO4
00001314 l       *ABS*	00000000 GPDO5
00001318 l       *ABS*	00000000 GPDO6
0000131c l       *ABS*	00000000 GPDO7
00001320 l       *ABS*	00000000 GPDO8
00001324 l       *ABS*	00000000 GPDO9
00001328 l       *ABS*	00000000 GPDO10
0000132c l       *ABS*	00000000 GPDO11
00001330 l       *ABS*	00000000 GPDO12
00001334 l       *ABS*	00000000 GPDO13
00001338 l       *ABS*	00000000 GPDO14
0000133c l       *ABS*	00000000 GPDO15
00001340 l       *ABS*	00000000 GPDO16
00001344 l       *ABS*	00000000 GPDO17
00001348 l       *ABS*	00000000 GPDO18
0000134c l       *ABS*	00000000 GPDO19
00001350 l       *ABS*	00000000 GPDO20
00001354 l       *ABS*	00000000 GPDO21
00001358 l       *ABS*	00000000 GPDO22
0000135c l       *ABS*	00000000 GPDO23
00001360 l       *ABS*	00000000 GPDO24
00001364 l       *ABS*	00000000 GPDO25
00001368 l       *ABS*	00000000 GPDO26
0000136c l       *ABS*	00000000 GPDO27
00001370 l       *ABS*	00000000 GPDO28
00001374 l       *ABS*	00000000 GPDO29
00001378 l       *ABS*	00000000 GPDO30
0000137c l       *ABS*	00000000 GPDO31
00001380 l       *ABS*	00000000 GPDO32
00001384 l       *ABS*	00000000 GPDO33
00001388 l       *ABS*	00000000 GPDO34
0000138c l       *ABS*	00000000 GPDO35
00001390 l       *ABS*	00000000 GPDO36
00001394 l       *ABS*	00000000 GPDO37
00001398 l       *ABS*	00000000 GPDO38
0000139c l       *ABS*	00000000 GPDO39
00001500 l       *ABS*	00000000 GPDI0
00001504 l       *ABS*	00000000 GPDI1
00001508 l       *ABS*	00000000 GPDI2
0000150c l       *ABS*	00000000 GPDI3
00001510 l       *ABS*	00000000 GPDI4
00001514 l       *ABS*	00000000 GPDI5
00001518 l       *ABS*	00000000 GPDI6
0000151c l       *ABS*	00000000 GPDI7
00001520 l       *ABS*	00000000 GPDI8
00001524 l       *ABS*	00000000 GPDI9
00001528 l       *ABS*	00000000 GPDI10
0000152c l       *ABS*	00000000 GPDI11
00001530 l       *ABS*	00000000 GPDI12
00001534 l       *ABS*	00000000 GPDI13
00001538 l       *ABS*	00000000 GPDI14
0000153c l       *ABS*	00000000 GPDI15
00001540 l       *ABS*	00000000 GPDI16
00001544 l       *ABS*	00000000 GPDI17
00001548 l       *ABS*	00000000 GPDI18
0000154c l       *ABS*	00000000 GPDI19
00001550 l       *ABS*	00000000 GPDI20
00001554 l       *ABS*	00000000 GPDI21
00001558 l       *ABS*	00000000 GPDI22
0000155c l       *ABS*	00000000 GPDI23
00001560 l       *ABS*	00000000 GPDI24
00001564 l       *ABS*	00000000 GPDI25
00001568 l       *ABS*	00000000 GPDI26
0000156c l       *ABS*	00000000 GPDI27
00001570 l       *ABS*	00000000 GPDI28
00001574 l       *ABS*	00000000 GPDI29
00001578 l       *ABS*	00000000 GPDI30
0000157c l       *ABS*	00000000 GPDI31
00001580 l       *ABS*	00000000 GPDI32
00001584 l       *ABS*	00000000 GPDI33
00001588 l       *ABS*	00000000 GPDI34
0000158c l       *ABS*	00000000 GPDI35
00001590 l       *ABS*	00000000 GPDI36
00001594 l       *ABS*	00000000 GPDI37
00001598 l       *ABS*	00000000 GPDI38
0000159c l       *ABS*	00000000 GPDI39
00001700 l       *ABS*	00000000 PGPDO0
00001704 l       *ABS*	00000000 PGPDO1
00001708 l       *ABS*	00000000 PGPDO2
0000170c l       *ABS*	00000000 PGPDO3
00001710 l       *ABS*	00000000 PGPDO4
00001700 l       *ABS*	00000000 POUT_A
00001702 l       *ABS*	00000000 POUT_B
00001704 l       *ABS*	00000000 POUT_C
00001706 l       *ABS*	00000000 POUT_D
00001708 l       *ABS*	00000000 POUT_E
0000170a l       *ABS*	00000000 POUT_F
0000170c l       *ABS*	00000000 POUT_G
0000170e l       *ABS*	00000000 POUT_H
00001710 l       *ABS*	00000000 POUT_I
00001712 l       *ABS*	00000000 POUT_J
00001740 l       *ABS*	00000000 PGPDI0
00001744 l       *ABS*	00000000 PGPDI1
00001748 l       *ABS*	00000000 PGPDI2
0000174c l       *ABS*	00000000 PGPDI3
00001750 l       *ABS*	00000000 PGPDI4
00001740 l       *ABS*	00000000 PIN_A
00001742 l       *ABS*	00000000 PIN_B
00001744 l       *ABS*	00000000 PIN_C
00001746 l       *ABS*	00000000 PIN_D
00001748 l       *ABS*	00000000 PIN_E
0000174a l       *ABS*	00000000 PIN_F
0000174c l       *ABS*	00000000 PIN_G
0000174e l       *ABS*	00000000 PIN_H
00001750 l       *ABS*	00000000 PIN_I
00001752 l       *ABS*	00000000 PIN_J
00000240 l       *ABS*	00000000 MCSR_A0
00000244 l       *ABS*	00000000 MCSR_A1
00000248 l       *ABS*	00000000 MCSR_A2
0000024c l       *ABS*	00000000 MCSR_A3
00000250 l       *ABS*	00000000 MCSR_A4
00000254 l       *ABS*	00000000 MCSR_A5
00000258 l       *ABS*	00000000 MCSR_A6
0000025c l       *ABS*	00000000 MCSR_A7
00000260 l       *ABS*	00000000 MCSR_A8
00000264 l       *ABS*	00000000 MCSR_A9
00000268 l       *ABS*	00000000 MCSR_A10
0000026c l       *ABS*	00000000 MCSR_A11
00000270 l       *ABS*	00000000 MCSR_A12
00000274 l       *ABS*	00000000 MCSR_A13
00000278 l       *ABS*	00000000 MCSR_A14
0000027c l       *ABS*	00000000 MCSR_A15
00000280 l       *ABS*	00000000 MCSR_B0
00000284 l       *ABS*	00000000 MCSR_B1
00000288 l       *ABS*	00000000 MCSR_B2
0000028c l       *ABS*	00000000 MCSR_B3
00000290 l       *ABS*	00000000 MCSR_B4
00000294 l       *ABS*	00000000 MCSR_B5
00000298 l       *ABS*	00000000 MCSR_B6
0000029c l       *ABS*	00000000 MCSR_B7
000002a0 l       *ABS*	00000000 MCSR_B8
000002a4 l       *ABS*	00000000 MCSR_B9
000002a8 l       *ABS*	00000000 MCSR_B10
000002ac l       *ABS*	00000000 MCSR_B11
000002b0 l       *ABS*	00000000 MCSR_B12
000002b4 l       *ABS*	00000000 MCSR_B13
000002b8 l       *ABS*	00000000 MCSR_B14
000002bc l       *ABS*	00000000 MCSR_B15
000002c0 l       *ABS*	00000000 MCSR_C0
000002c4 l       *ABS*	00000000 MCSR_C1
000002c8 l       *ABS*	00000000 MCSR_C2
000002cc l       *ABS*	00000000 MCSR_C3
000002d0 l       *ABS*	00000000 MCSR_C4
000002d4 l       *ABS*	00000000 MCSR_C5
000002d8 l       *ABS*	00000000 MCSR_C6
000002dc l       *ABS*	00000000 MCSR_C7
000002e0 l       *ABS*	00000000 MCSR_C8
000002e4 l       *ABS*	00000000 MCSR_C9
000002e8 l       *ABS*	00000000 MCSR_C10
000002ec l       *ABS*	00000000 MCSR_C11
000002f0 l       *ABS*	00000000 MCSR_C12
000002f4 l       *ABS*	00000000 MCSR_C13
000002f8 l       *ABS*	00000000 MCSR_C14
000002fc l       *ABS*	00000000 MCSR_C15
00000300 l       *ABS*	00000000 MCSR_D0
00000304 l       *ABS*	00000000 MCSR_D1
00000308 l       *ABS*	00000000 MCSR_D2
0000030c l       *ABS*	00000000 MCSR_D3
00000310 l       *ABS*	00000000 MCSR_D4
00000314 l       *ABS*	00000000 MCSR_D5
00000318 l       *ABS*	00000000 MCSR_D6
0000031c l       *ABS*	00000000 MCSR_D7
00000320 l       *ABS*	00000000 MCSR_D8
00000324 l       *ABS*	00000000 MCSR_D9
00000328 l       *ABS*	00000000 MCSR_D10
0000032c l       *ABS*	00000000 MCSR_D11
00000330 l       *ABS*	00000000 MCSR_D12
00000334 l       *ABS*	00000000 MCSR_D13
00000338 l       *ABS*	00000000 MCSR_D14
0000033c l       *ABS*	00000000 MCSR_D15
00000340 l       *ABS*	00000000 MCSR_E0
00000344 l       *ABS*	00000000 MCSR_E1
00000348 l       *ABS*	00000000 MCSR_E2
0000034c l       *ABS*	00000000 MCSR_E3
00000350 l       *ABS*	00000000 MCSR_E4
00000354 l       *ABS*	00000000 MCSR_E5
00000358 l       *ABS*	00000000 MCSR_E6
0000035c l       *ABS*	00000000 MCSR_E7
00000360 l       *ABS*	00000000 MCSR_E8
00000364 l       *ABS*	00000000 MCSR_E9
00000368 l       *ABS*	00000000 MCSR_E10
0000036c l       *ABS*	00000000 MCSR_E11
00000370 l       *ABS*	00000000 MCSR_E12
00000374 l       *ABS*	00000000 MCSR_E13
00000378 l       *ABS*	00000000 MCSR_E14
0000037c l       *ABS*	00000000 MCSR_E15
00000380 l       *ABS*	00000000 MCSR_F0
00000384 l       *ABS*	00000000 MCSR_F1
00000388 l       *ABS*	00000000 MCSR_F2
0000038c l       *ABS*	00000000 MCSR_F3
00000390 l       *ABS*	00000000 MCSR_F4
00000394 l       *ABS*	00000000 MCSR_F5
00000398 l       *ABS*	00000000 MCSR_F6
0000039c l       *ABS*	00000000 MCSR_F7
000003a0 l       *ABS*	00000000 MCSR_F8
000003a4 l       *ABS*	00000000 MCSR_F9
000003a8 l       *ABS*	00000000 MCSR_F10
000003ac l       *ABS*	00000000 MCSR_F11
000003b0 l       *ABS*	00000000 MCSR_F12
000003b4 l       *ABS*	00000000 MCSR_F13
000003b8 l       *ABS*	00000000 MCSR_F14
000003bc l       *ABS*	00000000 MCSR_F15
000003c0 l       *ABS*	00000000 MCSR_G0
000003c4 l       *ABS*	00000000 MCSR_G1
000003c8 l       *ABS*	00000000 MCSR_G2
000003cc l       *ABS*	00000000 MCSR_G3
000003d0 l       *ABS*	00000000 MCSR_G4
000003d4 l       *ABS*	00000000 MCSR_G5
000003d8 l       *ABS*	00000000 MCSR_G6
000003dc l       *ABS*	00000000 MCSR_G7
000003e0 l       *ABS*	00000000 MCSR_G8
000003e4 l       *ABS*	00000000 MCSR_G9
000003e8 l       *ABS*	00000000 MCSR_G10
000003ec l       *ABS*	00000000 MCSR_G11
000003f0 l       *ABS*	00000000 MCSR_G12
000003f4 l       *ABS*	00000000 MCSR_G13
000003f8 l       *ABS*	00000000 MCSR_G14
000003fc l       *ABS*	00000000 MCSR_G15
00000400 l       *ABS*	00000000 MCSR_H0
00000404 l       *ABS*	00000000 MCSR_H1
00000408 l       *ABS*	00000000 MCSR_H2
0000040c l       *ABS*	00000000 MCSR_H3
00000410 l       *ABS*	00000000 MCSR_H4
00000414 l       *ABS*	00000000 MCSR_H5
00000418 l       *ABS*	00000000 MCSR_H6
0000041c l       *ABS*	00000000 MCSR_H7
00000420 l       *ABS*	00000000 MCSR_H8
00000424 l       *ABS*	00000000 MCSR_H9
00000428 l       *ABS*	00000000 MCSR_H10
0000042c l       *ABS*	00000000 MCSR_H11
00000430 l       *ABS*	00000000 MCSR_H12
00000434 l       *ABS*	00000000 MCSR_H13
00000438 l       *ABS*	00000000 MCSR_H14
0000043c l       *ABS*	00000000 MCSR_H15
00000440 l       *ABS*	00000000 MCSR_I0
00000444 l       *ABS*	00000000 MCSR_I1
00000448 l       *ABS*	00000000 MCSR_I2
0000044c l       *ABS*	00000000 MCSR_I3
00000450 l       *ABS*	00000000 MCSR_I4
00000454 l       *ABS*	00000000 MCSR_I5
00000458 l       *ABS*	00000000 MCSR_I6
0000045c l       *ABS*	00000000 MCSR_I7
00000460 l       *ABS*	00000000 MCSR_I8
00000464 l       *ABS*	00000000 MCSR_I9
00000468 l       *ABS*	00000000 MCSR_I10
0000046c l       *ABS*	00000000 MCSR_I11
00000470 l       *ABS*	00000000 MCSR_I12
00000474 l       *ABS*	00000000 MCSR_I13
00000478 l       *ABS*	00000000 MCSR_I14
0000047c l       *ABS*	00000000 MCSR_I15
00000480 l       *ABS*	00000000 MCSR_J0
00000484 l       *ABS*	00000000 MCSR_J1
00000488 l       *ABS*	00000000 MCSR_J2
0000048c l       *ABS*	00000000 MCSR_J3
00000490 l       *ABS*	00000000 MCSR_J4
00000494 l       *ABS*	00000000 MCSR_J5
00000498 l       *ABS*	00000000 MCSR_J6
0000049c l       *ABS*	00000000 MCSR_J7
000004a0 l       *ABS*	00000000 MCSR_J8
000004a4 l       *ABS*	00000000 MCSR_J9
000004a8 l       *ABS*	00000000 MCSR_J10
000004ac l       *ABS*	00000000 MCSR_J11
000004b0 l       *ABS*	00000000 MCSR_J12
000004b4 l       *ABS*	00000000 MCSR_J13
000004b8 l       *ABS*	00000000 MCSR_J14
000004bc l       *ABS*	00000000 MCSR_J15
00000003 l       *ABS*	00000000 MCSR_UNCONNECT
00000088 l       *ABS*	00000000 MCSR_INPUT
00000089 l       *ABS*	00000000 MCSR_INPUT_PU
0000008a l       *ABS*	00000000 MCSR_INPUT_PD
00002288 l       *ABS*	00000000 MCSR_OUTPUT
00002188 l       *ABS*	00000000 MCSR_OUTPUT_OD
0000f405 l       *ABS*	00000000 SWT_BASE
00008000 l       *ABS*	00000000 SWT_CR
00008004 l       *ABS*	00000000 SWT_IR
00008008 l       *ABS*	00000000 SWT_TO
0000800c l       *ABS*	00000000 SWT_WN
00008010 l       *ABS*	00000000 SWT_SR
00008014 l       *ABS*	00000000 SWT_CO
00008018 l       *ABS*	00000000 SWT_SK
0000f7fb l       *ABS*	00000000 ME_BASE
00008000 l       *ABS*	00000000 ME_GS
00008004 l       *ABS*	00000000 ME_MCTL
00008008 l       *ABS*	00000000 ME_ME
0000800c l       *ABS*	00000000 ME_MIS
00008010 l       *ABS*	00000000 ME_IM
00008014 l       *ABS*	00000000 ME_IMTS
00008018 l       *ABS*	00000000 ME_DMTS
00008080 l       *ABS*	00000000 ME_RUN_PC0
00008084 l       *ABS*	00000000 ME_RUN_PC1
00008088 l       *ABS*	00000000 ME_RUN_PC2
0000808c l       *ABS*	00000000 ME_RUN_PC3
00008090 l       *ABS*	00000000 ME_RUN_PC4
00008094 l       *ABS*	00000000 ME_RUN_PC5
00008098 l       *ABS*	00000000 ME_RUN_PC6
0000809c l       *ABS*	00000000 ME_RUN_PC7
0000802c l       *ABS*	00000000 ME_DRUN_MC
0000c3fe l       *ABS*	00000000 FMPLL_BASE
000000a0 l       *ABS*	00000000 FMPLL0_CR
000000c0 l       *ABS*	00000000 FMPLL1_CR
0000ffe4 l       *ABS*	00000000 LINFLEX0_BASE
00000000 l       *ABS*	00000000 LINFLEX0_LINCR1
00000010 l       *ABS*	00000000 LINFLEX0_UARTCR
00000014 l       *ABS*	00000000 LINFLEX0_UARTSR
00000028 l       *ABS*	00000000 LINFLEX0_LINBRR
0000002c l       *ABS*	00000000 LINFLEX0_LINBFRR
00000038 l       *ABS*	00000000 LINFLEX0_BRDL
0000003c l       *ABS*	00000000 LINFLEX0_BRDM
0000f7fe l       *ABS*	00000000 FLASH_BASE
00000000 l       *ABS*	00000000 FLASH_MCR
00000004 l       *ABS*	00000000 FLASH_MCRA
00000008 l       *ABS*	00000000 FLASH_MCRE
00000010 l       *ABS*	00000000 FLASH_LOCK0
00000014 l       *ABS*	00000000 FLASH_LOCK1
00000018 l       *ABS*	00000000 FLASH_LOCK2
0000001c l       *ABS*	00000000 FLASH_LOCK3
00000028 l       *ABS*	00000000 FLASH_LOCK0A
0000002c l       *ABS*	00000000 FLASH_LOCK1A
00000038 l       *ABS*	00000000 FLASH_SEL0
0000003c l       *ABS*	00000000 FLASH_SEL1
00000040 l       *ABS*	00000000 FLASH_SEL2
00000044 l       *ABS*	00000000 FLASH_SEL3
0000004c l       *ABS*	00000000 FLASH_PAR
00000050 l       *ABS*	00000000 FLASH_ADR
00000054 l       *ABS*	00000000 FLASH_UT0
00000058 l       *ABS*	00000000 FLASH_UM0
0000005c l       *ABS*	00000000 FLASH_UM1
00000060 l       *ABS*	00000000 FLASH_UM2
00000064 l       *ABS*	00000000 FLASH_UM3
00000068 l       *ABS*	00000000 FLASH_UM4
0000006c l       *ABS*	00000000 FLASH_UM5
00000070 l       *ABS*	00000000 FLASH_UM6
00000074 l       *ABS*	00000000 FLASH_UM7
00000078 l       *ABS*	00000000 FLASH_UM8
0000007c l       *ABS*	00000000 FLASH_UM9
00000080 l       *ABS*	00000000 FLASH_OPP0
00000084 l       *ABS*	00000000 FLASH_OPP1
00000088 l       *ABS*	00000000 FLASH_OPP2
0000008c l       *ABS*	00000000 FLASH_OPP3
00000090 l       *ABS*	00000000 FLASH_TMD
00000094 l       *ABS*	00000000 FLASH_ALTSEL0
00000098 l       *ABS*	00000000 FLASH_ALTSEL1
00000100 l       *ABS*	00000000 FLASH_ELOCK0
00000104 l       *ABS*	00000000 FLASH_ELOCK1
00000108 l       *ABS*	00000000 FLASH_ELOCK2
0000010c l       *ABS*	00000000 FLASH_ELOCK3
00000110 l       *ABS*	00000000 FLASH_PLOCK0
00000114 l       *ABS*	00000000 FLASH_PLOCK1
00000118 l       *ABS*	00000000 FLASH_PLOCK2
0000011c l       *ABS*	00000000 FLASH_PLOCK3
fff48000 l       *ABS*	00000000 INTC_BASE
fff48010 l       *ABS*	00000000 INTC_IACKR
fff48018 l       *ABS*	00000000 INTC_EOIR
00000800 l       *ABS*	00000000 block_size
00000001 l       *ABS*	00000000 DEBUG_LED
0060c100 l       .text	00000000 main_start
0060c16e l       .text	00000000 rfill_1
0060c1a4 l       .text	00000000 loop
0060c1a8 l       .text	00000000 w1
0060c1bc l       .text	00000000 w2
52800000 g       .data	00000000 __data_start__
52808000 g       .data	00000000 __sdata_start__
006141f0 g       .text	00000000 __sdata2_start__
00000000 g       *ABS*	00000000 _reset_address
52800000 g       .data	00000000 __heap_base__
0060c1f0 g       .text	00000000 __romdata_start__
52800000 g       .stacks	00000000 __main_thread_stack_end__
52810000 g       *ABS*	00000000 __heap_end__
52800000 g       .data	00000000 __bss_start__
00024000 g       *ABS*	00000000 __flash_size__
52800000 g       .data	00000000 __data_end__
52800000 g       .data	00000000 __bss_end__
0060c000 g       .text	00000000 _start
00000000 g       *ABS*	00000000 __irq_stack_size__
00630000 g       *ABS*	00000000 __flash_end__
00010000 g       *ABS*	00000000 __ram_size__
52800000 g       .text	00000000 __ram_start__
52800000 g       .stacks	00000000 __process_stack_base__
52800000 g       .stacks	00000000 __irq_stack_end__
52810000 g       *ABS*	00000000 __ram_end__
52800000 g       .stacks	00000000 __irq_stack_base__
52800000 g       .stacks	00000000 __main_thread_stack_base__
0060c000 g       .text	00000000 __flash_start__
52800000 g       .stacks	00000000 __process_stack_end__
00000000 g       *ABS*	00000000 __process_stack_size__



Disassembly of section .text:

0060c000 <__flash_start__>:
	...

0060c100 <main_start>:
  60c100:	73 1e e4 05 	e_lis   r24,62469
  60c104:	73 30 00 10 	e_li    r25,32784
  60c108:	44 89       	se_or   r25,r24
  60c10a:	73 98 05 20 	e_li    r28,50464
  60c10e:	57 99 00 00 	e_stw   r28,0(r25)
  60c112:	73 9b 01 28 	e_li    r28,55592
  60c116:	57 99 00 00 	e_stw   r28,0(r25)
  60c11a:	73 30 00 00 	e_li    r25,32768
  60c11e:	44 89       	se_or   r25,r24
  60c120:	53 99 00 00 	e_lwz   r28,0(r25)
  60c124:	77 9c 00 3d 	e_rlwinm r28,r28,0,0,30
  60c128:	57 99 00 00 	e_stw   r28,0(r25)
  60c12c:	73 1e e7 fb 	e_lis   r24,63483
  60c130:	73 30 00 80 	e_li    r25,32896
  60c134:	44 89       	se_or   r25,r24
  60c136:	73 80 00 fe 	e_li    r28,254
  60c13a:	57 99 00 00 	e_stw   r28,0(r25)
  60c13e:	73 30 00 04 	e_li    r25,32772
  60c142:	44 89       	se_or   r25,r24
  60c144:	73 a6 e0 00 	e_lis   r29,12288
  60c148:	73 8b 02 f0 	e_li    r28,23280
  60c14c:	44 dc       	se_or   r28,r29
  60c14e:	d0 c9       	se_stw  r28,0(r25)
  60c150:	73 94 05 0f 	e_li    r28,42255
  60c154:	44 dc       	se_or   r28,r29
  60c156:	d0 c9       	se_stw  r28,0(r25)
  60c158:	73 8a e2 80 	e_lis   r28,21120
  60c15c:	73 a1 00 00 	e_li    r29,2048
  60c160:	44 dc       	se_or   r28,r29
  60c162:	73 c0 00 00 	e_li    r30,0
  60c166:	73 e0 00 00 	e_li    r31,0
  60c16a:	73 60 00 00 	e_li    r27,0

0060c16e <rfill_1>:
  60c16e:	1b dc 09 00 	e_stmw  r30,0(r28)
  60c172:	1f 9c 00 08 	e_add16i r28,r28,8
  60c176:	1f 7b 00 01 	e_add16i r27,r27,1
  60c17a:	70 7b 9f 00 	e_cmp16i r27,7936
  60c17e:	e2 f8       	se_bne  60c16e <rfill_1>
  60c180:	70 2a e2 80 	e_lis   r1,21120
  60c184:	73 3f 07 fc 	e_li    r25,65532
  60c188:	44 91       	se_or   r1,r25
  60c18a:	73 3e e7 fc 	e_lis   r25,63484
  60c18e:	73 84 e2 88 	e_lis   r28,8840
  60c192:	57 99 04 44 	e_stw   r28,1092(r25)
  60c196:	57 99 04 48 	e_stw   r28,1096(r25)
  60c19a:	70 ca e2 80 	e_lis   r6,21120
  60c19e:	70 a0 00 80 	e_li    r5,128
  60c1a2:	44 56       	se_or   r6,r5

0060c1a4 <loop>:
  60c1a4:	70 60 e0 08 	e_lis   r3,8

0060c1a8 <w1>:
  60c1a8:	26 03       	se_subi. r3,1
  60c1aa:	e2 ff       	se_bne  60c1a8 <w1>
  60c1ac:	48 1c       	se_li   r28,1
  60c1ae:	37 99 13 81 	e_stb   r28,4993(r25)
  60c1b2:	48 0c       	se_li   r28,0
  60c1b4:	37 99 13 82 	e_stb   r28,4994(r25)
  60c1b8:	70 60 e0 08 	e_lis   r3,8

0060c1bc <w2>:
  60c1bc:	26 03       	se_subi. r3,1
  60c1be:	e2 ff       	se_bne  60c1bc <w2>
  60c1c0:	50 f9 17 10 	e_lwz   r7,5904(r25)
  60c1c4:	d2 76       	se_stw  r7,8(r6)
  60c1c6:	48 0c       	se_li   r28,0
  60c1c8:	37 99 13 81 	e_stb   r28,4993(r25)
  60c1cc:	48 1c       	se_li   r28,1
  60c1ce:	37 99 13 82 	e_stb   r28,4994(r25)
  60c1d2:	50 f9 00 04 	e_lwz   r7,4(r25)
  60c1d6:	d0 76       	se_stw  r7,0(r6)
  60c1d8:	50 f9 00 08 	e_lwz   r7,8(r25)
  60c1dc:	d1 76       	se_stw  r7,4(r6)
  60c1de:	50 f9 04 44 	e_lwz   r7,1092(r25)
  60c1e2:	d2 76       	se_stw  r7,8(r6)
  60c1e4:	50 f9 17 10 	e_lwz   r7,5904(r25)
  60c1e8:	d3 76       	se_stw  r7,12(r6)
  60c1ea:	e8 dd       	se_b    60c1a4 <loop>

Disassembly of section .PPC.EMB.apuinfo:

00000000 <.PPC.EMB.apuinfo>:
   0:	00 00 00 08 	.long 0x8
   4:	00 00 00 04 	.long 0x4
   8:	00 00 00 02 	.long 0x2
   c:	41 50 55 69 	bdztl   4*cr4+lt,5574 <MCSR_OUTPUT+0x32ec>
  10:	6e 66 6f 00 	xoris   r6,r19,28416
  14:	01 04 00 01 	.long 0x1040001

boot.elf:     file format elf32-powerpc
boot.elf
architecture: powerpc:common, flags 0x00000112:
EXEC_P, HAS_SYMS, D_PAGED
start address 0x00000000

Program Header:
    LOAD off    0x00000000 vaddr 0x00600000 paddr 0x00600000 align 2**16
         filesz 0x0000c1f0 memsz 0x0000c1f0 flags r-x
    LOAD off    0x00010000 vaddr 0x52800000 paddr 0x0060c1f0 align 2**16
         filesz 0x00000000 memsz 0x00000000 flags rw-

Sections:
Idx Name          Size      VMA       LMA       File off  Algn
  0 .text         000001f0  0060c000  0060c000  0000c000  2**4
                  CONTENTS, ALLOC, LOAD, READONLY, CODE, VLE
  1 .stacks       00000000  52800000  52800000  00010000  2**0
                  CONTENTS
  2 .data         00000000  52800000  0060c1f0  00010000  2**0
                  CONTENTS, ALLOC, LOAD, DATA
  3 .PPC.EMB.apuinfo 00000018  00000000  00000000  00010000  2**0
                  CONTENTS, READONLY
SYMBOL TABLE:
0060c000 l    d  .text	00000000 .text
52800000 l    d  .stacks	00000000 .stacks
52800000 l    d  .data	00000000 .data
00000000 l    d  .PPC.EMB.apuinfo	00000000 .PPC.EMB.apuinfo
00000000 l    df *ABS*	00000000 build/src/boot.o
00000000 l       *ABS*	00000000 r0
00000001 l       *ABS*	00000000 r1
00000001 l       *ABS*	00000000 rsp
00000002 l       *ABS*	00000000 r2
00000003 l       *ABS*	00000000 r3
00000004 l       *ABS*	00000000 r4
00000005 l       *ABS*	00000000 r5
00000006 l       *ABS*	00000000 r6
00000007 l       *ABS*	00000000 r7
00000008 l       *ABS*	00000000 r8
00000009 l       *ABS*	00000000 r9
0000000a l       *ABS*	00000000 r10
0000000b l       *ABS*	00000000 r11
0000000c l       *ABS*	00000000 r12
0000000d l       *ABS*	00000000 r13
0000000e l       *ABS*	00000000 r14
0000000f l       *ABS*	00000000 r15
00000010 l       *ABS*	00000000 r16
00000011 l       *ABS*	00000000 r17
00000012 l       *ABS*	00000000 r18
00000013 l       *ABS*	00000000 r19
00000014 l       *ABS*	00000000 r20
00000015 l       *ABS*	00000000 r21
00000016 l       *ABS*	00000000 r22
00000017 l       *ABS*	00000000 r23
00000018 l       *ABS*	00000000 r24
00000019 l       *ABS*	00000000 r25
0000001a l       *ABS*	00000000 r26
0000001b l       *ABS*	00000000 r27
0000001c l       *ABS*	00000000 r28
0000001d l       *ABS*	00000000 r29
0000001e l       *ABS*	00000000 r30
0000001f l       *ABS*	00000000 r31
0000f7fc l       *ABS*	00000000 SIUL_BASE
00001300 l       *ABS*	00000000 GPDO0
00001304 l       *ABS*	00000000 GPDO1
00001308 l       *ABS*	00000000 GPDO2
0000130c l       *ABS*	00000000 GPDO3
00001310 l       *ABS*	00000000 GPDO4
00001314 l       *ABS*	00000000 GPDO5
00001318 l       *ABS*	00000000 GPDO6
0000131c l       *ABS*	00000000 GPDO7
00001320 l       *ABS*	00000000 GPDO8
00001324 l       *ABS*	00000000 GPDO9
00001328 l       *ABS*	00000000 GPDO10
0000132c l       *ABS*	00000000 GPDO11
00001330 l       *ABS*	00000000 GPDO12
00001334 l       *ABS*	00000000 GPDO13
00001338 l       *ABS*	00000000 GPDO14
0000133c l       *ABS*	00000000 GPDO15
00001340 l       *ABS*	00000000 GPDO16
00001344 l       *ABS*	00000000 GPDO17
00001348 l       *ABS*	00000000 GPDO18
0000134c l       *ABS*	00000000 GPDO19
00001350 l       *ABS*	00000000 GPDO20
00001354 l       *ABS*	00000000 GPDO21
00001358 l       *ABS*	00000000 GPDO22
0000135c l       *ABS*	00000000 GPDO23
00001360 l       *ABS*	00000000 GPDO24
00001364 l       *ABS*	00000000 GPDO25
00001368 l       *ABS*	00000000 GPDO26
0000136c l       *ABS*	00000000 GPDO27
00001370 l       *ABS*	00000000 GPDO28
00001374 l       *ABS*	00000000 GPDO29
00001378 l       *ABS*	00000000 GPDO30
0000137c l       *ABS*	00000000 GPDO31
00001380 l       *ABS*	00000000 GPDO32
00001384 l       *ABS*	00000000 GPDO33
00001388 l       *ABS*	00000000 GPDO34
0000138c l       *ABS*	00000000 GPDO35
00001390 l       *ABS*	00000000 GPDO36
00001394 l       *ABS*	00000000 GPDO37
00001398 l       *ABS*	00000000 GPDO38
0000139c l       *ABS*	00000000 GPDO39
00001500 l       *ABS*	00000000 GPDI0
00001504 l       *ABS*	00000000 GPDI1
00001508 l       *ABS*	00000000 GPDI2
0000150c l       *ABS*	00000000 GPDI3
00001510 l       *ABS*	00000000 GPDI4
00001514 l       *ABS*	00000000 GPDI5
00001518 l       *ABS*	00000000 GPDI6
0000151c l       *ABS*	00000000 GPDI7
00001520 l       *ABS*	00000000 GPDI8
00001524 l       *ABS*	00000000 GPDI9
00001528 l       *ABS*	00000000 GPDI10
0000152c l       *ABS*	00000000 GPDI11
00001530 l       *ABS*	00000000 GPDI12
00001534 l       *ABS*	00000000 GPDI13
00001538 l       *ABS*	00000000 GPDI14
0000153c l       *ABS*	00000000 GPDI15
00001540 l       *ABS*	00000000 GPDI16
00001544 l       *ABS*	00000000 GPDI17
00001548 l       *ABS*	00000000 GPDI18
0000154c l       *ABS*	00000000 GPDI19
00001550 l       *ABS*	00000000 GPDI20
00001554 l       *ABS*	00000000 GPDI21
00001558 l       *ABS*	00000000 GPDI22
0000155c l       *ABS*	00000000 GPDI23
00001560 l       *ABS*	00000000 GPDI24
00001564 l       *ABS*	00000000 GPDI25
00001568 l       *ABS*	00000000 GPDI26
0000156c l       *ABS*	00000000 GPDI27
00001570 l       *ABS*	00000000 GPDI28
00001574 l       *ABS*	00000000 GPDI29
00001578 l       *ABS*	00000000 GPDI30
0000157c l       *ABS*	00000000 GPDI31
00001580 l       *ABS*	00000000 GPDI32
00001584 l       *ABS*	00000000 GPDI33
00001588 l       *ABS*	00000000 GPDI34
0000158c l       *ABS*	00000000 GPDI35
00001590 l       *ABS*	00000000 GPDI36
00001594 l       *ABS*	00000000 GPDI37
00001598 l       *ABS*	00000000 GPDI38
0000159c l       *ABS*	00000000 GPDI39
00001700 l       *ABS*	00000000 PGPDO0
00001704 l       *ABS*	00000000 PGPDO1
00001708 l       *ABS*	00000000 PGPDO2
0000170c l       *ABS*	00000000 PGPDO3
00001710 l       *ABS*	00000000 PGPDO4
00001700 l       *ABS*	00000000 POUT_A
00001702 l       *ABS*	00000000 POUT_B
00001704 l       *ABS*	00000000 POUT_C
00001706 l       *ABS*	00000000 POUT_D
00001708 l       *ABS*	00000000 POUT_E
0000170a l       *ABS*	00000000 POUT_F
0000170c l       *ABS*	00000000 POUT_G
0000170e l       *ABS*	00000000 POUT_H
00001710 l       *ABS*	00000000 POUT_I
00001712 l       *ABS*	00000000 POUT_J
00001740 l       *ABS*	00000000 PGPDI0
00001744 l       *ABS*	00000000 PGPDI1
00001748 l       *ABS*	00000000 PGPDI2
0000174c l       *ABS*	00000000 PGPDI3
00001750 l       *ABS*	00000000 PGPDI4
00001740 l       *ABS*	00000000 PIN_A
00001742 l       *ABS*	00000000 PIN_B
00001744 l       *ABS*	00000000 PIN_C
00001746 l       *ABS*	00000000 PIN_D
00001748 l       *ABS*	00000000 PIN_E
0000174a l       *ABS*	00000000 PIN_F
0000174c l       *ABS*	00000000 PIN_G
0000174e l       *ABS*	00000000 PIN_H
00001750 l       *ABS*	00000000 PIN_I
00001752 l       *ABS*	00000000 PIN_J
00000240 l       *ABS*	00000000 MCSR_A0
00000244 l       *ABS*	00000000 MCSR_A1
00000248 l       *ABS*	00000000 MCSR_A2
0000024c l       *ABS*	00000000 MCSR_A3
00000250 l       *ABS*	00000000 MCSR_A4
00000254 l       *ABS*	00000000 MCSR_A5
00000258 l       *ABS*	00000000 MCSR_A6
0000025c l       *ABS*	00000000 MCSR_A7
00000260 l       *ABS*	00000000 MCSR_A8
00000264 l       *ABS*	00000000 MCSR_A9
00000268 l       *ABS*	00000000 MCSR_A10
0000026c l       *ABS*	00000000 MCSR_A11
00000270 l       *ABS*	00000000 MCSR_A12
00000274 l       *ABS*	00000000 MCSR_A13
00000278 l       *ABS*	00000000 MCSR_A14
0000027c l       *ABS*	00000000 MCSR_A15
00000280 l       *ABS*	00000000 MCSR_B0
00000284 l       *ABS*	00000000 MCSR_B1
00000288 l       *ABS*	00000000 MCSR_B2
0000028c l       *ABS*	00000000 MCSR_B3
00000290 l       *ABS*	00000000 MCSR_B4
00000294 l       *ABS*	00000000 MCSR_B5
00000298 l       *ABS*	00000000 MCSR_B6
0000029c l       *ABS*	00000000 MCSR_B7
000002a0 l       *ABS*	00000000 MCSR_B8
000002a4 l       *ABS*	00000000 MCSR_B9
000002a8 l       *ABS*	00000000 MCSR_B10
000002ac l       *ABS*	00000000 MCSR_B11
000002b0 l       *ABS*	00000000 MCSR_B12
000002b4 l       *ABS*	00000000 MCSR_B13
000002b8 l       *ABS*	00000000 MCSR_B14
000002bc l       *ABS*	00000000 MCSR_B15
000002c0 l       *ABS*	00000000 MCSR_C0
000002c4 l       *ABS*	00000000 MCSR_C1
000002c8 l       *ABS*	00000000 MCSR_C2
000002cc l       *ABS*	00000000 MCSR_C3
000002d0 l       *ABS*	00000000 MCSR_C4
000002d4 l       *ABS*	00000000 MCSR_C5
000002d8 l       *ABS*	00000000 MCSR_C6
000002dc l       *ABS*	00000000 MCSR_C7
000002e0 l       *ABS*	00000000 MCSR_C8
000002e4 l       *ABS*	00000000 MCSR_C9
000002e8 l       *ABS*	00000000 MCSR_C10
000002ec l       *ABS*	00000000 MCSR_C11
000002f0 l       *ABS*	00000000 MCSR_C12
000002f4 l       *ABS*	00000000 MCSR_C13
000002f8 l       *ABS*	00000000 MCSR_C14
000002fc l       *ABS*	00000000 MCSR_C15
00000300 l       *ABS*	00000000 MCSR_D0
00000304 l       *ABS*	00000000 MCSR_D1
00000308 l       *ABS*	00000000 MCSR_D2
0000030c l       *ABS*	00000000 MCSR_D3
00000310 l       *ABS*	00000000 MCSR_D4
00000314 l       *ABS*	00000000 MCSR_D5
00000318 l       *ABS*	00000000 MCSR_D6
0000031c l       *ABS*	00000000 MCSR_D7
00000320 l       *ABS*	00000000 MCSR_D8
00000324 l       *ABS*	00000000 MCSR_D9
00000328 l       *ABS*	00000000 MCSR_D10
0000032c l       *ABS*	00000000 MCSR_D11
00000330 l       *ABS*	00000000 MCSR_D12
00000334 l       *ABS*	00000000 MCSR_D13
00000338 l       *ABS*	00000000 MCSR_D14
0000033c l       *ABS*	00000000 MCSR_D15
00000340 l       *ABS*	00000000 MCSR_E0
00000344 l       *ABS*	00000000 MCSR_E1
00000348 l       *ABS*	00000000 MCSR_E2
0000034c l       *ABS*	00000000 MCSR_E3
00000350 l       *ABS*	00000000 MCSR_E4
00000354 l       *ABS*	00000000 MCSR_E5
00000358 l       *ABS*	00000000 MCSR_E6
0000035c l       *ABS*	00000000 MCSR_E7
00000360 l       *ABS*	00000000 MCSR_E8
00000364 l       *ABS*	00000000 MCSR_E9
00000368 l       *ABS*	00000000 MCSR_E10
0000036c l       *ABS*	00000000 MCSR_E11
00000370 l       *ABS*	00000000 MCSR_E12
00000374 l       *ABS*	00000000 MCSR_E13
00000378 l       *ABS*	00000000 MCSR_E14
0000037c l       *ABS*	00000000 MCSR_E15
00000380 l       *ABS*	00000000 MCSR_F0
00000384 l       *ABS*	00000000 MCSR_F1
00000388 l       *ABS*	00000000 MCSR_F2
0000038c l       *ABS*	00000000 MCSR_F3
00000390 l       *ABS*	00000000 MCSR_F4
00000394 l       *ABS*	00000000 MCSR_F5
00000398 l       *ABS*	00000000 MCSR_F6
0000039c l       *ABS*	00000000 MCSR_F7
000003a0 l       *ABS*	00000000 MCSR_F8
000003a4 l       *ABS*	00000000 MCSR_F9
000003a8 l       *ABS*	00000000 MCSR_F10
000003ac l       *ABS*	00000000 MCSR_F11
000003b0 l       *ABS*	00000000 MCSR_F12
000003b4 l       *ABS*	00000000 MCSR_F13
000003b8 l       *ABS*	00000000 MCSR_F14
000003bc l       *ABS*	00000000 MCSR_F15
000003c0 l       *ABS*	00000000 MCSR_G0
000003c4 l       *ABS*	00000000 MCSR_G1
000003c8 l       *ABS*	00000000 MCSR_G2
000003cc l       *ABS*	00000000 MCSR_G3
000003d0 l       *ABS*	00000000 MCSR_G4
000003d4 l       *ABS*	00000000 MCSR_G5
000003d8 l       *ABS*	00000000 MCSR_G6
000003dc l       *ABS*	00000000 MCSR_G7
000003e0 l       *ABS*	00000000 MCSR_G8
000003e4 l       *ABS*	00000000 MCSR_G9
000003e8 l       *ABS*	00000000 MCSR_G10
000003ec l       *ABS*	00000000 MCSR_G11
000003f0 l       *ABS*	00000000 MCSR_G12
000003f4 l       *ABS*	00000000 MCSR_G13
000003f8 l       *ABS*	00000000 MCSR_G14
000003fc l       *ABS*	00000000 MCSR_G15
00000400 l       *ABS*	00000000 MCSR_H0
00000404 l       *ABS*	00000000 MCSR_H1
00000408 l       *ABS*	00000000 MCSR_H2
0000040c l       *ABS*	00000000 MCSR_H3
00000410 l       *ABS*	00000000 MCSR_H4
00000414 l       *ABS*	00000000 MCSR_H5
00000418 l       *ABS*	00000000 MCSR_H6
0000041c l       *ABS*	00000000 MCSR_H7
00000420 l       *ABS*	00000000 MCSR_H8
00000424 l       *ABS*	00000000 MCSR_H9
00000428 l       *ABS*	00000000 MCSR_H10
0000042c l       *ABS*	00000000 MCSR_H11
00000430 l       *ABS*	00000000 MCSR_H12
00000434 l       *ABS*	00000000 MCSR_H13
00000438 l       *ABS*	00000000 MCSR_H14
0000043c l       *ABS*	00000000 MCSR_H15
00000440 l       *ABS*	00000000 MCSR_I0
00000444 l       *ABS*	00000000 MCSR_I1
00000448 l       *ABS*	00000000 MCSR_I2
0000044c l       *ABS*	00000000 MCSR_I3
00000450 l       *ABS*	00000000 MCSR_I4
00000454 l       *ABS*	00000000 MCSR_I5
00000458 l       *ABS*	00000000 MCSR_I6
0000045c l       *ABS*	00000000 MCSR_I7
00000460 l       *ABS*	00000000 MCSR_I8
00000464 l       *ABS*	00000000 MCSR_I9
00000468 l       *ABS*	00000000 MCSR_I10
0000046c l       *ABS*	00000000 MCSR_I11
00000470 l       *ABS*	00000000 MCSR_I12
00000474 l       *ABS*	00000000 MCSR_I13
00000478 l       *ABS*	00000000 MCSR_I14
0000047c l       *ABS*	00000000 MCSR_I15
00000480 l       *ABS*	00000000 MCSR_J0
00000484 l       *ABS*	00000000 MCSR_J1
00000488 l       *ABS*	00000000 MCSR_J2
0000048c l       *ABS*	00000000 MCSR_J3
00000490 l       *ABS*	00000000 MCSR_J4
00000494 l       *ABS*	00000000 MCSR_J5
00000498 l       *ABS*	00000000 MCSR_J6
0000049c l       *ABS*	00000000 MCSR_J7
000004a0 l       *ABS*	00000000 MCSR_J8
000004a4 l       *ABS*	00000000 MCSR_J9
000004a8 l       *ABS*	00000000 MCSR_J10
000004ac l       *ABS*	00000000 MCSR_J11
000004b0 l       *ABS*	00000000 MCSR_J12
000004b4 l       *ABS*	00000000 MCSR_J13
000004b8 l       *ABS*	00000000 MCSR_J14
000004bc l       *ABS*	00000000 MCSR_J15
00000003 l       *ABS*	00000000 MCSR_UNCONNECT
00000088 l       *ABS*	00000000 MCSR_INPUT
00000089 l       *ABS*	00000000 MCSR_INPUT_PU
0000008a l       *ABS*	00000000 MCSR_INPUT_PD
00002288 l       *ABS*	00000000 MCSR_OUTPUT
00002188 l       *ABS*	00000000 MCSR_OUTPUT_OD
0000f405 l       *ABS*	00000000 SWT_BASE
00008000 l       *ABS*	00000000 SWT_CR
00008004 l       *ABS*	00000000 SWT_IR
00008008 l       *ABS*	00000000 SWT_TO
0000800c l       *ABS*	00000000 SWT_WN
00008010 l       *ABS*	00000000 SWT_SR
00008014 l       *ABS*	00000000 SWT_CO
00008018 l       *ABS*	00000000 SWT_SK
0000f7fb l       *ABS*	00000000 ME_BASE
00008000 l       *ABS*	00000000 ME_GS
00008004 l       *ABS*	00000000 ME_MCTL
00008008 l       *ABS*	00000000 ME_ME
0000800c l       *ABS*	00000000 ME_MIS
00008010 l       *ABS*	00000000 ME_IM
00008014 l       *ABS*	00000000 ME_IMTS
00008018 l       *ABS*	00000000 ME_DMTS
00008080 l       *ABS*	00000000 ME_RUN_PC0
00008084 l       *ABS*	00000000 ME_RUN_PC1
00008088 l       *ABS*	00000000 ME_RUN_PC2
0000808c l       *ABS*	00000000 ME_RUN_PC3
00008090 l       *ABS*	00000000 ME_RUN_PC4
00008094 l       *ABS*	00000000 ME_RUN_PC5
00008098 l       *ABS*	00000000 ME_RUN_PC6
0000809c l       *ABS*	00000000 ME_RUN_PC7
0000802c l       *ABS*	00000000 ME_DRUN_MC
0000c3fe l       *ABS*	00000000 FMPLL_BASE
000000a0 l       *ABS*	00000000 FMPLL0_CR
000000c0 l       *ABS*	00000000 FMPLL1_CR
0000ffe4 l       *ABS*	00000000 LINFLEX0_BASE
00000000 l       *ABS*	00000000 LINFLEX0_LINCR1
00000010 l       *ABS*	00000000 LINFLEX0_UARTCR
00000014 l       *ABS*	00000000 LINFLEX0_UARTSR
00000028 l       *ABS*	00000000 LINFLEX0_LINBRR
0000002c l       *ABS*	00000000 LINFLEX0_LINBFRR
00000038 l       *ABS*	00000000 LINFLEX0_BRDL
0000003c l       *ABS*	00000000 LINFLEX0_BRDM
0000f7fe l       *ABS*	00000000 FLASH_BASE
00000000 l       *ABS*	00000000 FLASH_MCR
00000004 l       *ABS*	00000000 FLASH_MCRA
00000008 l       *ABS*	00000000 FLASH_MCRE
00000010 l       *ABS*	00000000 FLASH_LOCK0
00000014 l       *ABS*	00000000 FLASH_LOCK1
00000018 l       *ABS*	00000000 FLASH_LOCK2
0000001c l       *ABS*	00000000 FLASH_LOCK3
00000028 l       *ABS*	00000000 FLASH_LOCK0A
0000002c l       *ABS*	00000000 FLASH_LOCK1A
00000038 l       *ABS*	00000000 FLASH_SEL0
0000003c l       *ABS*	00000000 FLASH_SEL1
00000040 l       *ABS*	00000000 FLASH_SEL2
00000044 l       *ABS*	00000000 FLASH_SEL3
0000004c l       *ABS*	00000000 FLASH_PAR
00000050 l       *ABS*	00000000 FLASH_ADR
00000054 l       *ABS*	00000000 FLASH_UT0
00000058 l       *ABS*	00000000 FLASH_UM0
0000005c l       *ABS*	00000000 FLASH_UM1
00000060 l       *ABS*	00000000 FLASH_UM2
00000064 l       *ABS*	00000000 FLASH_UM3
00000068 l       *ABS*	00000000 FLASH_UM4
0000006c l       *ABS*	00000000 FLASH_UM5
00000070 l       *ABS*	00000000 FLASH_UM6
00000074 l       *ABS*	00000000 FLASH_UM7
00000078 l       *ABS*	00000000 FLASH_UM8
0000007c l       *ABS*	00000000 FLASH_UM9
00000080 l       *ABS*	00000000 FLASH_OPP0
00000084 l       *ABS*	00000000 FLASH_OPP1
00000088 l       *ABS*	00000000 FLASH_OPP2
0000008c l       *ABS*	00000000 FLASH_OPP3
00000090 l       *ABS*	00000000 FLASH_TMD
00000094 l       *ABS*	00000000 FLASH_ALTSEL0
00000098 l       *ABS*	00000000 FLASH_ALTSEL1
00000100 l       *ABS*	00000000 FLASH_ELOCK0
00000104 l       *ABS*	00000000 FLASH_ELOCK1
00000108 l       *ABS*	00000000 FLASH_ELOCK2
0000010c l       *ABS*	00000000 FLASH_ELOCK3
00000110 l       *ABS*	00000000 FLASH_PLOCK0
00000114 l       *ABS*	00000000 FLASH_PLOCK1
00000118 l       *ABS*	00000000 FLASH_PLOCK2
0000011c l       *ABS*	00000000 FLASH_PLOCK3
fff48000 l       *ABS*	00000000 INTC_BASE
fff48010 l       *ABS*	00000000 INTC_IACKR
fff48018 l       *ABS*	00000000 INTC_EOIR
00000800 l       *ABS*	00000000 block_size
00000001 l       *ABS*	00000000 DEBUG_LED
0060c100 l       .text	00000000 main_start
0060c16e l       .text	00000000 rfill_1
0060c1a8 l       .text	00000000 loop
0060c1ac l       .text	00000000 w1
0060c1c0 l       .text	00000000 w2
52800000 g       .data	00000000 __data_start__
52808000 g       .data	00000000 __sdata_start__
006141f0 g       .text	00000000 __sdata2_start__
00000000 g       *ABS*	00000000 _reset_address
52800000 g       .data	00000000 __heap_base__
0060c1f0 g       .text	00000000 __romdata_start__
52800000 g       .stacks	00000000 __main_thread_stack_end__
52810000 g       *ABS*	00000000 __heap_end__
52800000 g       .data	00000000 __bss_start__
00024000 g       *ABS*	00000000 __flash_size__
52800000 g       .data	00000000 __data_end__
52800000 g       .data	00000000 __bss_end__
0060c000 g       .text	00000000 _start
00000000 g       *ABS*	00000000 __irq_stack_size__
00630000 g       *ABS*	00000000 __flash_end__
00010000 g       *ABS*	00000000 __ram_size__
52800000 g       .text	00000000 __ram_start__
52800000 g       .stacks	00000000 __process_stack_base__
52800000 g       .stacks	00000000 __irq_stack_end__
52810000 g       *ABS*	00000000 __ram_end__
52800000 g       .stacks	00000000 __irq_stack_base__
52800000 g       .stacks	00000000 __main_thread_stack_base__
0060c000 g       .text	00000000 __flash_start__
52800000 g       .stacks	00000000 __process_stack_end__
00000000 g       *ABS*	00000000 __process_stack_size__



Disassembly of section .text:

0060c000 <__flash_start__>:
	...

0060c100 <main_start>:
  60c100:	73 1e e4 05 	e_lis   r24,62469
  60c104:	73 30 00 10 	e_li    r25,32784
  60c108:	44 89       	se_or   r25,r24
  60c10a:	73 98 05 20 	e_li    r28,50464
  60c10e:	57 99 00 00 	e_stw   r28,0(r25)
  60c112:	73 9b 01 28 	e_li    r28,55592
  60c116:	57 99 00 00 	e_stw   r28,0(r25)
  60c11a:	73 30 00 00 	e_li    r25,32768
  60c11e:	44 89       	se_or   r25,r24
  60c120:	53 99 00 00 	e_lwz   r28,0(r25)
  60c124:	77 9c 00 3d 	e_rlwinm r28,r28,0,0,30
  60c128:	57 99 00 00 	e_stw   r28,0(r25)
  60c12c:	73 1e e7 fb 	e_lis   r24,63483
  60c130:	73 30 00 80 	e_li    r25,32896
  60c134:	44 89       	se_or   r25,r24
  60c136:	73 80 00 fe 	e_li    r28,254
  60c13a:	57 99 00 00 	e_stw   r28,0(r25)
  60c13e:	73 30 00 04 	e_li    r25,32772
  60c142:	44 89       	se_or   r25,r24
  60c144:	73 a6 e0 00 	e_lis   r29,12288
  60c148:	73 8b 02 f0 	e_li    r28,23280
  60c14c:	44 dc       	se_or   r28,r29
  60c14e:	d0 c9       	se_stw  r28,0(r25)
  60c150:	73 94 05 0f 	e_li    r28,42255
  60c154:	44 dc       	se_or   r28,r29
  60c156:	d0 c9       	se_stw  r28,0(r25)
  60c158:	73 8a e2 80 	e_lis   r28,21120
  60c15c:	73 a1 00 00 	e_li    r29,2048
  60c160:	44 dc       	se_or   r28,r29
  60c162:	73 c0 00 00 	e_li    r30,0
  60c166:	73 e0 00 00 	e_li    r31,0
  60c16a:	73 60 00 00 	e_li    r27,0

0060c16e <rfill_1>:
  60c16e:	1b dc 09 00 	e_stmw  r30,0(r28)
  60c172:	1f 9c 00 08 	e_add16i r28,r28,8
  60c176:	1f 7b 00 01 	e_add16i r27,r27,1
  60c17a:	70 7b 9f 00 	e_cmp16i r27,7936
  60c17e:	e2 f8       	se_bne  60c16e <rfill_1>
  60c180:	70 2a e2 80 	e_lis   r1,21120
  60c184:	73 3f 07 fc 	e_li    r25,65532
  60c188:	44 91       	se_or   r1,r25
  60c18a:	73 3e e7 fc 	e_lis   r25,63484
  60c18e:	73 84 e2 88 	e_lis   r28,8840
  60c192:	57 99 04 44 	e_stw   r28,1092(r25)
  60c196:	57 99 04 48 	e_stw   r28,1096(r25)
  60c19a:	73 be e7 fe 	e_lis   r29,63486
  60c19e:	70 ca e2 80 	e_lis   r6,21120
  60c1a2:	70 a0 00 80 	e_li    r5,128
  60c1a6:	44 56       	se_or   r6,r5

0060c1a8 <loop>:
  60c1a8:	70 60 e0 08 	e_lis   r3,8

0060c1ac <w1>:
  60c1ac:	26 03       	se_subi. r3,1
  60c1ae:	e2 ff       	se_bne  60c1ac <w1>
  60c1b0:	48 1c       	se_li   r28,1
  60c1b2:	37 99 13 81 	e_stb   r28,4993(r25)
  60c1b6:	48 0c       	se_li   r28,0
  60c1b8:	37 99 13 82 	e_stb   r28,4994(r25)
  60c1bc:	70 60 e0 08 	e_lis   r3,8

0060c1c0 <w2>:
  60c1c0:	26 03       	se_subi. r3,1
  60c1c2:	e2 ff       	se_bne  60c1c0 <w2>
  60c1c4:	50 f9 17 10 	e_lwz   r7,5904(r25)
  60c1c8:	d2 76       	se_stw  r7,8(r6)
  60c1ca:	48 0c       	se_li   r28,0
  60c1cc:	37 99 13 81 	e_stb   r28,4993(r25)
  60c1d0:	48 1c       	se_li   r28,1
  60c1d2:	37 99 13 82 	e_stb   r28,4994(r25)
  60c1d6:	50 f9 00 04 	e_lwz   r7,4(r25)
  60c1da:	d0 76       	se_stw  r7,0(r6)
  60c1dc:	50 f9 00 08 	e_lwz   r7,8(r25)
  60c1e0:	d1 76       	se_stw  r7,4(r6)
  60c1e2:	50 f9 04 44 	e_lwz   r7,1092(r25)
  60c1e6:	d2 76       	se_stw  r7,8(r6)
  60c1e8:	50 f9 17 10 	e_lwz   r7,5904(r25)
  60c1ec:	d3 76       	se_stw  r7,12(r6)
  60c1ee:	e8 dd       	se_b    60c1a8 <loop>

Disassembly of section .PPC.EMB.apuinfo:

00000000 <.PPC.EMB.apuinfo>:
   0:	00 00 00 08 	.long 0x8
   4:	00 00 00 04 	.long 0x4
   8:	00 00 00 02 	.long 0x2
   c:	41 50 55 69 	bdztl   4*cr4+lt,5574 <MCSR_OUTPUT+0x32ec>
  10:	6e 66 6f 00 	xoris   r6,r19,28416
  14:	01 04 00 01 	.long 0x1040001

boot.elf:     file format elf32-powerpc
boot.elf
architecture: powerpc:common, flags 0x00000112:
EXEC_P, HAS_SYMS, D_PAGED
start address 0x00000000

Program Header:
    LOAD off    0x00000000 vaddr 0x00600000 paddr 0x00600000 align 2**16
         filesz 0x0000c1f8 memsz 0x0000c1f8 flags r-x
    LOAD off    0x00010000 vaddr 0x52800000 paddr 0x0060c200 align 2**16
         filesz 0x00000000 memsz 0x00000000 flags rw-

Sections:
Idx Name          Size      VMA       LMA       File off  Algn
  0 .text         000001f8  0060c000  0060c000  0000c000  2**4
                  CONTENTS, ALLOC, LOAD, READONLY, CODE, VLE
  1 .stacks       00000000  52800000  52800000  00010000  2**0
                  CONTENTS
  2 .data         00000000  52800000  0060c200  00010000  2**0
                  CONTENTS, ALLOC, LOAD, DATA
  3 .PPC.EMB.apuinfo 00000018  00000000  00000000  00010000  2**0
                  CONTENTS, READONLY
SYMBOL TABLE:
0060c000 l    d  .text	00000000 .text
52800000 l    d  .stacks	00000000 .stacks
52800000 l    d  .data	00000000 .data
00000000 l    d  .PPC.EMB.apuinfo	00000000 .PPC.EMB.apuinfo
00000000 l    df *ABS*	00000000 build/src/boot.o
00000000 l       *ABS*	00000000 r0
00000001 l       *ABS*	00000000 r1
00000001 l       *ABS*	00000000 rsp
00000002 l       *ABS*	00000000 r2
00000003 l       *ABS*	00000000 r3
00000004 l       *ABS*	00000000 r4
00000005 l       *ABS*	00000000 r5
00000006 l       *ABS*	00000000 r6
00000007 l       *ABS*	00000000 r7
00000008 l       *ABS*	00000000 r8
00000009 l       *ABS*	00000000 r9
0000000a l       *ABS*	00000000 r10
0000000b l       *ABS*	00000000 r11
0000000c l       *ABS*	00000000 r12
0000000d l       *ABS*	00000000 r13
0000000e l       *ABS*	00000000 r14
0000000f l       *ABS*	00000000 r15
00000010 l       *ABS*	00000000 r16
00000011 l       *ABS*	00000000 r17
00000012 l       *ABS*	00000000 r18
00000013 l       *ABS*	00000000 r19
00000014 l       *ABS*	00000000 r20
00000015 l       *ABS*	00000000 r21
00000016 l       *ABS*	00000000 r22
00000017 l       *ABS*	00000000 r23
00000018 l       *ABS*	00000000 r24
00000019 l       *ABS*	00000000 r25
0000001a l       *ABS*	00000000 r26
0000001b l       *ABS*	00000000 r27
0000001c l       *ABS*	00000000 r28
0000001d l       *ABS*	00000000 r29
0000001e l       *ABS*	00000000 r30
0000001f l       *ABS*	00000000 r31
0000f7fc l       *ABS*	00000000 SIUL_BASE
00001300 l       *ABS*	00000000 GPDO0
00001304 l       *ABS*	00000000 GPDO1
00001308 l       *ABS*	00000000 GPDO2
0000130c l       *ABS*	00000000 GPDO3
00001310 l       *ABS*	00000000 GPDO4
00001314 l       *ABS*	00000000 GPDO5
00001318 l       *ABS*	00000000 GPDO6
0000131c l       *ABS*	00000000 GPDO7
00001320 l       *ABS*	00000000 GPDO8
00001324 l       *ABS*	00000000 GPDO9
00001328 l       *ABS*	00000000 GPDO10
0000132c l       *ABS*	00000000 GPDO11
00001330 l       *ABS*	00000000 GPDO12
00001334 l       *ABS*	00000000 GPDO13
00001338 l       *ABS*	00000000 GPDO14
0000133c l       *ABS*	00000000 GPDO15
00001340 l       *ABS*	00000000 GPDO16
00001344 l       *ABS*	00000000 GPDO17
00001348 l       *ABS*	00000000 GPDO18
0000134c l       *ABS*	00000000 GPDO19
00001350 l       *ABS*	00000000 GPDO20
00001354 l       *ABS*	00000000 GPDO21
00001358 l       *ABS*	00000000 GPDO22
0000135c l       *ABS*	00000000 GPDO23
00001360 l       *ABS*	00000000 GPDO24
00001364 l       *ABS*	00000000 GPDO25
00001368 l       *ABS*	00000000 GPDO26
0000136c l       *ABS*	00000000 GPDO27
00001370 l       *ABS*	00000000 GPDO28
00001374 l       *ABS*	00000000 GPDO29
00001378 l       *ABS*	00000000 GPDO30
0000137c l       *ABS*	00000000 GPDO31
00001380 l       *ABS*	00000000 GPDO32
00001384 l       *ABS*	00000000 GPDO33
00001388 l       *ABS*	00000000 GPDO34
0000138c l       *ABS*	00000000 GPDO35
00001390 l       *ABS*	00000000 GPDO36
00001394 l       *ABS*	00000000 GPDO37
00001398 l       *ABS*	00000000 GPDO38
0000139c l       *ABS*	00000000 GPDO39
00001500 l       *ABS*	00000000 GPDI0
00001504 l       *ABS*	00000000 GPDI1
00001508 l       *ABS*	00000000 GPDI2
0000150c l       *ABS*	00000000 GPDI3
00001510 l       *ABS*	00000000 GPDI4
00001514 l       *ABS*	00000000 GPDI5
00001518 l       *ABS*	00000000 GPDI6
0000151c l       *ABS*	00000000 GPDI7
00001520 l       *ABS*	00000000 GPDI8
00001524 l       *ABS*	00000000 GPDI9
00001528 l       *ABS*	00000000 GPDI10
0000152c l       *ABS*	00000000 GPDI11
00001530 l       *ABS*	00000000 GPDI12
00001534 l       *ABS*	00000000 GPDI13
00001538 l       *ABS*	00000000 GPDI14
0000153c l       *ABS*	00000000 GPDI15
00001540 l       *ABS*	00000000 GPDI16
00001544 l       *ABS*	00000000 GPDI17
00001548 l       *ABS*	00000000 GPDI18
0000154c l       *ABS*	00000000 GPDI19
00001550 l       *ABS*	00000000 GPDI20
00001554 l       *ABS*	00000000 GPDI21
00001558 l       *ABS*	00000000 GPDI22
0000155c l       *ABS*	00000000 GPDI23
00001560 l       *ABS*	00000000 GPDI24
00001564 l       *ABS*	00000000 GPDI25
00001568 l       *ABS*	00000000 GPDI26
0000156c l       *ABS*	00000000 GPDI27
00001570 l       *ABS*	00000000 GPDI28
00001574 l       *ABS*	00000000 GPDI29
00001578 l       *ABS*	00000000 GPDI30
0000157c l       *ABS*	00000000 GPDI31
00001580 l       *ABS*	00000000 GPDI32
00001584 l       *ABS*	00000000 GPDI33
00001588 l       *ABS*	00000000 GPDI34
0000158c l       *ABS*	00000000 GPDI35
00001590 l       *ABS*	00000000 GPDI36
00001594 l       *ABS*	00000000 GPDI37
00001598 l       *ABS*	00000000 GPDI38
0000159c l       *ABS*	00000000 GPDI39
00001700 l       *ABS*	00000000 PGPDO0
00001704 l       *ABS*	00000000 PGPDO1
00001708 l       *ABS*	00000000 PGPDO2
0000170c l       *ABS*	00000000 PGPDO3
00001710 l       *ABS*	00000000 PGPDO4
00001700 l       *ABS*	00000000 POUT_A
00001702 l       *ABS*	00000000 POUT_B
00001704 l       *ABS*	00000000 POUT_C
00001706 l       *ABS*	00000000 POUT_D
00001708 l       *ABS*	00000000 POUT_E
0000170a l       *ABS*	00000000 POUT_F
0000170c l       *ABS*	00000000 POUT_G
0000170e l       *ABS*	00000000 POUT_H
00001710 l       *ABS*	00000000 POUT_I
00001712 l       *ABS*	00000000 POUT_J
00001740 l       *ABS*	00000000 PGPDI0
00001744 l       *ABS*	00000000 PGPDI1
00001748 l       *ABS*	00000000 PGPDI2
0000174c l       *ABS*	00000000 PGPDI3
00001750 l       *ABS*	00000000 PGPDI4
00001740 l       *ABS*	00000000 PIN_A
00001742 l       *ABS*	00000000 PIN_B
00001744 l       *ABS*	00000000 PIN_C
00001746 l       *ABS*	00000000 PIN_D
00001748 l       *ABS*	00000000 PIN_E
0000174a l       *ABS*	00000000 PIN_F
0000174c l       *ABS*	00000000 PIN_G
0000174e l       *ABS*	00000000 PIN_H
00001750 l       *ABS*	00000000 PIN_I
00001752 l       *ABS*	00000000 PIN_J
00000240 l       *ABS*	00000000 MCSR_A0
00000244 l       *ABS*	00000000 MCSR_A1
00000248 l       *ABS*	00000000 MCSR_A2
0000024c l       *ABS*	00000000 MCSR_A3
00000250 l       *ABS*	00000000 MCSR_A4
00000254 l       *ABS*	00000000 MCSR_A5
00000258 l       *ABS*	00000000 MCSR_A6
0000025c l       *ABS*	00000000 MCSR_A7
00000260 l       *ABS*	00000000 MCSR_A8
00000264 l       *ABS*	00000000 MCSR_A9
00000268 l       *ABS*	00000000 MCSR_A10
0000026c l       *ABS*	00000000 MCSR_A11
00000270 l       *ABS*	00000000 MCSR_A12
00000274 l       *ABS*	00000000 MCSR_A13
00000278 l       *ABS*	00000000 MCSR_A14
0000027c l       *ABS*	00000000 MCSR_A15
00000280 l       *ABS*	00000000 MCSR_B0
00000284 l       *ABS*	00000000 MCSR_B1
00000288 l       *ABS*	00000000 MCSR_B2
0000028c l       *ABS*	00000000 MCSR_B3
00000290 l       *ABS*	00000000 MCSR_B4
00000294 l       *ABS*	00000000 MCSR_B5
00000298 l       *ABS*	00000000 MCSR_B6
0000029c l       *ABS*	00000000 MCSR_B7
000002a0 l       *ABS*	00000000 MCSR_B8
000002a4 l       *ABS*	00000000 MCSR_B9
000002a8 l       *ABS*	00000000 MCSR_B10
000002ac l       *ABS*	00000000 MCSR_B11
000002b0 l       *ABS*	00000000 MCSR_B12
000002b4 l       *ABS*	00000000 MCSR_B13
000002b8 l       *ABS*	00000000 MCSR_B14
000002bc l       *ABS*	00000000 MCSR_B15
000002c0 l       *ABS*	00000000 MCSR_C0
000002c4 l       *ABS*	00000000 MCSR_C1
000002c8 l       *ABS*	00000000 MCSR_C2
000002cc l       *ABS*	00000000 MCSR_C3
000002d0 l       *ABS*	00000000 MCSR_C4
000002d4 l       *ABS*	00000000 MCSR_C5
000002d8 l       *ABS*	00000000 MCSR_C6
000002dc l       *ABS*	00000000 MCSR_C7
000002e0 l       *ABS*	00000000 MCSR_C8
000002e4 l       *ABS*	00000000 MCSR_C9
000002e8 l       *ABS*	00000000 MCSR_C10
000002ec l       *ABS*	00000000 MCSR_C11
000002f0 l       *ABS*	00000000 MCSR_C12
000002f4 l       *ABS*	00000000 MCSR_C13
000002f8 l       *ABS*	00000000 MCSR_C14
000002fc l       *ABS*	00000000 MCSR_C15
00000300 l       *ABS*	00000000 MCSR_D0
00000304 l       *ABS*	00000000 MCSR_D1
00000308 l       *ABS*	00000000 MCSR_D2
0000030c l       *ABS*	00000000 MCSR_D3
00000310 l       *ABS*	00000000 MCSR_D4
00000314 l       *ABS*	00000000 MCSR_D5
00000318 l       *ABS*	00000000 MCSR_D6
0000031c l       *ABS*	00000000 MCSR_D7
00000320 l       *ABS*	00000000 MCSR_D8
00000324 l       *ABS*	00000000 MCSR_D9
00000328 l       *ABS*	00000000 MCSR_D10
0000032c l       *ABS*	00000000 MCSR_D11
00000330 l       *ABS*	00000000 MCSR_D12
00000334 l       *ABS*	00000000 MCSR_D13
00000338 l       *ABS*	00000000 MCSR_D14
0000033c l       *ABS*	00000000 MCSR_D15
00000340 l       *ABS*	00000000 MCSR_E0
00000344 l       *ABS*	00000000 MCSR_E1
00000348 l       *ABS*	00000000 MCSR_E2
0000034c l       *ABS*	00000000 MCSR_E3
00000350 l       *ABS*	00000000 MCSR_E4
00000354 l       *ABS*	00000000 MCSR_E5
00000358 l       *ABS*	00000000 MCSR_E6
0000035c l       *ABS*	00000000 MCSR_E7
00000360 l       *ABS*	00000000 MCSR_E8
00000364 l       *ABS*	00000000 MCSR_E9
00000368 l       *ABS*	00000000 MCSR_E10
0000036c l       *ABS*	00000000 MCSR_E11
00000370 l       *ABS*	00000000 MCSR_E12
00000374 l       *ABS*	00000000 MCSR_E13
00000378 l       *ABS*	00000000 MCSR_E14
0000037c l       *ABS*	00000000 MCSR_E15
00000380 l       *ABS*	00000000 MCSR_F0
00000384 l       *ABS*	00000000 MCSR_F1
00000388 l       *ABS*	00000000 MCSR_F2
0000038c l       *ABS*	00000000 MCSR_F3
00000390 l       *ABS*	00000000 MCSR_F4
00000394 l       *ABS*	00000000 MCSR_F5
00000398 l       *ABS*	00000000 MCSR_F6
0000039c l       *ABS*	00000000 MCSR_F7
000003a0 l       *ABS*	00000000 MCSR_F8
000003a4 l       *ABS*	00000000 MCSR_F9
000003a8 l       *ABS*	00000000 MCSR_F10
000003ac l       *ABS*	00000000 MCSR_F11
000003b0 l       *ABS*	00000000 MCSR_F12
000003b4 l       *ABS*	00000000 MCSR_F13
000003b8 l       *ABS*	00000000 MCSR_F14
000003bc l       *ABS*	00000000 MCSR_F15
000003c0 l       *ABS*	00000000 MCSR_G0
000003c4 l       *ABS*	00000000 MCSR_G1
000003c8 l       *ABS*	00000000 MCSR_G2
000003cc l       *ABS*	00000000 MCSR_G3
000003d0 l       *ABS*	00000000 MCSR_G4
000003d4 l       *ABS*	00000000 MCSR_G5
000003d8 l       *ABS*	00000000 MCSR_G6
000003dc l       *ABS*	00000000 MCSR_G7
000003e0 l       *ABS*	00000000 MCSR_G8
000003e4 l       *ABS*	00000000 MCSR_G9
000003e8 l       *ABS*	00000000 MCSR_G10
000003ec l       *ABS*	00000000 MCSR_G11
000003f0 l       *ABS*	00000000 MCSR_G12
000003f4 l       *ABS*	00000000 MCSR_G13
000003f8 l       *ABS*	00000000 MCSR_G14
000003fc l       *ABS*	00000000 MCSR_G15
00000400 l       *ABS*	00000000 MCSR_H0
00000404 l       *ABS*	00000000 MCSR_H1
00000408 l       *ABS*	00000000 MCSR_H2
0000040c l       *ABS*	00000000 MCSR_H3
00000410 l       *ABS*	00000000 MCSR_H4
00000414 l       *ABS*	00000000 MCSR_H5
00000418 l       *ABS*	00000000 MCSR_H6
0000041c l       *ABS*	00000000 MCSR_H7
00000420 l       *ABS*	00000000 MCSR_H8
00000424 l       *ABS*	00000000 MCSR_H9
00000428 l       *ABS*	00000000 MCSR_H10
0000042c l       *ABS*	00000000 MCSR_H11
00000430 l       *ABS*	00000000 MCSR_H12
00000434 l       *ABS*	00000000 MCSR_H13
00000438 l       *ABS*	00000000 MCSR_H14
0000043c l       *ABS*	00000000 MCSR_H15
00000440 l       *ABS*	00000000 MCSR_I0
00000444 l       *ABS*	00000000 MCSR_I1
00000448 l       *ABS*	00000000 MCSR_I2
0000044c l       *ABS*	00000000 MCSR_I3
00000450 l       *ABS*	00000000 MCSR_I4
00000454 l       *ABS*	00000000 MCSR_I5
00000458 l       *ABS*	00000000 MCSR_I6
0000045c l       *ABS*	00000000 MCSR_I7
00000460 l       *ABS*	00000000 MCSR_I8
00000464 l       *ABS*	00000000 MCSR_I9
00000468 l       *ABS*	00000000 MCSR_I10
0000046c l       *ABS*	00000000 MCSR_I11
00000470 l       *ABS*	00000000 MCSR_I12
00000474 l       *ABS*	00000000 MCSR_I13
00000478 l       *ABS*	00000000 MCSR_I14
0000047c l       *ABS*	00000000 MCSR_I15
00000480 l       *ABS*	00000000 MCSR_J0
00000484 l       *ABS*	00000000 MCSR_J1
00000488 l       *ABS*	00000000 MCSR_J2
0000048c l       *ABS*	00000000 MCSR_J3
00000490 l       *ABS*	00000000 MCSR_J4
00000494 l       *ABS*	00000000 MCSR_J5
00000498 l       *ABS*	00000000 MCSR_J6
0000049c l       *ABS*	00000000 MCSR_J7
000004a0 l       *ABS*	00000000 MCSR_J8
000004a4 l       *ABS*	00000000 MCSR_J9
000004a8 l       *ABS*	00000000 MCSR_J10
000004ac l       *ABS*	00000000 MCSR_J11
000004b0 l       *ABS*	00000000 MCSR_J12
000004b4 l       *ABS*	00000000 MCSR_J13
000004b8 l       *ABS*	00000000 MCSR_J14
000004bc l       *ABS*	00000000 MCSR_J15
00000003 l       *ABS*	00000000 MCSR_UNCONNECT
00000088 l       *ABS*	00000000 MCSR_INPUT
00000089 l       *ABS*	00000000 MCSR_INPUT_PU
0000008a l       *ABS*	00000000 MCSR_INPUT_PD
00002288 l       *ABS*	00000000 MCSR_OUTPUT
00002188 l       *ABS*	00000000 MCSR_OUTPUT_OD
0000f405 l       *ABS*	00000000 SWT_BASE
00008000 l       *ABS*	00000000 SWT_CR
00008004 l       *ABS*	00000000 SWT_IR
00008008 l       *ABS*	00000000 SWT_TO
0000800c l       *ABS*	00000000 SWT_WN
00008010 l       *ABS*	00000000 SWT_SR
00008014 l       *ABS*	00000000 SWT_CO
00008018 l       *ABS*	00000000 SWT_SK
0000f7fb l       *ABS*	00000000 ME_BASE
00008000 l       *ABS*	00000000 ME_GS
00008004 l       *ABS*	00000000 ME_MCTL
00008008 l       *ABS*	00000000 ME_ME
0000800c l       *ABS*	00000000 ME_MIS
00008010 l       *ABS*	00000000 ME_IM
00008014 l       *ABS*	00000000 ME_IMTS
00008018 l       *ABS*	00000000 ME_DMTS
00008080 l       *ABS*	00000000 ME_RUN_PC0
00008084 l       *ABS*	00000000 ME_RUN_PC1
00008088 l       *ABS*	00000000 ME_RUN_PC2
0000808c l       *ABS*	00000000 ME_RUN_PC3
00008090 l       *ABS*	00000000 ME_RUN_PC4
00008094 l       *ABS*	00000000 ME_RUN_PC5
00008098 l       *ABS*	00000000 ME_RUN_PC6
0000809c l       *ABS*	00000000 ME_RUN_PC7
0000802c l       *ABS*	00000000 ME_DRUN_MC
0000c3fe l       *ABS*	00000000 FMPLL_BASE
000000a0 l       *ABS*	00000000 FMPLL0_CR
000000c0 l       *ABS*	00000000 FMPLL1_CR
0000ffe4 l       *ABS*	00000000 LINFLEX0_BASE
00000000 l       *ABS*	00000000 LINFLEX0_LINCR1
00000010 l       *ABS*	00000000 LINFLEX0_UARTCR
00000014 l       *ABS*	00000000 LINFLEX0_UARTSR
00000028 l       *ABS*	00000000 LINFLEX0_LINBRR
0000002c l       *ABS*	00000000 LINFLEX0_LINBFRR
00000038 l       *ABS*	00000000 LINFLEX0_BRDL
0000003c l       *ABS*	00000000 LINFLEX0_BRDM
0000f7fe l       *ABS*	00000000 FLASH_BASE
00000000 l       *ABS*	00000000 FLASH_MCR
00000004 l       *ABS*	00000000 FLASH_MCRA
00000008 l       *ABS*	00000000 FLASH_MCRE
00000010 l       *ABS*	00000000 FLASH_LOCK0
00000014 l       *ABS*	00000000 FLASH_LOCK1
00000018 l       *ABS*	00000000 FLASH_LOCK2
0000001c l       *ABS*	00000000 FLASH_LOCK3
00000028 l       *ABS*	00000000 FLASH_LOCK0A
0000002c l       *ABS*	00000000 FLASH_LOCK1A
00000038 l       *ABS*	00000000 FLASH_SEL0
0000003c l       *ABS*	00000000 FLASH_SEL1
00000040 l       *ABS*	00000000 FLASH_SEL2
00000044 l       *ABS*	00000000 FLASH_SEL3
0000004c l       *ABS*	00000000 FLASH_PAR
00000050 l       *ABS*	00000000 FLASH_ADR
00000054 l       *ABS*	00000000 FLASH_UT0
00000058 l       *ABS*	00000000 FLASH_UM0
0000005c l       *ABS*	00000000 FLASH_UM1
00000060 l       *ABS*	00000000 FLASH_UM2
00000064 l       *ABS*	00000000 FLASH_UM3
00000068 l       *ABS*	00000000 FLASH_UM4
0000006c l       *ABS*	00000000 FLASH_UM5
00000070 l       *ABS*	00000000 FLASH_UM6
00000074 l       *ABS*	00000000 FLASH_UM7
00000078 l       *ABS*	00000000 FLASH_UM8
0000007c l       *ABS*	00000000 FLASH_UM9
00000080 l       *ABS*	00000000 FLASH_OPP0
00000084 l       *ABS*	00000000 FLASH_OPP1
00000088 l       *ABS*	00000000 FLASH_OPP2
0000008c l       *ABS*	00000000 FLASH_OPP3
00000090 l       *ABS*	00000000 FLASH_TMD
00000094 l       *ABS*	00000000 FLASH_ALTSEL0
00000098 l       *ABS*	00000000 FLASH_ALTSEL1
00000100 l       *ABS*	00000000 FLASH_ELOCK0
00000104 l       *ABS*	00000000 FLASH_ELOCK1
00000108 l       *ABS*	00000000 FLASH_ELOCK2
0000010c l       *ABS*	00000000 FLASH_ELOCK3
00000110 l       *ABS*	00000000 FLASH_PLOCK0
00000114 l       *ABS*	00000000 FLASH_PLOCK1
00000118 l       *ABS*	00000000 FLASH_PLOCK2
0000011c l       *ABS*	00000000 FLASH_PLOCK3
fff48000 l       *ABS*	00000000 INTC_BASE
fff48010 l       *ABS*	00000000 INTC_IACKR
fff48018 l       *ABS*	00000000 INTC_EOIR
00000800 l       *ABS*	00000000 block_size
00000001 l       *ABS*	00000000 DEBUG_LED
0060c100 l       .text	00000000 main_start
0060c16e l       .text	00000000 rfill_1
0060c1b0 l       .text	00000000 loop
0060c1b4 l       .text	00000000 w1
0060c1c8 l       .text	00000000 w2
52800000 g       .data	00000000 __data_start__
52808000 g       .data	00000000 __sdata_start__
00614200 g       .text	00000000 __sdata2_start__
00000000 g       *ABS*	00000000 _reset_address
52800000 g       .data	00000000 __heap_base__
0060c200 g       .text	00000000 __romdata_start__
52800000 g       .stacks	00000000 __main_thread_stack_end__
52810000 g       *ABS*	00000000 __heap_end__
52800000 g       .data	00000000 __bss_start__
00024000 g       *ABS*	00000000 __flash_size__
52800000 g       .data	00000000 __data_end__
52800000 g       .data	00000000 __bss_end__
0060c000 g       .text	00000000 _start
00000000 g       *ABS*	00000000 __irq_stack_size__
00630000 g       *ABS*	00000000 __flash_end__
00010000 g       *ABS*	00000000 __ram_size__
52800000 g       .text	00000000 __ram_start__
52800000 g       .stacks	00000000 __process_stack_base__
52800000 g       .stacks	00000000 __irq_stack_end__
52810000 g       *ABS*	00000000 __ram_end__
52800000 g       .stacks	00000000 __irq_stack_base__
52800000 g       .stacks	00000000 __main_thread_stack_base__
0060c000 g       .text	00000000 __flash_start__
52800000 g       .stacks	00000000 __process_stack_end__
00000000 g       *ABS*	00000000 __process_stack_size__



Disassembly of section .text:

0060c000 <__flash_start__>:
	...

0060c100 <main_start>:
  60c100:	73 1e e4 05 	e_lis   r24,62469
  60c104:	73 30 00 10 	e_li    r25,32784
  60c108:	44 89       	se_or   r25,r24
  60c10a:	73 98 05 20 	e_li    r28,50464
  60c10e:	57 99 00 00 	e_stw   r28,0(r25)
  60c112:	73 9b 01 28 	e_li    r28,55592
  60c116:	57 99 00 00 	e_stw   r28,0(r25)
  60c11a:	73 30 00 00 	e_li    r25,32768
  60c11e:	44 89       	se_or   r25,r24
  60c120:	53 99 00 00 	e_lwz   r28,0(r25)
  60c124:	77 9c 00 3d 	e_rlwinm r28,r28,0,0,30
  60c128:	57 99 00 00 	e_stw   r28,0(r25)
  60c12c:	73 1e e7 fb 	e_lis   r24,63483
  60c130:	73 30 00 80 	e_li    r25,32896
  60c134:	44 89       	se_or   r25,r24
  60c136:	73 80 00 fe 	e_li    r28,254
  60c13a:	57 99 00 00 	e_stw   r28,0(r25)
  60c13e:	73 30 00 04 	e_li    r25,32772
  60c142:	44 89       	se_or   r25,r24
  60c144:	73 a6 e0 00 	e_lis   r29,12288
  60c148:	73 8b 02 f0 	e_li    r28,23280
  60c14c:	44 dc       	se_or   r28,r29
  60c14e:	d0 c9       	se_stw  r28,0(r25)
  60c150:	73 94 05 0f 	e_li    r28,42255
  60c154:	44 dc       	se_or   r28,r29
  60c156:	d0 c9       	se_stw  r28,0(r25)
  60c158:	73 8a e2 80 	e_lis   r28,21120
  60c15c:	73 a1 00 00 	e_li    r29,2048
  60c160:	44 dc       	se_or   r28,r29
  60c162:	73 c0 00 00 	e_li    r30,0
  60c166:	73 e0 00 00 	e_li    r31,0
  60c16a:	73 60 00 00 	e_li    r27,0

0060c16e <rfill_1>:
  60c16e:	1b dc 09 00 	e_stmw  r30,0(r28)
  60c172:	1f 9c 00 08 	e_add16i r28,r28,8
  60c176:	1f 7b 00 01 	e_add16i r27,r27,1
  60c17a:	70 7b 9f 00 	e_cmp16i r27,7936
  60c17e:	e2 f8       	se_bne  60c16e <rfill_1>
  60c180:	70 2a e2 80 	e_lis   r1,21120
  60c184:	73 3f 07 fc 	e_li    r25,65532
  60c188:	44 91       	se_or   r1,r25
  60c18a:	73 3e e7 fc 	e_lis   r25,63484
  60c18e:	73 84 e2 88 	e_lis   r28,8840
  60c192:	57 99 04 44 	e_stw   r28,1092(r25)
  60c196:	57 99 04 48 	e_stw   r28,1096(r25)
  60c19a:	73 be e7 fe 	e_lis   r29,63486
  60c19e:	73 d0 e0 00 	e_lis   r30,32768
  60c1a2:	57 dd 00 10 	e_stw   r30,16(r29)
  60c1a6:	70 ca e2 80 	e_lis   r6,21120
  60c1aa:	70 a0 00 80 	e_li    r5,128
  60c1ae:	44 56       	se_or   r6,r5

0060c1b0 <loop>:
  60c1b0:	70 60 e0 08 	e_lis   r3,8

0060c1b4 <w1>:
  60c1b4:	26 03       	se_subi. r3,1
  60c1b6:	e2 ff       	se_bne  60c1b4 <w1>
  60c1b8:	48 1c       	se_li   r28,1
  60c1ba:	37 99 13 81 	e_stb   r28,4993(r25)
  60c1be:	48 0c       	se_li   r28,0
  60c1c0:	37 99 13 82 	e_stb   r28,4994(r25)
  60c1c4:	70 60 e0 08 	e_lis   r3,8

0060c1c8 <w2>:
  60c1c8:	26 03       	se_subi. r3,1
  60c1ca:	e2 ff       	se_bne  60c1c8 <w2>
  60c1cc:	50 f9 17 10 	e_lwz   r7,5904(r25)
  60c1d0:	d2 76       	se_stw  r7,8(r6)
  60c1d2:	48 0c       	se_li   r28,0
  60c1d4:	37 99 13 81 	e_stb   r28,4993(r25)
  60c1d8:	48 1c       	se_li   r28,1
  60c1da:	37 99 13 82 	e_stb   r28,4994(r25)
  60c1de:	50 f9 00 04 	e_lwz   r7,4(r25)
  60c1e2:	d0 76       	se_stw  r7,0(r6)
  60c1e4:	50 f9 00 08 	e_lwz   r7,8(r25)
  60c1e8:	d1 76       	se_stw  r7,4(r6)
  60c1ea:	50 f9 04 44 	e_lwz   r7,1092(r25)
  60c1ee:	d2 76       	se_stw  r7,8(r6)
  60c1f0:	50 f9 17 10 	e_lwz   r7,5904(r25)
  60c1f4:	d3 76       	se_stw  r7,12(r6)
  60c1f6:	e8 dd       	se_b    60c1b0 <loop>

Disassembly of section .PPC.EMB.apuinfo:

00000000 <.PPC.EMB.apuinfo>:
   0:	00 00 00 08 	.long 0x8
   4:	00 00 00 04 	.long 0x4
   8:	00 00 00 02 	.long 0x2
   c:	41 50 55 69 	bdztl   4*cr4+lt,5574 <MCSR_OUTPUT+0x32ec>
  10:	6e 66 6f 00 	xoris   r6,r19,28416
  14:	01 04 00 01 	.long 0x1040001

boot.elf:     file format elf32-powerpc
boot.elf
architecture: powerpc:common, flags 0x00000112:
EXEC_P, HAS_SYMS, D_PAGED
start address 0x00000000

Program Header:
    LOAD off    0x00000000 vaddr 0x00600000 paddr 0x00600000 align 2**16
         filesz 0x0000c20c memsz 0x0000c20c flags r-x
    LOAD off    0x00010000 vaddr 0x52800000 paddr 0x0060c210 align 2**16
         filesz 0x00000000 memsz 0x00000000 flags rw-

Sections:
Idx Name          Size      VMA       LMA       File off  Algn
  0 .text         0000020c  0060c000  0060c000  0000c000  2**4
                  CONTENTS, ALLOC, LOAD, READONLY, CODE, VLE
  1 .stacks       00000000  52800000  52800000  00010000  2**0
                  CONTENTS
  2 .data         00000000  52800000  0060c210  00010000  2**0
                  CONTENTS, ALLOC, LOAD, DATA
  3 .PPC.EMB.apuinfo 00000018  00000000  00000000  00010000  2**0
                  CONTENTS, READONLY
SYMBOL TABLE:
0060c000 l    d  .text	00000000 .text
52800000 l    d  .stacks	00000000 .stacks
52800000 l    d  .data	00000000 .data
00000000 l    d  .PPC.EMB.apuinfo	00000000 .PPC.EMB.apuinfo
00000000 l    df *ABS*	00000000 build/src/boot.o
00000000 l       *ABS*	00000000 r0
00000001 l       *ABS*	00000000 r1
00000001 l       *ABS*	00000000 rsp
00000002 l       *ABS*	00000000 r2
00000003 l       *ABS*	00000000 r3
00000004 l       *ABS*	00000000 r4
00000005 l       *ABS*	00000000 r5
00000006 l       *ABS*	00000000 r6
00000007 l       *ABS*	00000000 r7
00000008 l       *ABS*	00000000 r8
00000009 l       *ABS*	00000000 r9
0000000a l       *ABS*	00000000 r10
0000000b l       *ABS*	00000000 r11
0000000c l       *ABS*	00000000 r12
0000000d l       *ABS*	00000000 r13
0000000e l       *ABS*	00000000 r14
0000000f l       *ABS*	00000000 r15
00000010 l       *ABS*	00000000 r16
00000011 l       *ABS*	00000000 r17
00000012 l       *ABS*	00000000 r18
00000013 l       *ABS*	00000000 r19
00000014 l       *ABS*	00000000 r20
00000015 l       *ABS*	00000000 r21
00000016 l       *ABS*	00000000 r22
00000017 l       *ABS*	00000000 r23
00000018 l       *ABS*	00000000 r24
00000019 l       *ABS*	00000000 r25
0000001a l       *ABS*	00000000 r26
0000001b l       *ABS*	00000000 r27
0000001c l       *ABS*	00000000 r28
0000001d l       *ABS*	00000000 r29
0000001e l       *ABS*	00000000 r30
0000001f l       *ABS*	00000000 r31
0000f7fc l       *ABS*	00000000 SIUL_BASE
00001300 l       *ABS*	00000000 GPDO0
00001304 l       *ABS*	00000000 GPDO1
00001308 l       *ABS*	00000000 GPDO2
0000130c l       *ABS*	00000000 GPDO3
00001310 l       *ABS*	00000000 GPDO4
00001314 l       *ABS*	00000000 GPDO5
00001318 l       *ABS*	00000000 GPDO6
0000131c l       *ABS*	00000000 GPDO7
00001320 l       *ABS*	00000000 GPDO8
00001324 l       *ABS*	00000000 GPDO9
00001328 l       *ABS*	00000000 GPDO10
0000132c l       *ABS*	00000000 GPDO11
00001330 l       *ABS*	00000000 GPDO12
00001334 l       *ABS*	00000000 GPDO13
00001338 l       *ABS*	00000000 GPDO14
0000133c l       *ABS*	00000000 GPDO15
00001340 l       *ABS*	00000000 GPDO16
00001344 l       *ABS*	00000000 GPDO17
00001348 l       *ABS*	00000000 GPDO18
0000134c l       *ABS*	00000000 GPDO19
00001350 l       *ABS*	00000000 GPDO20
00001354 l       *ABS*	00000000 GPDO21
00001358 l       *ABS*	00000000 GPDO22
0000135c l       *ABS*	00000000 GPDO23
00001360 l       *ABS*	00000000 GPDO24
00001364 l       *ABS*	00000000 GPDO25
00001368 l       *ABS*	00000000 GPDO26
0000136c l       *ABS*	00000000 GPDO27
00001370 l       *ABS*	00000000 GPDO28
00001374 l       *ABS*	00000000 GPDO29
00001378 l       *ABS*	00000000 GPDO30
0000137c l       *ABS*	00000000 GPDO31
00001380 l       *ABS*	00000000 GPDO32
00001384 l       *ABS*	00000000 GPDO33
00001388 l       *ABS*	00000000 GPDO34
0000138c l       *ABS*	00000000 GPDO35
00001390 l       *ABS*	00000000 GPDO36
00001394 l       *ABS*	00000000 GPDO37
00001398 l       *ABS*	00000000 GPDO38
0000139c l       *ABS*	00000000 GPDO39
00001500 l       *ABS*	00000000 GPDI0
00001504 l       *ABS*	00000000 GPDI1
00001508 l       *ABS*	00000000 GPDI2
0000150c l       *ABS*	00000000 GPDI3
00001510 l       *ABS*	00000000 GPDI4
00001514 l       *ABS*	00000000 GPDI5
00001518 l       *ABS*	00000000 GPDI6
0000151c l       *ABS*	00000000 GPDI7
00001520 l       *ABS*	00000000 GPDI8
00001524 l       *ABS*	00000000 GPDI9
00001528 l       *ABS*	00000000 GPDI10
0000152c l       *ABS*	00000000 GPDI11
00001530 l       *ABS*	00000000 GPDI12
00001534 l       *ABS*	00000000 GPDI13
00001538 l       *ABS*	00000000 GPDI14
0000153c l       *ABS*	00000000 GPDI15
00001540 l       *ABS*	00000000 GPDI16
00001544 l       *ABS*	00000000 GPDI17
00001548 l       *ABS*	00000000 GPDI18
0000154c l       *ABS*	00000000 GPDI19
00001550 l       *ABS*	00000000 GPDI20
00001554 l       *ABS*	00000000 GPDI21
00001558 l       *ABS*	00000000 GPDI22
0000155c l       *ABS*	00000000 GPDI23
00001560 l       *ABS*	00000000 GPDI24
00001564 l       *ABS*	00000000 GPDI25
00001568 l       *ABS*	00000000 GPDI26
0000156c l       *ABS*	00000000 GPDI27
00001570 l       *ABS*	00000000 GPDI28
00001574 l       *ABS*	00000000 GPDI29
00001578 l       *ABS*	00000000 GPDI30
0000157c l       *ABS*	00000000 GPDI31
00001580 l       *ABS*	00000000 GPDI32
00001584 l       *ABS*	00000000 GPDI33
00001588 l       *ABS*	00000000 GPDI34
0000158c l       *ABS*	00000000 GPDI35
00001590 l       *ABS*	00000000 GPDI36
00001594 l       *ABS*	00000000 GPDI37
00001598 l       *ABS*	00000000 GPDI38
0000159c l       *ABS*	00000000 GPDI39
00001700 l       *ABS*	00000000 PGPDO0
00001704 l       *ABS*	00000000 PGPDO1
00001708 l       *ABS*	00000000 PGPDO2
0000170c l       *ABS*	00000000 PGPDO3
00001710 l       *ABS*	00000000 PGPDO4
00001700 l       *ABS*	00000000 POUT_A
00001702 l       *ABS*	00000000 POUT_B
00001704 l       *ABS*	00000000 POUT_C
00001706 l       *ABS*	00000000 POUT_D
00001708 l       *ABS*	00000000 POUT_E
0000170a l       *ABS*	00000000 POUT_F
0000170c l       *ABS*	00000000 POUT_G
0000170e l       *ABS*	00000000 POUT_H
00001710 l       *ABS*	00000000 POUT_I
00001712 l       *ABS*	00000000 POUT_J
00001740 l       *ABS*	00000000 PGPDI0
00001744 l       *ABS*	00000000 PGPDI1
00001748 l       *ABS*	00000000 PGPDI2
0000174c l       *ABS*	00000000 PGPDI3
00001750 l       *ABS*	00000000 PGPDI4
00001740 l       *ABS*	00000000 PIN_A
00001742 l       *ABS*	00000000 PIN_B
00001744 l       *ABS*	00000000 PIN_C
00001746 l       *ABS*	00000000 PIN_D
00001748 l       *ABS*	00000000 PIN_E
0000174a l       *ABS*	00000000 PIN_F
0000174c l       *ABS*	00000000 PIN_G
0000174e l       *ABS*	00000000 PIN_H
00001750 l       *ABS*	00000000 PIN_I
00001752 l       *ABS*	00000000 PIN_J
00000240 l       *ABS*	00000000 MCSR_A0
00000244 l       *ABS*	00000000 MCSR_A1
00000248 l       *ABS*	00000000 MCSR_A2
0000024c l       *ABS*	00000000 MCSR_A3
00000250 l       *ABS*	00000000 MCSR_A4
00000254 l       *ABS*	00000000 MCSR_A5
00000258 l       *ABS*	00000000 MCSR_A6
0000025c l       *ABS*	00000000 MCSR_A7
00000260 l       *ABS*	00000000 MCSR_A8
00000264 l       *ABS*	00000000 MCSR_A9
00000268 l       *ABS*	00000000 MCSR_A10
0000026c l       *ABS*	00000000 MCSR_A11
00000270 l       *ABS*	00000000 MCSR_A12
00000274 l       *ABS*	00000000 MCSR_A13
00000278 l       *ABS*	00000000 MCSR_A14
0000027c l       *ABS*	00000000 MCSR_A15
00000280 l       *ABS*	00000000 MCSR_B0
00000284 l       *ABS*	00000000 MCSR_B1
00000288 l       *ABS*	00000000 MCSR_B2
0000028c l       *ABS*	00000000 MCSR_B3
00000290 l       *ABS*	00000000 MCSR_B4
00000294 l       *ABS*	00000000 MCSR_B5
00000298 l       *ABS*	00000000 MCSR_B6
0000029c l       *ABS*	00000000 MCSR_B7
000002a0 l       *ABS*	00000000 MCSR_B8
000002a4 l       *ABS*	00000000 MCSR_B9
000002a8 l       *ABS*	00000000 MCSR_B10
000002ac l       *ABS*	00000000 MCSR_B11
000002b0 l       *ABS*	00000000 MCSR_B12
000002b4 l       *ABS*	00000000 MCSR_B13
000002b8 l       *ABS*	00000000 MCSR_B14
000002bc l       *ABS*	00000000 MCSR_B15
000002c0 l       *ABS*	00000000 MCSR_C0
000002c4 l       *ABS*	00000000 MCSR_C1
000002c8 l       *ABS*	00000000 MCSR_C2
000002cc l       *ABS*	00000000 MCSR_C3
000002d0 l       *ABS*	00000000 MCSR_C4
000002d4 l       *ABS*	00000000 MCSR_C5
000002d8 l       *ABS*	00000000 MCSR_C6
000002dc l       *ABS*	00000000 MCSR_C7
000002e0 l       *ABS*	00000000 MCSR_C8
000002e4 l       *ABS*	00000000 MCSR_C9
000002e8 l       *ABS*	00000000 MCSR_C10
000002ec l       *ABS*	00000000 MCSR_C11
000002f0 l       *ABS*	00000000 MCSR_C12
000002f4 l       *ABS*	00000000 MCSR_C13
000002f8 l       *ABS*	00000000 MCSR_C14
000002fc l       *ABS*	00000000 MCSR_C15
00000300 l       *ABS*	00000000 MCSR_D0
00000304 l       *ABS*	00000000 MCSR_D1
00000308 l       *ABS*	00000000 MCSR_D2
0000030c l       *ABS*	00000000 MCSR_D3
00000310 l       *ABS*	00000000 MCSR_D4
00000314 l       *ABS*	00000000 MCSR_D5
00000318 l       *ABS*	00000000 MCSR_D6
0000031c l       *ABS*	00000000 MCSR_D7
00000320 l       *ABS*	00000000 MCSR_D8
00000324 l       *ABS*	00000000 MCSR_D9
00000328 l       *ABS*	00000000 MCSR_D10
0000032c l       *ABS*	00000000 MCSR_D11
00000330 l       *ABS*	00000000 MCSR_D12
00000334 l       *ABS*	00000000 MCSR_D13
00000338 l       *ABS*	00000000 MCSR_D14
0000033c l       *ABS*	00000000 MCSR_D15
00000340 l       *ABS*	00000000 MCSR_E0
00000344 l       *ABS*	00000000 MCSR_E1
00000348 l       *ABS*	00000000 MCSR_E2
0000034c l       *ABS*	00000000 MCSR_E3
00000350 l       *ABS*	00000000 MCSR_E4
00000354 l       *ABS*	00000000 MCSR_E5
00000358 l       *ABS*	00000000 MCSR_E6
0000035c l       *ABS*	00000000 MCSR_E7
00000360 l       *ABS*	00000000 MCSR_E8
00000364 l       *ABS*	00000000 MCSR_E9
00000368 l       *ABS*	00000000 MCSR_E10
0000036c l       *ABS*	00000000 MCSR_E11
00000370 l       *ABS*	00000000 MCSR_E12
00000374 l       *ABS*	00000000 MCSR_E13
00000378 l       *ABS*	00000000 MCSR_E14
0000037c l       *ABS*	00000000 MCSR_E15
00000380 l       *ABS*	00000000 MCSR_F0
00000384 l       *ABS*	00000000 MCSR_F1
00000388 l       *ABS*	00000000 MCSR_F2
0000038c l       *ABS*	00000000 MCSR_F3
00000390 l       *ABS*	00000000 MCSR_F4
00000394 l       *ABS*	00000000 MCSR_F5
00000398 l       *ABS*	00000000 MCSR_F6
0000039c l       *ABS*	00000000 MCSR_F7
000003a0 l       *ABS*	00000000 MCSR_F8
000003a4 l       *ABS*	00000000 MCSR_F9
000003a8 l       *ABS*	00000000 MCSR_F10
000003ac l       *ABS*	00000000 MCSR_F11
000003b0 l       *ABS*	00000000 MCSR_F12
000003b4 l       *ABS*	00000000 MCSR_F13
000003b8 l       *ABS*	00000000 MCSR_F14
000003bc l       *ABS*	00000000 MCSR_F15
000003c0 l       *ABS*	00000000 MCSR_G0
000003c4 l       *ABS*	00000000 MCSR_G1
000003c8 l       *ABS*	00000000 MCSR_G2
000003cc l       *ABS*	00000000 MCSR_G3
000003d0 l       *ABS*	00000000 MCSR_G4
000003d4 l       *ABS*	00000000 MCSR_G5
000003d8 l       *ABS*	00000000 MCSR_G6
000003dc l       *ABS*	00000000 MCSR_G7
000003e0 l       *ABS*	00000000 MCSR_G8
000003e4 l       *ABS*	00000000 MCSR_G9
000003e8 l       *ABS*	00000000 MCSR_G10
000003ec l       *ABS*	00000000 MCSR_G11
000003f0 l       *ABS*	00000000 MCSR_G12
000003f4 l       *ABS*	00000000 MCSR_G13
000003f8 l       *ABS*	00000000 MCSR_G14
000003fc l       *ABS*	00000000 MCSR_G15
00000400 l       *ABS*	00000000 MCSR_H0
00000404 l       *ABS*	00000000 MCSR_H1
00000408 l       *ABS*	00000000 MCSR_H2
0000040c l       *ABS*	00000000 MCSR_H3
00000410 l       *ABS*	00000000 MCSR_H4
00000414 l       *ABS*	00000000 MCSR_H5
00000418 l       *ABS*	00000000 MCSR_H6
0000041c l       *ABS*	00000000 MCSR_H7
00000420 l       *ABS*	00000000 MCSR_H8
00000424 l       *ABS*	00000000 MCSR_H9
00000428 l       *ABS*	00000000 MCSR_H10
0000042c l       *ABS*	00000000 MCSR_H11
00000430 l       *ABS*	00000000 MCSR_H12
00000434 l       *ABS*	00000000 MCSR_H13
00000438 l       *ABS*	00000000 MCSR_H14
0000043c l       *ABS*	00000000 MCSR_H15
00000440 l       *ABS*	00000000 MCSR_I0
00000444 l       *ABS*	00000000 MCSR_I1
00000448 l       *ABS*	00000000 MCSR_I2
0000044c l       *ABS*	00000000 MCSR_I3
00000450 l       *ABS*	00000000 MCSR_I4
00000454 l       *ABS*	00000000 MCSR_I5
00000458 l       *ABS*	00000000 MCSR_I6
0000045c l       *ABS*	00000000 MCSR_I7
00000460 l       *ABS*	00000000 MCSR_I8
00000464 l       *ABS*	00000000 MCSR_I9
00000468 l       *ABS*	00000000 MCSR_I10
0000046c l       *ABS*	00000000 MCSR_I11
00000470 l       *ABS*	00000000 MCSR_I12
00000474 l       *ABS*	00000000 MCSR_I13
00000478 l       *ABS*	00000000 MCSR_I14
0000047c l       *ABS*	00000000 MCSR_I15
00000480 l       *ABS*	00000000 MCSR_J0
00000484 l       *ABS*	00000000 MCSR_J1
00000488 l       *ABS*	00000000 MCSR_J2
0000048c l       *ABS*	00000000 MCSR_J3
00000490 l       *ABS*	00000000 MCSR_J4
00000494 l       *ABS*	00000000 MCSR_J5
00000498 l       *ABS*	00000000 MCSR_J6
0000049c l       *ABS*	00000000 MCSR_J7
000004a0 l       *ABS*	00000000 MCSR_J8
000004a4 l       *ABS*	00000000 MCSR_J9
000004a8 l       *ABS*	00000000 MCSR_J10
000004ac l       *ABS*	00000000 MCSR_J11
000004b0 l       *ABS*	00000000 MCSR_J12
000004b4 l       *ABS*	00000000 MCSR_J13
000004b8 l       *ABS*	00000000 MCSR_J14
000004bc l       *ABS*	00000000 MCSR_J15
00000003 l       *ABS*	00000000 MCSR_UNCONNECT
00000088 l       *ABS*	00000000 MCSR_INPUT
00000089 l       *ABS*	00000000 MCSR_INPUT_PU
0000008a l       *ABS*	00000000 MCSR_INPUT_PD
00002288 l       *ABS*	00000000 MCSR_OUTPUT
00002188 l       *ABS*	00000000 MCSR_OUTPUT_OD
0000f405 l       *ABS*	00000000 SWT_BASE
00008000 l       *ABS*	00000000 SWT_CR
00008004 l       *ABS*	00000000 SWT_IR
00008008 l       *ABS*	00000000 SWT_TO
0000800c l       *ABS*	00000000 SWT_WN
00008010 l       *ABS*	00000000 SWT_SR
00008014 l       *ABS*	00000000 SWT_CO
00008018 l       *ABS*	00000000 SWT_SK
0000f7fb l       *ABS*	00000000 ME_BASE
00008000 l       *ABS*	00000000 ME_GS
00008004 l       *ABS*	00000000 ME_MCTL
00008008 l       *ABS*	00000000 ME_ME
0000800c l       *ABS*	00000000 ME_MIS
00008010 l       *ABS*	00000000 ME_IM
00008014 l       *ABS*	00000000 ME_IMTS
00008018 l       *ABS*	00000000 ME_DMTS
00008080 l       *ABS*	00000000 ME_RUN_PC0
00008084 l       *ABS*	00000000 ME_RUN_PC1
00008088 l       *ABS*	00000000 ME_RUN_PC2
0000808c l       *ABS*	00000000 ME_RUN_PC3
00008090 l       *ABS*	00000000 ME_RUN_PC4
00008094 l       *ABS*	00000000 ME_RUN_PC5
00008098 l       *ABS*	00000000 ME_RUN_PC6
0000809c l       *ABS*	00000000 ME_RUN_PC7
0000802c l       *ABS*	00000000 ME_DRUN_MC
0000c3fe l       *ABS*	00000000 FMPLL_BASE
000000a0 l       *ABS*	00000000 FMPLL0_CR
000000c0 l       *ABS*	00000000 FMPLL1_CR
0000ffe4 l       *ABS*	00000000 LINFLEX0_BASE
00000000 l       *ABS*	00000000 LINFLEX0_LINCR1
00000010 l       *ABS*	00000000 LINFLEX0_UARTCR
00000014 l       *ABS*	00000000 LINFLEX0_UARTSR
00000028 l       *ABS*	00000000 LINFLEX0_LINBRR
0000002c l       *ABS*	00000000 LINFLEX0_LINBFRR
00000038 l       *ABS*	00000000 LINFLEX0_BRDL
0000003c l       *ABS*	00000000 LINFLEX0_BRDM
0000f7fe l       *ABS*	00000000 FLASH_BASE
00000000 l       *ABS*	00000000 FLASH_MCR
00000004 l       *ABS*	00000000 FLASH_MCRA
00000008 l       *ABS*	00000000 FLASH_MCRE
00000010 l       *ABS*	00000000 FLASH_LOCK0
00000014 l       *ABS*	00000000 FLASH_LOCK1
00000018 l       *ABS*	00000000 FLASH_LOCK2
0000001c l       *ABS*	00000000 FLASH_LOCK3
00000028 l       *ABS*	00000000 FLASH_LOCK0A
0000002c l       *ABS*	00000000 FLASH_LOCK1A
00000038 l       *ABS*	00000000 FLASH_SEL0
0000003c l       *ABS*	00000000 FLASH_SEL1
00000040 l       *ABS*	00000000 FLASH_SEL2
00000044 l       *ABS*	00000000 FLASH_SEL3
0000004c l       *ABS*	00000000 FLASH_PAR
00000050 l       *ABS*	00000000 FLASH_ADR
00000054 l       *ABS*	00000000 FLASH_UT0
00000058 l       *ABS*	00000000 FLASH_UM0
0000005c l       *ABS*	00000000 FLASH_UM1
00000060 l       *ABS*	00000000 FLASH_UM2
00000064 l       *ABS*	00000000 FLASH_UM3
00000068 l       *ABS*	00000000 FLASH_UM4
0000006c l       *ABS*	00000000 FLASH_UM5
00000070 l       *ABS*	00000000 FLASH_UM6
00000074 l       *ABS*	00000000 FLASH_UM7
00000078 l       *ABS*	00000000 FLASH_UM8
0000007c l       *ABS*	00000000 FLASH_UM9
00000080 l       *ABS*	00000000 FLASH_OPP0
00000084 l       *ABS*	00000000 FLASH_OPP1
00000088 l       *ABS*	00000000 FLASH_OPP2
0000008c l       *ABS*	00000000 FLASH_OPP3
00000090 l       *ABS*	00000000 FLASH_TMD
00000094 l       *ABS*	00000000 FLASH_ALTSEL0
00000098 l       *ABS*	00000000 FLASH_ALTSEL1
00000100 l       *ABS*	00000000 FLASH_ELOCK0
00000104 l       *ABS*	00000000 FLASH_ELOCK1
00000108 l       *ABS*	00000000 FLASH_ELOCK2
0000010c l       *ABS*	00000000 FLASH_ELOCK3
00000110 l       *ABS*	00000000 FLASH_PLOCK0
00000114 l       *ABS*	00000000 FLASH_PLOCK1
00000118 l       *ABS*	00000000 FLASH_PLOCK2
0000011c l       *ABS*	00000000 FLASH_PLOCK3
fff48000 l       *ABS*	00000000 INTC_BASE
fff48010 l       *ABS*	00000000 INTC_IACKR
fff48018 l       *ABS*	00000000 INTC_EOIR
00000800 l       *ABS*	00000000 block_size
00000001 l       *ABS*	00000000 DEBUG_LED
0060c100 l       .text	00000000 main_start
0060c16e l       .text	00000000 rfill_1
0060c1c4 l       .text	00000000 loop
0060c1c8 l       .text	00000000 w1
0060c1dc l       .text	00000000 w2
52800000 g       .data	00000000 __data_start__
52808000 g       .data	00000000 __sdata_start__
00614210 g       .text	00000000 __sdata2_start__
00000000 g       *ABS*	00000000 _reset_address
52800000 g       .data	00000000 __heap_base__
0060c210 g       .text	00000000 __romdata_start__
52800000 g       .stacks	00000000 __main_thread_stack_end__
52810000 g       *ABS*	00000000 __heap_end__
52800000 g       .data	00000000 __bss_start__
00024000 g       *ABS*	00000000 __flash_size__
52800000 g       .data	00000000 __data_end__
52800000 g       .data	00000000 __bss_end__
0060c000 g       .text	00000000 _start
00000000 g       *ABS*	00000000 __irq_stack_size__
00630000 g       *ABS*	00000000 __flash_end__
00010000 g       *ABS*	00000000 __ram_size__
52800000 g       .text	00000000 __ram_start__
52800000 g       .stacks	00000000 __process_stack_base__
52800000 g       .stacks	00000000 __irq_stack_end__
52810000 g       *ABS*	00000000 __ram_end__
52800000 g       .stacks	00000000 __irq_stack_base__
52800000 g       .stacks	00000000 __main_thread_stack_base__
0060c000 g       .text	00000000 __flash_start__
52800000 g       .stacks	00000000 __process_stack_end__
00000000 g       *ABS*	00000000 __process_stack_size__



Disassembly of section .text:

0060c000 <__flash_start__>:
	...

0060c100 <main_start>:
  60c100:	73 1e e4 05 	e_lis   r24,62469
  60c104:	73 30 00 10 	e_li    r25,32784
  60c108:	44 89       	se_or   r25,r24
  60c10a:	73 98 05 20 	e_li    r28,50464
  60c10e:	57 99 00 00 	e_stw   r28,0(r25)
  60c112:	73 9b 01 28 	e_li    r28,55592
  60c116:	57 99 00 00 	e_stw   r28,0(r25)
  60c11a:	73 30 00 00 	e_li    r25,32768
  60c11e:	44 89       	se_or   r25,r24
  60c120:	53 99 00 00 	e_lwz   r28,0(r25)
  60c124:	77 9c 00 3d 	e_rlwinm r28,r28,0,0,30
  60c128:	57 99 00 00 	e_stw   r28,0(r25)
  60c12c:	73 1e e7 fb 	e_lis   r24,63483
  60c130:	73 30 00 80 	e_li    r25,32896
  60c134:	44 89       	se_or   r25,r24
  60c136:	73 80 00 fe 	e_li    r28,254
  60c13a:	57 99 00 00 	e_stw   r28,0(r25)
  60c13e:	73 30 00 04 	e_li    r25,32772
  60c142:	44 89       	se_or   r25,r24
  60c144:	73 a6 e0 00 	e_lis   r29,12288
  60c148:	73 8b 02 f0 	e_li    r28,23280
  60c14c:	44 dc       	se_or   r28,r29
  60c14e:	d0 c9       	se_stw  r28,0(r25)
  60c150:	73 94 05 0f 	e_li    r28,42255
  60c154:	44 dc       	se_or   r28,r29
  60c156:	d0 c9       	se_stw  r28,0(r25)
  60c158:	73 8a e2 80 	e_lis   r28,21120
  60c15c:	73 a1 00 00 	e_li    r29,2048
  60c160:	44 dc       	se_or   r28,r29
  60c162:	73 c0 00 00 	e_li    r30,0
  60c166:	73 e0 00 00 	e_li    r31,0
  60c16a:	73 60 00 00 	e_li    r27,0

0060c16e <rfill_1>:
  60c16e:	1b dc 09 00 	e_stmw  r30,0(r28)
  60c172:	1f 9c 00 08 	e_add16i r28,r28,8
  60c176:	1f 7b 00 01 	e_add16i r27,r27,1
  60c17a:	70 7b 9f 00 	e_cmp16i r27,7936
  60c17e:	e2 f8       	se_bne  60c16e <rfill_1>
  60c180:	70 2a e2 80 	e_lis   r1,21120
  60c184:	73 3f 07 fc 	e_li    r25,65532
  60c188:	44 91       	se_or   r1,r25
  60c18a:	73 3e e7 fc 	e_lis   r25,63484
  60c18e:	73 84 e2 88 	e_lis   r28,8840
  60c192:	57 99 04 44 	e_stw   r28,1092(r25)
  60c196:	57 99 04 48 	e_stw   r28,1096(r25)
  60c19a:	73 be e7 fe 	e_lis   r29,63486
  60c19e:	73 d0 e0 00 	e_lis   r30,32768
  60c1a2:	57 dd 00 10 	e_stw   r30,16(r29)
  60c1a6:	73 df e7 ff 	e_lis   r30,65535
  60c1aa:	57 dd 00 14 	e_stw   r30,20(r29)
  60c1ae:	73 c0 e0 00 	e_lis   r30,0
  60c1b2:	57 dd 00 18 	e_stw   r30,24(r29)
  60c1b6:	57 dd 00 1c 	e_stw   r30,28(r29)
  60c1ba:	70 ca e2 80 	e_lis   r6,21120
  60c1be:	70 a0 00 80 	e_li    r5,128
  60c1c2:	44 56       	se_or   r6,r5

0060c1c4 <loop>:
  60c1c4:	70 60 e0 08 	e_lis   r3,8

0060c1c8 <w1>:
  60c1c8:	26 03       	se_subi. r3,1
  60c1ca:	e2 ff       	se_bne  60c1c8 <w1>
  60c1cc:	48 1c       	se_li   r28,1
  60c1ce:	37 99 13 81 	e_stb   r28,4993(r25)
  60c1d2:	48 0c       	se_li   r28,0
  60c1d4:	37 99 13 82 	e_stb   r28,4994(r25)
  60c1d8:	70 60 e0 08 	e_lis   r3,8

0060c1dc <w2>:
  60c1dc:	26 03       	se_subi. r3,1
  60c1de:	e2 ff       	se_bne  60c1dc <w2>
  60c1e0:	50 f9 17 10 	e_lwz   r7,5904(r25)
  60c1e4:	d2 76       	se_stw  r7,8(r6)
  60c1e6:	48 0c       	se_li   r28,0
  60c1e8:	37 99 13 81 	e_stb   r28,4993(r25)
  60c1ec:	48 1c       	se_li   r28,1
  60c1ee:	37 99 13 82 	e_stb   r28,4994(r25)
  60c1f2:	50 f9 00 04 	e_lwz   r7,4(r25)
  60c1f6:	d0 76       	se_stw  r7,0(r6)
  60c1f8:	50 f9 00 08 	e_lwz   r7,8(r25)
  60c1fc:	d1 76       	se_stw  r7,4(r6)
  60c1fe:	50 f9 04 44 	e_lwz   r7,1092(r25)
  60c202:	d2 76       	se_stw  r7,8(r6)
  60c204:	50 f9 17 10 	e_lwz   r7,5904(r25)
  60c208:	d3 76       	se_stw  r7,12(r6)
  60c20a:	e8 dd       	se_b    60c1c4 <loop>

Disassembly of section .PPC.EMB.apuinfo:

00000000 <.PPC.EMB.apuinfo>:
   0:	00 00 00 08 	.long 0x8
   4:	00 00 00 04 	.long 0x4
   8:	00 00 00 02 	.long 0x2
   c:	41 50 55 69 	bdztl   4*cr4+lt,5574 <MCSR_OUTPUT+0x32ec>
  10:	6e 66 6f 00 	xoris   r6,r19,28416
  14:	01 04 00 01 	.long 0x1040001

boot.elf:     file format elf32-powerpc
boot.elf
architecture: powerpc:common, flags 0x00000112:
EXEC_P, HAS_SYMS, D_PAGED
start address 0x00000000

Program Header:
    LOAD off    0x00010000 vaddr 0x52800000 paddr 0x52800000 align 2**16
         filesz 0x0000020c memsz 0x0000020c flags r-x
    LOAD off    0x0001020c vaddr 0x5280020c paddr 0x5280020c align 2**16
         filesz 0x00000000 memsz 0x00000004 flags rwx
    LOAD off    0x00010210 vaddr 0x52800210 paddr 0x52800210 align 2**16
         filesz 0x00000000 memsz 0x00000000 flags rw-

Sections:
Idx Name          Size      VMA       LMA       File off  Algn
  0 .text         0000020c  52800000  52800000  00010000  2**4
                  CONTENTS, ALLOC, LOAD, READONLY, CODE, VLE
  1 .stacks       00000004  5280020c  5280020c  0001020c  2**0
                  ALLOC
  2 .data         00000000  52800210  52800210  00010210  2**0
                  CONTENTS, ALLOC, LOAD, DATA
  3 .PPC.EMB.apuinfo 00000018  00000000  00000000  00010210  2**0
                  CONTENTS, READONLY
SYMBOL TABLE:
52800000 l    d  .text	00000000 .text
5280020c l    d  .stacks	00000000 .stacks
52800210 l    d  .data	00000000 .data
00000000 l    d  .PPC.EMB.apuinfo	00000000 .PPC.EMB.apuinfo
00000000 l    df *ABS*	00000000 build/src/boot.o
00000000 l       *ABS*	00000000 r0
00000001 l       *ABS*	00000000 r1
00000001 l       *ABS*	00000000 rsp
00000002 l       *ABS*	00000000 r2
00000003 l       *ABS*	00000000 r3
00000004 l       *ABS*	00000000 r4
00000005 l       *ABS*	00000000 r5
00000006 l       *ABS*	00000000 r6
00000007 l       *ABS*	00000000 r7
00000008 l       *ABS*	00000000 r8
00000009 l       *ABS*	00000000 r9
0000000a l       *ABS*	00000000 r10
0000000b l       *ABS*	00000000 r11
0000000c l       *ABS*	00000000 r12
0000000d l       *ABS*	00000000 r13
0000000e l       *ABS*	00000000 r14
0000000f l       *ABS*	00000000 r15
00000010 l       *ABS*	00000000 r16
00000011 l       *ABS*	00000000 r17
00000012 l       *ABS*	00000000 r18
00000013 l       *ABS*	00000000 r19
00000014 l       *ABS*	00000000 r20
00000015 l       *ABS*	00000000 r21
00000016 l       *ABS*	00000000 r22
00000017 l       *ABS*	00000000 r23
00000018 l       *ABS*	00000000 r24
00000019 l       *ABS*	00000000 r25
0000001a l       *ABS*	00000000 r26
0000001b l       *ABS*	00000000 r27
0000001c l       *ABS*	00000000 r28
0000001d l       *ABS*	00000000 r29
0000001e l       *ABS*	00000000 r30
0000001f l       *ABS*	00000000 r31
0000f7fc l       *ABS*	00000000 SIUL_BASE
00001300 l       *ABS*	00000000 GPDO0
00001304 l       *ABS*	00000000 GPDO1
00001308 l       *ABS*	00000000 GPDO2
0000130c l       *ABS*	00000000 GPDO3
00001310 l       *ABS*	00000000 GPDO4
00001314 l       *ABS*	00000000 GPDO5
00001318 l       *ABS*	00000000 GPDO6
0000131c l       *ABS*	00000000 GPDO7
00001320 l       *ABS*	00000000 GPDO8
00001324 l       *ABS*	00000000 GPDO9
00001328 l       *ABS*	00000000 GPDO10
0000132c l       *ABS*	00000000 GPDO11
00001330 l       *ABS*	00000000 GPDO12
00001334 l       *ABS*	00000000 GPDO13
00001338 l       *ABS*	00000000 GPDO14
0000133c l       *ABS*	00000000 GPDO15
00001340 l       *ABS*	00000000 GPDO16
00001344 l       *ABS*	00000000 GPDO17
00001348 l       *ABS*	00000000 GPDO18
0000134c l       *ABS*	00000000 GPDO19
00001350 l       *ABS*	00000000 GPDO20
00001354 l       *ABS*	00000000 GPDO21
00001358 l       *ABS*	00000000 GPDO22
0000135c l       *ABS*	00000000 GPDO23
00001360 l       *ABS*	00000000 GPDO24
00001364 l       *ABS*	00000000 GPDO25
00001368 l       *ABS*	00000000 GPDO26
0000136c l       *ABS*	00000000 GPDO27
00001370 l       *ABS*	00000000 GPDO28
00001374 l       *ABS*	00000000 GPDO29
00001378 l       *ABS*	00000000 GPDO30
0000137c l       *ABS*	00000000 GPDO31
00001380 l       *ABS*	00000000 GPDO32
00001384 l       *ABS*	00000000 GPDO33
00001388 l       *ABS*	00000000 GPDO34
0000138c l       *ABS*	00000000 GPDO35
00001390 l       *ABS*	00000000 GPDO36
00001394 l       *ABS*	00000000 GPDO37
00001398 l       *ABS*	00000000 GPDO38
0000139c l       *ABS*	00000000 GPDO39
00001500 l       *ABS*	00000000 GPDI0
00001504 l       *ABS*	00000000 GPDI1
00001508 l       *ABS*	00000000 GPDI2
0000150c l       *ABS*	00000000 GPDI3
00001510 l       *ABS*	00000000 GPDI4
00001514 l       *ABS*	00000000 GPDI5
00001518 l       *ABS*	00000000 GPDI6
0000151c l       *ABS*	00000000 GPDI7
00001520 l       *ABS*	00000000 GPDI8
00001524 l       *ABS*	00000000 GPDI9
00001528 l       *ABS*	00000000 GPDI10
0000152c l       *ABS*	00000000 GPDI11
00001530 l       *ABS*	00000000 GPDI12
00001534 l       *ABS*	00000000 GPDI13
00001538 l       *ABS*	00000000 GPDI14
0000153c l       *ABS*	00000000 GPDI15
00001540 l       *ABS*	00000000 GPDI16
00001544 l       *ABS*	00000000 GPDI17
00001548 l       *ABS*	00000000 GPDI18
0000154c l       *ABS*	00000000 GPDI19
00001550 l       *ABS*	00000000 GPDI20
00001554 l       *ABS*	00000000 GPDI21
00001558 l       *ABS*	00000000 GPDI22
0000155c l       *ABS*	00000000 GPDI23
00001560 l       *ABS*	00000000 GPDI24
00001564 l       *ABS*	00000000 GPDI25
00001568 l       *ABS*	00000000 GPDI26
0000156c l       *ABS*	00000000 GPDI27
00001570 l       *ABS*	00000000 GPDI28
00001574 l       *ABS*	00000000 GPDI29
00001578 l       *ABS*	00000000 GPDI30
0000157c l       *ABS*	00000000 GPDI31
00001580 l       *ABS*	00000000 GPDI32
00001584 l       *ABS*	00000000 GPDI33
00001588 l       *ABS*	00000000 GPDI34
0000158c l       *ABS*	00000000 GPDI35
00001590 l       *ABS*	00000000 GPDI36
00001594 l       *ABS*	00000000 GPDI37
00001598 l       *ABS*	00000000 GPDI38
0000159c l       *ABS*	00000000 GPDI39
00001700 l       *ABS*	00000000 PGPDO0
00001704 l       *ABS*	00000000 PGPDO1
00001708 l       *ABS*	00000000 PGPDO2
0000170c l       *ABS*	00000000 PGPDO3
00001710 l       *ABS*	00000000 PGPDO4
00001700 l       *ABS*	00000000 POUT_A
00001702 l       *ABS*	00000000 POUT_B
00001704 l       *ABS*	00000000 POUT_C
00001706 l       *ABS*	00000000 POUT_D
00001708 l       *ABS*	00000000 POUT_E
0000170a l       *ABS*	00000000 POUT_F
0000170c l       *ABS*	00000000 POUT_G
0000170e l       *ABS*	00000000 POUT_H
00001710 l       *ABS*	00000000 POUT_I
00001712 l       *ABS*	00000000 POUT_J
00001740 l       *ABS*	00000000 PGPDI0
00001744 l       *ABS*	00000000 PGPDI1
00001748 l       *ABS*	00000000 PGPDI2
0000174c l       *ABS*	00000000 PGPDI3
00001750 l       *ABS*	00000000 PGPDI4
00001740 l       *ABS*	00000000 PIN_A
00001742 l       *ABS*	00000000 PIN_B
00001744 l       *ABS*	00000000 PIN_C
00001746 l       *ABS*	00000000 PIN_D
00001748 l       *ABS*	00000000 PIN_E
0000174a l       *ABS*	00000000 PIN_F
0000174c l       *ABS*	00000000 PIN_G
0000174e l       *ABS*	00000000 PIN_H
00001750 l       *ABS*	00000000 PIN_I
00001752 l       *ABS*	00000000 PIN_J
00000240 l       *ABS*	00000000 MCSR_A0
00000244 l       *ABS*	00000000 MCSR_A1
00000248 l       *ABS*	00000000 MCSR_A2
0000024c l       *ABS*	00000000 MCSR_A3
00000250 l       *ABS*	00000000 MCSR_A4
00000254 l       *ABS*	00000000 MCSR_A5
00000258 l       *ABS*	00000000 MCSR_A6
0000025c l       *ABS*	00000000 MCSR_A7
00000260 l       *ABS*	00000000 MCSR_A8
00000264 l       *ABS*	00000000 MCSR_A9
00000268 l       *ABS*	00000000 MCSR_A10
0000026c l       *ABS*	00000000 MCSR_A11
00000270 l       *ABS*	00000000 MCSR_A12
00000274 l       *ABS*	00000000 MCSR_A13
00000278 l       *ABS*	00000000 MCSR_A14
0000027c l       *ABS*	00000000 MCSR_A15
00000280 l       *ABS*	00000000 MCSR_B0
00000284 l       *ABS*	00000000 MCSR_B1
00000288 l       *ABS*	00000000 MCSR_B2
0000028c l       *ABS*	00000000 MCSR_B3
00000290 l       *ABS*	00000000 MCSR_B4
00000294 l       *ABS*	00000000 MCSR_B5
00000298 l       *ABS*	00000000 MCSR_B6
0000029c l       *ABS*	00000000 MCSR_B7
000002a0 l       *ABS*	00000000 MCSR_B8
000002a4 l       *ABS*	00000000 MCSR_B9
000002a8 l       *ABS*	00000000 MCSR_B10
000002ac l       *ABS*	00000000 MCSR_B11
000002b0 l       *ABS*	00000000 MCSR_B12
000002b4 l       *ABS*	00000000 MCSR_B13
000002b8 l       *ABS*	00000000 MCSR_B14
000002bc l       *ABS*	00000000 MCSR_B15
000002c0 l       *ABS*	00000000 MCSR_C0
000002c4 l       *ABS*	00000000 MCSR_C1
000002c8 l       *ABS*	00000000 MCSR_C2
000002cc l       *ABS*	00000000 MCSR_C3
000002d0 l       *ABS*	00000000 MCSR_C4
000002d4 l       *ABS*	00000000 MCSR_C5
000002d8 l       *ABS*	00000000 MCSR_C6
000002dc l       *ABS*	00000000 MCSR_C7
000002e0 l       *ABS*	00000000 MCSR_C8
000002e4 l       *ABS*	00000000 MCSR_C9
000002e8 l       *ABS*	00000000 MCSR_C10
000002ec l       *ABS*	00000000 MCSR_C11
000002f0 l       *ABS*	00000000 MCSR_C12
000002f4 l       *ABS*	00000000 MCSR_C13
000002f8 l       *ABS*	00000000 MCSR_C14
000002fc l       *ABS*	00000000 MCSR_C15
00000300 l       *ABS*	00000000 MCSR_D0
00000304 l       *ABS*	00000000 MCSR_D1
00000308 l       *ABS*	00000000 MCSR_D2
0000030c l       *ABS*	00000000 MCSR_D3
00000310 l       *ABS*	00000000 MCSR_D4
00000314 l       *ABS*	00000000 MCSR_D5
00000318 l       *ABS*	00000000 MCSR_D6
0000031c l       *ABS*	00000000 MCSR_D7
00000320 l       *ABS*	00000000 MCSR_D8
00000324 l       *ABS*	00000000 MCSR_D9
00000328 l       *ABS*	00000000 MCSR_D10
0000032c l       *ABS*	00000000 MCSR_D11
00000330 l       *ABS*	00000000 MCSR_D12
00000334 l       *ABS*	00000000 MCSR_D13
00000338 l       *ABS*	00000000 MCSR_D14
0000033c l       *ABS*	00000000 MCSR_D15
00000340 l       *ABS*	00000000 MCSR_E0
00000344 l       *ABS*	00000000 MCSR_E1
00000348 l       *ABS*	00000000 MCSR_E2
0000034c l       *ABS*	00000000 MCSR_E3
00000350 l       *ABS*	00000000 MCSR_E4
00000354 l       *ABS*	00000000 MCSR_E5
00000358 l       *ABS*	00000000 MCSR_E6
0000035c l       *ABS*	00000000 MCSR_E7
00000360 l       *ABS*	00000000 MCSR_E8
00000364 l       *ABS*	00000000 MCSR_E9
00000368 l       *ABS*	00000000 MCSR_E10
0000036c l       *ABS*	00000000 MCSR_E11
00000370 l       *ABS*	00000000 MCSR_E12
00000374 l       *ABS*	00000000 MCSR_E13
00000378 l       *ABS*	00000000 MCSR_E14
0000037c l       *ABS*	00000000 MCSR_E15
00000380 l       *ABS*	00000000 MCSR_F0
00000384 l       *ABS*	00000000 MCSR_F1
00000388 l       *ABS*	00000000 MCSR_F2
0000038c l       *ABS*	00000000 MCSR_F3
00000390 l       *ABS*	00000000 MCSR_F4
00000394 l       *ABS*	00000000 MCSR_F5
00000398 l       *ABS*	00000000 MCSR_F6
0000039c l       *ABS*	00000000 MCSR_F7
000003a0 l       *ABS*	00000000 MCSR_F8
000003a4 l       *ABS*	00000000 MCSR_F9
000003a8 l       *ABS*	00000000 MCSR_F10
000003ac l       *ABS*	00000000 MCSR_F11
000003b0 l       *ABS*	00000000 MCSR_F12
000003b4 l       *ABS*	00000000 MCSR_F13
000003b8 l       *ABS*	00000000 MCSR_F14
000003bc l       *ABS*	00000000 MCSR_F15
000003c0 l       *ABS*	00000000 MCSR_G0
000003c4 l       *ABS*	00000000 MCSR_G1
000003c8 l       *ABS*	00000000 MCSR_G2
000003cc l       *ABS*	00000000 MCSR_G3
000003d0 l       *ABS*	00000000 MCSR_G4
000003d4 l       *ABS*	00000000 MCSR_G5
000003d8 l       *ABS*	00000000 MCSR_G6
000003dc l       *ABS*	00000000 MCSR_G7
000003e0 l       *ABS*	00000000 MCSR_G8
000003e4 l       *ABS*	00000000 MCSR_G9
000003e8 l       *ABS*	00000000 MCSR_G10
000003ec l       *ABS*	00000000 MCSR_G11
000003f0 l       *ABS*	00000000 MCSR_G12
000003f4 l       *ABS*	00000000 MCSR_G13
000003f8 l       *ABS*	00000000 MCSR_G14
000003fc l       *ABS*	00000000 MCSR_G15
00000400 l       *ABS*	00000000 MCSR_H0
00000404 l       *ABS*	00000000 MCSR_H1
00000408 l       *ABS*	00000000 MCSR_H2
0000040c l       *ABS*	00000000 MCSR_H3
00000410 l       *ABS*	00000000 MCSR_H4
00000414 l       *ABS*	00000000 MCSR_H5
00000418 l       *ABS*	00000000 MCSR_H6
0000041c l       *ABS*	00000000 MCSR_H7
00000420 l       *ABS*	00000000 MCSR_H8
00000424 l       *ABS*	00000000 MCSR_H9
00000428 l       *ABS*	00000000 MCSR_H10
0000042c l       *ABS*	00000000 MCSR_H11
00000430 l       *ABS*	00000000 MCSR_H12
00000434 l       *ABS*	00000000 MCSR_H13
00000438 l       *ABS*	00000000 MCSR_H14
0000043c l       *ABS*	00000000 MCSR_H15
00000440 l       *ABS*	00000000 MCSR_I0
00000444 l       *ABS*	00000000 MCSR_I1
00000448 l       *ABS*	00000000 MCSR_I2
0000044c l       *ABS*	00000000 MCSR_I3
00000450 l       *ABS*	00000000 MCSR_I4
00000454 l       *ABS*	00000000 MCSR_I5
00000458 l       *ABS*	00000000 MCSR_I6
0000045c l       *ABS*	00000000 MCSR_I7
00000460 l       *ABS*	00000000 MCSR_I8
00000464 l       *ABS*	00000000 MCSR_I9
00000468 l       *ABS*	00000000 MCSR_I10
0000046c l       *ABS*	00000000 MCSR_I11
00000470 l       *ABS*	00000000 MCSR_I12
00000474 l       *ABS*	00000000 MCSR_I13
00000478 l       *ABS*	00000000 MCSR_I14
0000047c l       *ABS*	00000000 MCSR_I15
00000480 l       *ABS*	00000000 MCSR_J0
00000484 l       *ABS*	00000000 MCSR_J1
00000488 l       *ABS*	00000000 MCSR_J2
0000048c l       *ABS*	00000000 MCSR_J3
00000490 l       *ABS*	00000000 MCSR_J4
00000494 l       *ABS*	00000000 MCSR_J5
00000498 l       *ABS*	00000000 MCSR_J6
0000049c l       *ABS*	00000000 MCSR_J7
000004a0 l       *ABS*	00000000 MCSR_J8
000004a4 l       *ABS*	00000000 MCSR_J9
000004a8 l       *ABS*	00000000 MCSR_J10
000004ac l       *ABS*	00000000 MCSR_J11
000004b0 l       *ABS*	00000000 MCSR_J12
000004b4 l       *ABS*	00000000 MCSR_J13
000004b8 l       *ABS*	00000000 MCSR_J14
000004bc l       *ABS*	00000000 MCSR_J15
00000003 l       *ABS*	00000000 MCSR_UNCONNECT
00000088 l       *ABS*	00000000 MCSR_INPUT
00000089 l       *ABS*	00000000 MCSR_INPUT_PU
0000008a l       *ABS*	00000000 MCSR_INPUT_PD
00002288 l       *ABS*	00000000 MCSR_OUTPUT
00002188 l       *ABS*	00000000 MCSR_OUTPUT_OD
0000f405 l       *ABS*	00000000 SWT_BASE
00008000 l       *ABS*	00000000 SWT_CR
00008004 l       *ABS*	00000000 SWT_IR
00008008 l       *ABS*	00000000 SWT_TO
0000800c l       *ABS*	00000000 SWT_WN
00008010 l       *ABS*	00000000 SWT_SR
00008014 l       *ABS*	00000000 SWT_CO
00008018 l       *ABS*	00000000 SWT_SK
0000f7fb l       *ABS*	00000000 ME_BASE
00008000 l       *ABS*	00000000 ME_GS
00008004 l       *ABS*	00000000 ME_MCTL
00008008 l       *ABS*	00000000 ME_ME
0000800c l       *ABS*	00000000 ME_MIS
00008010 l       *ABS*	00000000 ME_IM
00008014 l       *ABS*	00000000 ME_IMTS
00008018 l       *ABS*	00000000 ME_DMTS
00008080 l       *ABS*	00000000 ME_RUN_PC0
00008084 l       *ABS*	00000000 ME_RUN_PC1
00008088 l       *ABS*	00000000 ME_RUN_PC2
0000808c l       *ABS*	00000000 ME_RUN_PC3
00008090 l       *ABS*	00000000 ME_RUN_PC4
00008094 l       *ABS*	00000000 ME_RUN_PC5
00008098 l       *ABS*	00000000 ME_RUN_PC6
0000809c l       *ABS*	00000000 ME_RUN_PC7
0000802c l       *ABS*	00000000 ME_DRUN_MC
0000c3fe l       *ABS*	00000000 FMPLL_BASE
000000a0 l       *ABS*	00000000 FMPLL0_CR
000000c0 l       *ABS*	00000000 FMPLL1_CR
0000ffe4 l       *ABS*	00000000 LINFLEX0_BASE
00000000 l       *ABS*	00000000 LINFLEX0_LINCR1
00000010 l       *ABS*	00000000 LINFLEX0_UARTCR
00000014 l       *ABS*	00000000 LINFLEX0_UARTSR
00000028 l       *ABS*	00000000 LINFLEX0_LINBRR
0000002c l       *ABS*	00000000 LINFLEX0_LINBFRR
00000038 l       *ABS*	00000000 LINFLEX0_BRDL
0000003c l       *ABS*	00000000 LINFLEX0_BRDM
0000f7fe l       *ABS*	00000000 FLASH_BASE
00000000 l       *ABS*	00000000 FLASH_MCR
00000004 l       *ABS*	00000000 FLASH_MCRA
00000008 l       *ABS*	00000000 FLASH_MCRE
00000010 l       *ABS*	00000000 FLASH_LOCK0
00000014 l       *ABS*	00000000 FLASH_LOCK1
00000018 l       *ABS*	00000000 FLASH_LOCK2
0000001c l       *ABS*	00000000 FLASH_LOCK3
00000028 l       *ABS*	00000000 FLASH_LOCK0A
0000002c l       *ABS*	00000000 FLASH_LOCK1A
00000038 l       *ABS*	00000000 FLASH_SEL0
0000003c l       *ABS*	00000000 FLASH_SEL1
00000040 l       *ABS*	00000000 FLASH_SEL2
00000044 l       *ABS*	00000000 FLASH_SEL3
0000004c l       *ABS*	00000000 FLASH_PAR
00000050 l       *ABS*	00000000 FLASH_ADR
00000054 l       *ABS*	00000000 FLASH_UT0
00000058 l       *ABS*	00000000 FLASH_UM0
0000005c l       *ABS*	00000000 FLASH_UM1
00000060 l       *ABS*	00000000 FLASH_UM2
00000064 l       *ABS*	00000000 FLASH_UM3
00000068 l       *ABS*	00000000 FLASH_UM4
0000006c l       *ABS*	00000000 FLASH_UM5
00000070 l       *ABS*	00000000 FLASH_UM6
00000074 l       *ABS*	00000000 FLASH_UM7
00000078 l       *ABS*	00000000 FLASH_UM8
0000007c l       *ABS*	00000000 FLASH_UM9
00000080 l       *ABS*	00000000 FLASH_OPP0
00000084 l       *ABS*	00000000 FLASH_OPP1
00000088 l       *ABS*	00000000 FLASH_OPP2
0000008c l       *ABS*	00000000 FLASH_OPP3
00000090 l       *ABS*	00000000 FLASH_TMD
00000094 l       *ABS*	00000000 FLASH_ALTSEL0
00000098 l       *ABS*	00000000 FLASH_ALTSEL1
00000100 l       *ABS*	00000000 FLASH_ELOCK0
00000104 l       *ABS*	00000000 FLASH_ELOCK1
00000108 l       *ABS*	00000000 FLASH_ELOCK2
0000010c l       *ABS*	00000000 FLASH_ELOCK3
00000110 l       *ABS*	00000000 FLASH_PLOCK0
00000114 l       *ABS*	00000000 FLASH_PLOCK1
00000118 l       *ABS*	00000000 FLASH_PLOCK2
0000011c l       *ABS*	00000000 FLASH_PLOCK3
fff48000 l       *ABS*	00000000 INTC_BASE
fff48010 l       *ABS*	00000000 INTC_IACKR
fff48018 l       *ABS*	00000000 INTC_EOIR
00000800 l       *ABS*	00000000 block_size
00000001 l       *ABS*	00000000 DEBUG_LED
52800100 l       .text	00000000 main_start
5280016e l       .text	00000000 rfill_1
528001c4 l       .text	00000000 loop
528001c8 l       .text	00000000 w1
528001dc l       .text	00000000 w2
52800210 g       .data	00000000 __data_start__
52808210 g       .data	00000000 __sdata_start__
52808210 g       .text	00000000 __sdata2_start__
00000000 g       *ABS*	00000000 _reset_address
52800210 g       .data	00000000 __heap_base__
52800210 g       .text	00000000 __romdata_start__
52800210 g       .stacks	00000000 __main_thread_stack_end__
52810000 g       *ABS*	00000000 __heap_end__
52800210 g       .data	00000000 __bss_start__
ffffffff g       *ABS*	00000000 __flash_size__
52800210 g       .data	00000000 __data_end__
52800210 g       .data	00000000 __bss_end__
52800000 g       .text	00000000 _start
00000000 g       *ABS*	00000000 __irq_stack_size__
ffffffff g       *ABS*	00000000 __flash_end__
00010000 g       *ABS*	00000000 __ram_size__
52800000 g       .text	00000000 __ram_start__
52800210 g       .stacks	00000000 __process_stack_base__
52800210 g       .stacks	00000000 __irq_stack_end__
52810000 g       *ABS*	00000000 __ram_end__
52800210 g       .stacks	00000000 __irq_stack_base__
52800210 g       .stacks	00000000 __main_thread_stack_base__
00000000 g       .text	00000000 __flash_start__
52800210 g       .stacks	00000000 __process_stack_end__
00000000 g       *ABS*	00000000 __process_stack_size__



Disassembly of section .text:

52800000 <__ram_start__>:
	...

52800100 <main_start>:
52800100:	73 1e e4 05 	e_lis   r24,62469
52800104:	73 30 00 10 	e_li    r25,32784
52800108:	44 89       	se_or   r25,r24
5280010a:	73 98 05 20 	e_li    r28,50464
5280010e:	57 99 00 00 	e_stw   r28,0(r25)
52800112:	73 9b 01 28 	e_li    r28,55592
52800116:	57 99 00 00 	e_stw   r28,0(r25)
5280011a:	73 30 00 00 	e_li    r25,32768
5280011e:	44 89       	se_or   r25,r24
52800120:	53 99 00 00 	e_lwz   r28,0(r25)
52800124:	77 9c 00 3d 	e_rlwinm r28,r28,0,0,30
52800128:	57 99 00 00 	e_stw   r28,0(r25)
5280012c:	73 1e e7 fb 	e_lis   r24,63483
52800130:	73 30 00 80 	e_li    r25,32896
52800134:	44 89       	se_or   r25,r24
52800136:	73 80 00 fe 	e_li    r28,254
5280013a:	57 99 00 00 	e_stw   r28,0(r25)
5280013e:	73 30 00 04 	e_li    r25,32772
52800142:	44 89       	se_or   r25,r24
52800144:	73 a6 e0 00 	e_lis   r29,12288
52800148:	73 8b 02 f0 	e_li    r28,23280
5280014c:	44 dc       	se_or   r28,r29
5280014e:	d0 c9       	se_stw  r28,0(r25)
52800150:	73 94 05 0f 	e_li    r28,42255
52800154:	44 dc       	se_or   r28,r29
52800156:	d0 c9       	se_stw  r28,0(r25)
52800158:	73 8a e2 80 	e_lis   r28,21120
5280015c:	73 a1 00 00 	e_li    r29,2048
52800160:	44 dc       	se_or   r28,r29
52800162:	73 c0 00 00 	e_li    r30,0
52800166:	73 e0 00 00 	e_li    r31,0
5280016a:	73 60 00 00 	e_li    r27,0

5280016e <rfill_1>:
5280016e:	1b dc 09 00 	e_stmw  r30,0(r28)
52800172:	1f 9c 00 08 	e_add16i r28,r28,8
52800176:	1f 7b 00 01 	e_add16i r27,r27,1
5280017a:	70 7b 9f 00 	e_cmp16i r27,7936
5280017e:	e2 f8       	se_bne  5280016e <rfill_1>
52800180:	70 2a e2 80 	e_lis   r1,21120
52800184:	73 3f 07 fc 	e_li    r25,65532
52800188:	44 91       	se_or   r1,r25
5280018a:	73 3e e7 fc 	e_lis   r25,63484
5280018e:	73 84 e2 88 	e_lis   r28,8840
52800192:	57 99 04 44 	e_stw   r28,1092(r25)
52800196:	57 99 04 48 	e_stw   r28,1096(r25)
5280019a:	73 be e7 fe 	e_lis   r29,63486
5280019e:	73 d0 e0 00 	e_lis   r30,32768
528001a2:	57 dd 00 10 	e_stw   r30,16(r29)
528001a6:	73 df e7 ff 	e_lis   r30,65535
528001aa:	57 dd 00 14 	e_stw   r30,20(r29)
528001ae:	73 c0 e0 00 	e_lis   r30,0
528001b2:	57 dd 00 18 	e_stw   r30,24(r29)
528001b6:	57 dd 00 1c 	e_stw   r30,28(r29)
528001ba:	70 ca e2 80 	e_lis   r6,21120
528001be:	70 a0 00 80 	e_li    r5,128
528001c2:	44 56       	se_or   r6,r5

528001c4 <loop>:
528001c4:	70 60 e0 08 	e_lis   r3,8

528001c8 <w1>:
528001c8:	26 03       	se_subi. r3,1
528001ca:	e2 ff       	se_bne  528001c8 <w1>
528001cc:	48 1c       	se_li   r28,1
528001ce:	37 99 13 81 	e_stb   r28,4993(r25)
528001d2:	48 0c       	se_li   r28,0
528001d4:	37 99 13 82 	e_stb   r28,4994(r25)
528001d8:	70 60 e0 08 	e_lis   r3,8

528001dc <w2>:
528001dc:	26 03       	se_subi. r3,1
528001de:	e2 ff       	se_bne  528001dc <w2>
528001e0:	50 f9 17 10 	e_lwz   r7,5904(r25)
528001e4:	d2 76       	se_stw  r7,8(r6)
528001e6:	48 0c       	se_li   r28,0
528001e8:	37 99 13 81 	e_stb   r28,4993(r25)
528001ec:	48 1c       	se_li   r28,1
528001ee:	37 99 13 82 	e_stb   r28,4994(r25)
528001f2:	50 f9 00 04 	e_lwz   r7,4(r25)
528001f6:	d0 76       	se_stw  r7,0(r6)
528001f8:	50 f9 00 08 	e_lwz   r7,8(r25)
528001fc:	d1 76       	se_stw  r7,4(r6)
528001fe:	50 f9 04 44 	e_lwz   r7,1092(r25)
52800202:	d2 76       	se_stw  r7,8(r6)
52800204:	50 f9 17 10 	e_lwz   r7,5904(r25)
52800208:	d3 76       	se_stw  r7,12(r6)
5280020a:	e8 dd       	se_b    528001c4 <loop>

Disassembly of section .PPC.EMB.apuinfo:

00000000 <.PPC.EMB.apuinfo>:
   0:	00 00 00 08 	.long 0x8
   4:	00 00 00 04 	.long 0x4
   8:	00 00 00 02 	.long 0x2
   c:	41 50 55 69 	bdztl   4*cr4+lt,5574 <MCSR_OUTPUT+0x32ec>
  10:	6e 66 6f 00 	xoris   r6,r19,28416
  14:	01 04 00 01 	.long 0x1040001

boot.elf:     file format elf32-powerpc
boot.elf
architecture: powerpc:common, flags 0x00000112:
EXEC_P, HAS_SYMS, D_PAGED
start address 0x00000000

Program Header:
    LOAD off    0x00000000 vaddr 0x00600000 paddr 0x00600000 align 2**16
         filesz 0x0000c232 memsz 0x0000c232 flags r-x
    LOAD off    0x00010000 vaddr 0x52800000 paddr 0x0060c240 align 2**16
         filesz 0x00000000 memsz 0x00000000 flags rw-

Sections:
Idx Name          Size      VMA       LMA       File off  Algn
  0 .text         00000232  0060c000  0060c000  0000c000  2**4
                  CONTENTS, ALLOC, LOAD, READONLY, CODE, VLE
  1 .stacks       00000000  52800000  52800000  00010000  2**0
                  CONTENTS
  2 .data         00000000  52800000  0060c240  00010000  2**0
                  CONTENTS, ALLOC, LOAD, DATA
  3 .PPC.EMB.apuinfo 00000018  00000000  00000000  00010000  2**0
                  CONTENTS, READONLY
SYMBOL TABLE:
0060c000 l    d  .text	00000000 .text
52800000 l    d  .stacks	00000000 .stacks
52800000 l    d  .data	00000000 .data
00000000 l    d  .PPC.EMB.apuinfo	00000000 .PPC.EMB.apuinfo
00000000 l    df *ABS*	00000000 build/src/boot.o
00000000 l       *ABS*	00000000 r0
00000001 l       *ABS*	00000000 r1
00000001 l       *ABS*	00000000 rsp
00000002 l       *ABS*	00000000 r2
00000003 l       *ABS*	00000000 r3
00000004 l       *ABS*	00000000 r4
00000005 l       *ABS*	00000000 r5
00000006 l       *ABS*	00000000 r6
00000007 l       *ABS*	00000000 r7
00000008 l       *ABS*	00000000 r8
00000009 l       *ABS*	00000000 r9
0000000a l       *ABS*	00000000 r10
0000000b l       *ABS*	00000000 r11
0000000c l       *ABS*	00000000 r12
0000000d l       *ABS*	00000000 r13
0000000e l       *ABS*	00000000 r14
0000000f l       *ABS*	00000000 r15
00000010 l       *ABS*	00000000 r16
00000011 l       *ABS*	00000000 r17
00000012 l       *ABS*	00000000 r18
00000013 l       *ABS*	00000000 r19
00000014 l       *ABS*	00000000 r20
00000015 l       *ABS*	00000000 r21
00000016 l       *ABS*	00000000 r22
00000017 l       *ABS*	00000000 r23
00000018 l       *ABS*	00000000 r24
00000019 l       *ABS*	00000000 r25
0000001a l       *ABS*	00000000 r26
0000001b l       *ABS*	00000000 r27
0000001c l       *ABS*	00000000 r28
0000001d l       *ABS*	00000000 r29
0000001e l       *ABS*	00000000 r30
0000001f l       *ABS*	00000000 r31
0000f7fc l       *ABS*	00000000 SIUL_BASE
00001300 l       *ABS*	00000000 GPDO0
00001304 l       *ABS*	00000000 GPDO1
00001308 l       *ABS*	00000000 GPDO2
0000130c l       *ABS*	00000000 GPDO3
00001310 l       *ABS*	00000000 GPDO4
00001314 l       *ABS*	00000000 GPDO5
00001318 l       *ABS*	00000000 GPDO6
0000131c l       *ABS*	00000000 GPDO7
00001320 l       *ABS*	00000000 GPDO8
00001324 l       *ABS*	00000000 GPDO9
00001328 l       *ABS*	00000000 GPDO10
0000132c l       *ABS*	00000000 GPDO11
00001330 l       *ABS*	00000000 GPDO12
00001334 l       *ABS*	00000000 GPDO13
00001338 l       *ABS*	00000000 GPDO14
0000133c l       *ABS*	00000000 GPDO15
00001340 l       *ABS*	00000000 GPDO16
00001344 l       *ABS*	00000000 GPDO17
00001348 l       *ABS*	00000000 GPDO18
0000134c l       *ABS*	00000000 GPDO19
00001350 l       *ABS*	00000000 GPDO20
00001354 l       *ABS*	00000000 GPDO21
00001358 l       *ABS*	00000000 GPDO22
0000135c l       *ABS*	00000000 GPDO23
00001360 l       *ABS*	00000000 GPDO24
00001364 l       *ABS*	00000000 GPDO25
00001368 l       *ABS*	00000000 GPDO26
0000136c l       *ABS*	00000000 GPDO27
00001370 l       *ABS*	00000000 GPDO28
00001374 l       *ABS*	00000000 GPDO29
00001378 l       *ABS*	00000000 GPDO30
0000137c l       *ABS*	00000000 GPDO31
00001380 l       *ABS*	00000000 GPDO32
00001384 l       *ABS*	00000000 GPDO33
00001388 l       *ABS*	00000000 GPDO34
0000138c l       *ABS*	00000000 GPDO35
00001390 l       *ABS*	00000000 GPDO36
00001394 l       *ABS*	00000000 GPDO37
00001398 l       *ABS*	00000000 GPDO38
0000139c l       *ABS*	00000000 GPDO39
00001500 l       *ABS*	00000000 GPDI0
00001504 l       *ABS*	00000000 GPDI1
00001508 l       *ABS*	00000000 GPDI2
0000150c l       *ABS*	00000000 GPDI3
00001510 l       *ABS*	00000000 GPDI4
00001514 l       *ABS*	00000000 GPDI5
00001518 l       *ABS*	00000000 GPDI6
0000151c l       *ABS*	00000000 GPDI7
00001520 l       *ABS*	00000000 GPDI8
00001524 l       *ABS*	00000000 GPDI9
00001528 l       *ABS*	00000000 GPDI10
0000152c l       *ABS*	00000000 GPDI11
00001530 l       *ABS*	00000000 GPDI12
00001534 l       *ABS*	00000000 GPDI13
00001538 l       *ABS*	00000000 GPDI14
0000153c l       *ABS*	00000000 GPDI15
00001540 l       *ABS*	00000000 GPDI16
00001544 l       *ABS*	00000000 GPDI17
00001548 l       *ABS*	00000000 GPDI18
0000154c l       *ABS*	00000000 GPDI19
00001550 l       *ABS*	00000000 GPDI20
00001554 l       *ABS*	00000000 GPDI21
00001558 l       *ABS*	00000000 GPDI22
0000155c l       *ABS*	00000000 GPDI23
00001560 l       *ABS*	00000000 GPDI24
00001564 l       *ABS*	00000000 GPDI25
00001568 l       *ABS*	00000000 GPDI26
0000156c l       *ABS*	00000000 GPDI27
00001570 l       *ABS*	00000000 GPDI28
00001574 l       *ABS*	00000000 GPDI29
00001578 l       *ABS*	00000000 GPDI30
0000157c l       *ABS*	00000000 GPDI31
00001580 l       *ABS*	00000000 GPDI32
00001584 l       *ABS*	00000000 GPDI33
00001588 l       *ABS*	00000000 GPDI34
0000158c l       *ABS*	00000000 GPDI35
00001590 l       *ABS*	00000000 GPDI36
00001594 l       *ABS*	00000000 GPDI37
00001598 l       *ABS*	00000000 GPDI38
0000159c l       *ABS*	00000000 GPDI39
00001700 l       *ABS*	00000000 PGPDO0
00001704 l       *ABS*	00000000 PGPDO1
00001708 l       *ABS*	00000000 PGPDO2
0000170c l       *ABS*	00000000 PGPDO3
00001710 l       *ABS*	00000000 PGPDO4
00001700 l       *ABS*	00000000 POUT_A
00001702 l       *ABS*	00000000 POUT_B
00001704 l       *ABS*	00000000 POUT_C
00001706 l       *ABS*	00000000 POUT_D
00001708 l       *ABS*	00000000 POUT_E
0000170a l       *ABS*	00000000 POUT_F
0000170c l       *ABS*	00000000 POUT_G
0000170e l       *ABS*	00000000 POUT_H
00001710 l       *ABS*	00000000 POUT_I
00001712 l       *ABS*	00000000 POUT_J
00001740 l       *ABS*	00000000 PGPDI0
00001744 l       *ABS*	00000000 PGPDI1
00001748 l       *ABS*	00000000 PGPDI2
0000174c l       *ABS*	00000000 PGPDI3
00001750 l       *ABS*	00000000 PGPDI4
00001740 l       *ABS*	00000000 PIN_A
00001742 l       *ABS*	00000000 PIN_B
00001744 l       *ABS*	00000000 PIN_C
00001746 l       *ABS*	00000000 PIN_D
00001748 l       *ABS*	00000000 PIN_E
0000174a l       *ABS*	00000000 PIN_F
0000174c l       *ABS*	00000000 PIN_G
0000174e l       *ABS*	00000000 PIN_H
00001750 l       *ABS*	00000000 PIN_I
00001752 l       *ABS*	00000000 PIN_J
00000240 l       *ABS*	00000000 MCSR_A0
00000244 l       *ABS*	00000000 MCSR_A1
00000248 l       *ABS*	00000000 MCSR_A2
0000024c l       *ABS*	00000000 MCSR_A3
00000250 l       *ABS*	00000000 MCSR_A4
00000254 l       *ABS*	00000000 MCSR_A5
00000258 l       *ABS*	00000000 MCSR_A6
0000025c l       *ABS*	00000000 MCSR_A7
00000260 l       *ABS*	00000000 MCSR_A8
00000264 l       *ABS*	00000000 MCSR_A9
00000268 l       *ABS*	00000000 MCSR_A10
0000026c l       *ABS*	00000000 MCSR_A11
00000270 l       *ABS*	00000000 MCSR_A12
00000274 l       *ABS*	00000000 MCSR_A13
00000278 l       *ABS*	00000000 MCSR_A14
0000027c l       *ABS*	00000000 MCSR_A15
00000280 l       *ABS*	00000000 MCSR_B0
00000284 l       *ABS*	00000000 MCSR_B1
00000288 l       *ABS*	00000000 MCSR_B2
0000028c l       *ABS*	00000000 MCSR_B3
00000290 l       *ABS*	00000000 MCSR_B4
00000294 l       *ABS*	00000000 MCSR_B5
00000298 l       *ABS*	00000000 MCSR_B6
0000029c l       *ABS*	00000000 MCSR_B7
000002a0 l       *ABS*	00000000 MCSR_B8
000002a4 l       *ABS*	00000000 MCSR_B9
000002a8 l       *ABS*	00000000 MCSR_B10
000002ac l       *ABS*	00000000 MCSR_B11
000002b0 l       *ABS*	00000000 MCSR_B12
000002b4 l       *ABS*	00000000 MCSR_B13
000002b8 l       *ABS*	00000000 MCSR_B14
000002bc l       *ABS*	00000000 MCSR_B15
000002c0 l       *ABS*	00000000 MCSR_C0
000002c4 l       *ABS*	00000000 MCSR_C1
000002c8 l       *ABS*	00000000 MCSR_C2
000002cc l       *ABS*	00000000 MCSR_C3
000002d0 l       *ABS*	00000000 MCSR_C4
000002d4 l       *ABS*	00000000 MCSR_C5
000002d8 l       *ABS*	00000000 MCSR_C6
000002dc l       *ABS*	00000000 MCSR_C7
000002e0 l       *ABS*	00000000 MCSR_C8
000002e4 l       *ABS*	00000000 MCSR_C9
000002e8 l       *ABS*	00000000 MCSR_C10
000002ec l       *ABS*	00000000 MCSR_C11
000002f0 l       *ABS*	00000000 MCSR_C12
000002f4 l       *ABS*	00000000 MCSR_C13
000002f8 l       *ABS*	00000000 MCSR_C14
000002fc l       *ABS*	00000000 MCSR_C15
00000300 l       *ABS*	00000000 MCSR_D0
00000304 l       *ABS*	00000000 MCSR_D1
00000308 l       *ABS*	00000000 MCSR_D2
0000030c l       *ABS*	00000000 MCSR_D3
00000310 l       *ABS*	00000000 MCSR_D4
00000314 l       *ABS*	00000000 MCSR_D5
00000318 l       *ABS*	00000000 MCSR_D6
0000031c l       *ABS*	00000000 MCSR_D7
00000320 l       *ABS*	00000000 MCSR_D8
00000324 l       *ABS*	00000000 MCSR_D9
00000328 l       *ABS*	00000000 MCSR_D10
0000032c l       *ABS*	00000000 MCSR_D11
00000330 l       *ABS*	00000000 MCSR_D12
00000334 l       *ABS*	00000000 MCSR_D13
00000338 l       *ABS*	00000000 MCSR_D14
0000033c l       *ABS*	00000000 MCSR_D15
00000340 l       *ABS*	00000000 MCSR_E0
00000344 l       *ABS*	00000000 MCSR_E1
00000348 l       *ABS*	00000000 MCSR_E2
0000034c l       *ABS*	00000000 MCSR_E3
00000350 l       *ABS*	00000000 MCSR_E4
00000354 l       *ABS*	00000000 MCSR_E5
00000358 l       *ABS*	00000000 MCSR_E6
0000035c l       *ABS*	00000000 MCSR_E7
00000360 l       *ABS*	00000000 MCSR_E8
00000364 l       *ABS*	00000000 MCSR_E9
00000368 l       *ABS*	00000000 MCSR_E10
0000036c l       *ABS*	00000000 MCSR_E11
00000370 l       *ABS*	00000000 MCSR_E12
00000374 l       *ABS*	00000000 MCSR_E13
00000378 l       *ABS*	00000000 MCSR_E14
0000037c l       *ABS*	00000000 MCSR_E15
00000380 l       *ABS*	00000000 MCSR_F0
00000384 l       *ABS*	00000000 MCSR_F1
00000388 l       *ABS*	00000000 MCSR_F2
0000038c l       *ABS*	00000000 MCSR_F3
00000390 l       *ABS*	00000000 MCSR_F4
00000394 l       *ABS*	00000000 MCSR_F5
00000398 l       *ABS*	00000000 MCSR_F6
0000039c l       *ABS*	00000000 MCSR_F7
000003a0 l       *ABS*	00000000 MCSR_F8
000003a4 l       *ABS*	00000000 MCSR_F9
000003a8 l       *ABS*	00000000 MCSR_F10
000003ac l       *ABS*	00000000 MCSR_F11
000003b0 l       *ABS*	00000000 MCSR_F12
000003b4 l       *ABS*	00000000 MCSR_F13
000003b8 l       *ABS*	00000000 MCSR_F14
000003bc l       *ABS*	00000000 MCSR_F15
000003c0 l       *ABS*	00000000 MCSR_G0
000003c4 l       *ABS*	00000000 MCSR_G1
000003c8 l       *ABS*	00000000 MCSR_G2
000003cc l       *ABS*	00000000 MCSR_G3
000003d0 l       *ABS*	00000000 MCSR_G4
000003d4 l       *ABS*	00000000 MCSR_G5
000003d8 l       *ABS*	00000000 MCSR_G6
000003dc l       *ABS*	00000000 MCSR_G7
000003e0 l       *ABS*	00000000 MCSR_G8
000003e4 l       *ABS*	00000000 MCSR_G9
000003e8 l       *ABS*	00000000 MCSR_G10
000003ec l       *ABS*	00000000 MCSR_G11
000003f0 l       *ABS*	00000000 MCSR_G12
000003f4 l       *ABS*	00000000 MCSR_G13
000003f8 l       *ABS*	00000000 MCSR_G14
000003fc l       *ABS*	00000000 MCSR_G15
00000400 l       *ABS*	00000000 MCSR_H0
00000404 l       *ABS*	00000000 MCSR_H1
00000408 l       *ABS*	00000000 MCSR_H2
0000040c l       *ABS*	00000000 MCSR_H3
00000410 l       *ABS*	00000000 MCSR_H4
00000414 l       *ABS*	00000000 MCSR_H5
00000418 l       *ABS*	00000000 MCSR_H6
0000041c l       *ABS*	00000000 MCSR_H7
00000420 l       *ABS*	00000000 MCSR_H8
00000424 l       *ABS*	00000000 MCSR_H9
00000428 l       *ABS*	00000000 MCSR_H10
0000042c l       *ABS*	00000000 MCSR_H11
00000430 l       *ABS*	00000000 MCSR_H12
00000434 l       *ABS*	00000000 MCSR_H13
00000438 l       *ABS*	00000000 MCSR_H14
0000043c l       *ABS*	00000000 MCSR_H15
00000440 l       *ABS*	00000000 MCSR_I0
00000444 l       *ABS*	00000000 MCSR_I1
00000448 l       *ABS*	00000000 MCSR_I2
0000044c l       *ABS*	00000000 MCSR_I3
00000450 l       *ABS*	00000000 MCSR_I4
00000454 l       *ABS*	00000000 MCSR_I5
00000458 l       *ABS*	00000000 MCSR_I6
0000045c l       *ABS*	00000000 MCSR_I7
00000460 l       *ABS*	00000000 MCSR_I8
00000464 l       *ABS*	00000000 MCSR_I9
00000468 l       *ABS*	00000000 MCSR_I10
0000046c l       *ABS*	00000000 MCSR_I11
00000470 l       *ABS*	00000000 MCSR_I12
00000474 l       *ABS*	00000000 MCSR_I13
00000478 l       *ABS*	00000000 MCSR_I14
0000047c l       *ABS*	00000000 MCSR_I15
00000480 l       *ABS*	00000000 MCSR_J0
00000484 l       *ABS*	00000000 MCSR_J1
00000488 l       *ABS*	00000000 MCSR_J2
0000048c l       *ABS*	00000000 MCSR_J3
00000490 l       *ABS*	00000000 MCSR_J4
00000494 l       *ABS*	00000000 MCSR_J5
00000498 l       *ABS*	00000000 MCSR_J6
0000049c l       *ABS*	00000000 MCSR_J7
000004a0 l       *ABS*	00000000 MCSR_J8
000004a4 l       *ABS*	00000000 MCSR_J9
000004a8 l       *ABS*	00000000 MCSR_J10
000004ac l       *ABS*	00000000 MCSR_J11
000004b0 l       *ABS*	00000000 MCSR_J12
000004b4 l       *ABS*	00000000 MCSR_J13
000004b8 l       *ABS*	00000000 MCSR_J14
000004bc l       *ABS*	00000000 MCSR_J15
00000003 l       *ABS*	00000000 MCSR_UNCONNECT
00000088 l       *ABS*	00000000 MCSR_INPUT
00000089 l       *ABS*	00000000 MCSR_INPUT_PU
0000008a l       *ABS*	00000000 MCSR_INPUT_PD
00002288 l       *ABS*	00000000 MCSR_OUTPUT
00002188 l       *ABS*	00000000 MCSR_OUTPUT_OD
0000f405 l       *ABS*	00000000 SWT_BASE
00008000 l       *ABS*	00000000 SWT_CR
00008004 l       *ABS*	00000000 SWT_IR
00008008 l       *ABS*	00000000 SWT_TO
0000800c l       *ABS*	00000000 SWT_WN
00008010 l       *ABS*	00000000 SWT_SR
00008014 l       *ABS*	00000000 SWT_CO
00008018 l       *ABS*	00000000 SWT_SK
0000f7fb l       *ABS*	00000000 ME_BASE
00008000 l       *ABS*	00000000 ME_GS
00008004 l       *ABS*	00000000 ME_MCTL
00008008 l       *ABS*	00000000 ME_ME
0000800c l       *ABS*	00000000 ME_MIS
00008010 l       *ABS*	00000000 ME_IM
00008014 l       *ABS*	00000000 ME_IMTS
00008018 l       *ABS*	00000000 ME_DMTS
00008080 l       *ABS*	00000000 ME_RUN_PC0
00008084 l       *ABS*	00000000 ME_RUN_PC1
00008088 l       *ABS*	00000000 ME_RUN_PC2
0000808c l       *ABS*	00000000 ME_RUN_PC3
00008090 l       *ABS*	00000000 ME_RUN_PC4
00008094 l       *ABS*	00000000 ME_RUN_PC5
00008098 l       *ABS*	00000000 ME_RUN_PC6
0000809c l       *ABS*	00000000 ME_RUN_PC7
0000802c l       *ABS*	00000000 ME_DRUN_MC
0000c3fe l       *ABS*	00000000 FMPLL_BASE
000000a0 l       *ABS*	00000000 FMPLL0_CR
000000c0 l       *ABS*	00000000 FMPLL1_CR
0000ffe4 l       *ABS*	00000000 LINFLEX0_BASE
00000000 l       *ABS*	00000000 LINFLEX0_LINCR1
00000010 l       *ABS*	00000000 LINFLEX0_UARTCR
00000014 l       *ABS*	00000000 LINFLEX0_UARTSR
00000028 l       *ABS*	00000000 LINFLEX0_LINBRR
0000002c l       *ABS*	00000000 LINFLEX0_LINBFRR
00000038 l       *ABS*	00000000 LINFLEX0_BRDL
0000003c l       *ABS*	00000000 LINFLEX0_BRDM
0000f7fe l       *ABS*	00000000 FLASH_BASE
00000000 l       *ABS*	00000000 FLASH_MCR
00000004 l       *ABS*	00000000 FLASH_MCRA
00000008 l       *ABS*	00000000 FLASH_MCRE
00000010 l       *ABS*	00000000 FLASH_LOCK0
00000014 l       *ABS*	00000000 FLASH_LOCK1
00000018 l       *ABS*	00000000 FLASH_LOCK2
0000001c l       *ABS*	00000000 FLASH_LOCK3
00000028 l       *ABS*	00000000 FLASH_LOCK0A
0000002c l       *ABS*	00000000 FLASH_LOCK1A
00000038 l       *ABS*	00000000 FLASH_SEL0
0000003c l       *ABS*	00000000 FLASH_SEL1
00000040 l       *ABS*	00000000 FLASH_SEL2
00000044 l       *ABS*	00000000 FLASH_SEL3
0000004c l       *ABS*	00000000 FLASH_PAR
00000050 l       *ABS*	00000000 FLASH_ADR
00000054 l       *ABS*	00000000 FLASH_UT0
00000058 l       *ABS*	00000000 FLASH_UM0
0000005c l       *ABS*	00000000 FLASH_UM1
00000060 l       *ABS*	00000000 FLASH_UM2
00000064 l       *ABS*	00000000 FLASH_UM3
00000068 l       *ABS*	00000000 FLASH_UM4
0000006c l       *ABS*	00000000 FLASH_UM5
00000070 l       *ABS*	00000000 FLASH_UM6
00000074 l       *ABS*	00000000 FLASH_UM7
00000078 l       *ABS*	00000000 FLASH_UM8
0000007c l       *ABS*	00000000 FLASH_UM9
00000080 l       *ABS*	00000000 FLASH_OPP0
00000084 l       *ABS*	00000000 FLASH_OPP1
00000088 l       *ABS*	00000000 FLASH_OPP2
0000008c l       *ABS*	00000000 FLASH_OPP3
00000090 l       *ABS*	00000000 FLASH_TMD
00000094 l       *ABS*	00000000 FLASH_ALTSEL0
00000098 l       *ABS*	00000000 FLASH_ALTSEL1
00000100 l       *ABS*	00000000 FLASH_ELOCK0
00000104 l       *ABS*	00000000 FLASH_ELOCK1
00000108 l       *ABS*	00000000 FLASH_ELOCK2
0000010c l       *ABS*	00000000 FLASH_ELOCK3
00000110 l       *ABS*	00000000 FLASH_PLOCK0
00000114 l       *ABS*	00000000 FLASH_PLOCK1
00000118 l       *ABS*	00000000 FLASH_PLOCK2
0000011c l       *ABS*	00000000 FLASH_PLOCK3
fff48000 l       *ABS*	00000000 INTC_BASE
fff48010 l       *ABS*	00000000 INTC_IACKR
fff48018 l       *ABS*	00000000 INTC_EOIR
00000800 l       *ABS*	00000000 block_size
00000001 l       *ABS*	00000000 DEBUG_LED
0060c100 l       .text	00000000 main_start
0060c16e l       .text	00000000 rfill_1
0060c1c4 l       .text	00000000 loop
0060c1c8 l       .text	00000000 w1
0060c1dc l       .text	00000000 w2
0060c20c l       .text	00000000 prog_dw
0060c21c l       .text	00000000 prog_dw_loop
52800000 g       .data	00000000 __data_start__
52808000 g       .data	00000000 __sdata_start__
00614240 g       .text	00000000 __sdata2_start__
00000000 g       *ABS*	00000000 _reset_address
52800000 g       .data	00000000 __heap_base__
0060c240 g       .text	00000000 __romdata_start__
52800000 g       .stacks	00000000 __main_thread_stack_end__
52810000 g       *ABS*	00000000 __heap_end__
52800000 g       .data	00000000 __bss_start__
00024000 g       *ABS*	00000000 __flash_size__
52800000 g       .data	00000000 __data_end__
52800000 g       .data	00000000 __bss_end__
0060c000 g       .text	00000000 _start
00000000 g       *ABS*	00000000 __irq_stack_size__
00630000 g       *ABS*	00000000 __flash_end__
00010000 g       *ABS*	00000000 __ram_size__
52800000 g       .text	00000000 __ram_start__
52800000 g       .stacks	00000000 __process_stack_base__
52800000 g       .stacks	00000000 __irq_stack_end__
52810000 g       *ABS*	00000000 __ram_end__
52800000 g       .stacks	00000000 __irq_stack_base__
52800000 g       .stacks	00000000 __main_thread_stack_base__
0060c000 g       .text	00000000 __flash_start__
52800000 g       .stacks	00000000 __process_stack_end__
00000000 g       *ABS*	00000000 __process_stack_size__



Disassembly of section .text:

0060c000 <__flash_start__>:
	...

0060c100 <main_start>:
  60c100:	73 1e e4 05 	e_lis   r24,62469
  60c104:	73 30 00 10 	e_li    r25,32784
  60c108:	44 89       	se_or   r25,r24
  60c10a:	73 98 05 20 	e_li    r28,50464
  60c10e:	57 99 00 00 	e_stw   r28,0(r25)
  60c112:	73 9b 01 28 	e_li    r28,55592
  60c116:	57 99 00 00 	e_stw   r28,0(r25)
  60c11a:	73 30 00 00 	e_li    r25,32768
  60c11e:	44 89       	se_or   r25,r24
  60c120:	53 99 00 00 	e_lwz   r28,0(r25)
  60c124:	77 9c 00 3d 	e_rlwinm r28,r28,0,0,30
  60c128:	57 99 00 00 	e_stw   r28,0(r25)
  60c12c:	73 1e e7 fb 	e_lis   r24,63483
  60c130:	73 30 00 80 	e_li    r25,32896
  60c134:	44 89       	se_or   r25,r24
  60c136:	73 80 00 fe 	e_li    r28,254
  60c13a:	57 99 00 00 	e_stw   r28,0(r25)
  60c13e:	73 30 00 04 	e_li    r25,32772
  60c142:	44 89       	se_or   r25,r24
  60c144:	73 a6 e0 00 	e_lis   r29,12288
  60c148:	73 8b 02 f0 	e_li    r28,23280
  60c14c:	44 dc       	se_or   r28,r29
  60c14e:	d0 c9       	se_stw  r28,0(r25)
  60c150:	73 94 05 0f 	e_li    r28,42255
  60c154:	44 dc       	se_or   r28,r29
  60c156:	d0 c9       	se_stw  r28,0(r25)
  60c158:	73 8a e2 80 	e_lis   r28,21120
  60c15c:	73 a1 00 00 	e_li    r29,2048
  60c160:	44 dc       	se_or   r28,r29
  60c162:	73 c0 00 00 	e_li    r30,0
  60c166:	73 e0 00 00 	e_li    r31,0
  60c16a:	73 60 00 00 	e_li    r27,0

0060c16e <rfill_1>:
  60c16e:	1b dc 09 00 	e_stmw  r30,0(r28)
  60c172:	1f 9c 00 08 	e_add16i r28,r28,8
  60c176:	1f 7b 00 01 	e_add16i r27,r27,1
  60c17a:	70 7b 9f 00 	e_cmp16i r27,7936
  60c17e:	e2 f8       	se_bne  60c16e <rfill_1>
  60c180:	70 2a e2 80 	e_lis   r1,21120
  60c184:	73 3f 07 fc 	e_li    r25,65532
  60c188:	44 91       	se_or   r1,r25
  60c18a:	73 3e e7 fc 	e_lis   r25,63484
  60c18e:	73 84 e2 88 	e_lis   r28,8840
  60c192:	57 99 04 44 	e_stw   r28,1092(r25)
  60c196:	57 99 04 48 	e_stw   r28,1096(r25)
  60c19a:	73 be e7 fe 	e_lis   r29,63486
  60c19e:	73 d0 e0 00 	e_lis   r30,32768
  60c1a2:	57 dd 00 10 	e_stw   r30,16(r29)
  60c1a6:	73 df e7 ff 	e_lis   r30,65535
  60c1aa:	57 dd 00 14 	e_stw   r30,20(r29)
  60c1ae:	73 c0 e0 00 	e_lis   r30,0
  60c1b2:	57 dd 00 18 	e_stw   r30,24(r29)
  60c1b6:	57 dd 00 1c 	e_stw   r30,28(r29)
  60c1ba:	70 ca e2 80 	e_lis   r6,21120
  60c1be:	70 a0 00 80 	e_li    r5,128
  60c1c2:	44 56       	se_or   r6,r5

0060c1c4 <loop>:
  60c1c4:	70 60 e0 08 	e_lis   r3,8

0060c1c8 <w1>:
  60c1c8:	26 03       	se_subi. r3,1
  60c1ca:	e2 ff       	se_bne  60c1c8 <w1>
  60c1cc:	48 1c       	se_li   r28,1
  60c1ce:	37 99 13 81 	e_stb   r28,4993(r25)
  60c1d2:	48 0c       	se_li   r28,0
  60c1d4:	37 99 13 82 	e_stb   r28,4994(r25)
  60c1d8:	70 60 e0 08 	e_lis   r3,8

0060c1dc <w2>:
  60c1dc:	26 03       	se_subi. r3,1
  60c1de:	e2 ff       	se_bne  60c1dc <w2>
  60c1e0:	50 f9 17 10 	e_lwz   r7,5904(r25)
  60c1e4:	d2 76       	se_stw  r7,8(r6)
  60c1e6:	48 0c       	se_li   r28,0
  60c1e8:	37 99 13 81 	e_stb   r28,4993(r25)
  60c1ec:	48 1c       	se_li   r28,1
  60c1ee:	37 99 13 82 	e_stb   r28,4994(r25)
  60c1f2:	50 f9 00 04 	e_lwz   r7,4(r25)
  60c1f6:	d0 76       	se_stw  r7,0(r6)
  60c1f8:	50 f9 00 08 	e_lwz   r7,8(r25)
  60c1fc:	d1 76       	se_stw  r7,4(r6)
  60c1fe:	50 f9 04 44 	e_lwz   r7,1092(r25)
  60c202:	d2 76       	se_stw  r7,8(r6)
  60c204:	50 f9 17 10 	e_lwz   r7,5904(r25)
  60c208:	d3 76       	se_stw  r7,12(r6)
  60c20a:	e8 dd       	se_b    60c1c4 <loop>

0060c20c <prog_dw>:
  60c20c:	73 e0 00 10 	e_li    r31,16
  60c210:	d0 fd       	se_stw  r31,0(r29)
  60c212:	d0 65       	se_stw  r6,0(r5)
  60c214:	d1 75       	se_stw  r7,4(r5)
  60c216:	73 e0 00 11 	e_li    r31,17
  60c21a:	d0 fd       	se_stw  r31,0(r29)

0060c21c <prog_dw_loop>:
  60c21c:	c0 fd       	se_lwz  r31,0(r29)
  60c21e:	73 e0 cc 00 	e_and2i. r31,1024
  60c222:	e6 fd       	se_beq  60c21c <prog_dw_loop>
  60c224:	73 e0 00 10 	e_li    r31,16
  60c228:	d0 fd       	se_stw  r31,0(r29)
  60c22a:	73 e0 00 00 	e_li    r31,0
  60c22e:	d0 fd       	se_stw  r31,0(r29)
  60c230:	00 04       	se_blr

Disassembly of section .PPC.EMB.apuinfo:

00000000 <.PPC.EMB.apuinfo>:
   0:	00 00 00 08 	.long 0x8
   4:	00 00 00 04 	.long 0x4
   8:	00 00 00 02 	.long 0x2
   c:	41 50 55 69 	bdztl   4*cr4+lt,5574 <MCSR_OUTPUT+0x32ec>
  10:	6e 66 6f 00 	xoris   r6,r19,28416
  14:	01 04 00 01 	.long 0x1040001

boot.elf:     file format elf32-powerpc
boot.elf
architecture: powerpc:common, flags 0x00000112:
EXEC_P, HAS_SYMS, D_PAGED
start address 0x00000000

Program Header:
    LOAD off    0x00010000 vaddr 0x52800000 paddr 0x52800000 align 2**16
         filesz 0x0000024a memsz 0x0000024a flags r-x
    LOAD off    0x0001024a vaddr 0x5280024a paddr 0x5280024a align 2**16
         filesz 0x00000000 memsz 0x00000006 flags rwx
    LOAD off    0x00010250 vaddr 0x52800250 paddr 0x52800250 align 2**16
         filesz 0x00000000 memsz 0x00000000 flags rw-

Sections:
Idx Name          Size      VMA       LMA       File off  Algn
  0 .text         0000024a  52800000  52800000  00010000  2**4
                  CONTENTS, ALLOC, LOAD, READONLY, CODE, VLE
  1 .stacks       00000006  5280024a  5280024a  0001024a  2**0
                  ALLOC
  2 .data         00000000  52800250  52800250  00010250  2**0
                  CONTENTS, ALLOC, LOAD, DATA
  3 .PPC.EMB.apuinfo 00000018  00000000  00000000  00010250  2**0
                  CONTENTS, READONLY
SYMBOL TABLE:
52800000 l    d  .text	00000000 .text
5280024a l    d  .stacks	00000000 .stacks
52800250 l    d  .data	00000000 .data
00000000 l    d  .PPC.EMB.apuinfo	00000000 .PPC.EMB.apuinfo
00000000 l    df *ABS*	00000000 build/src/boot.o
00000000 l       *ABS*	00000000 r0
00000001 l       *ABS*	00000000 r1
00000001 l       *ABS*	00000000 rsp
00000002 l       *ABS*	00000000 r2
00000003 l       *ABS*	00000000 r3
00000004 l       *ABS*	00000000 r4
00000005 l       *ABS*	00000000 r5
00000006 l       *ABS*	00000000 r6
00000007 l       *ABS*	00000000 r7
00000008 l       *ABS*	00000000 r8
00000009 l       *ABS*	00000000 r9
0000000a l       *ABS*	00000000 r10
0000000b l       *ABS*	00000000 r11
0000000c l       *ABS*	00000000 r12
0000000d l       *ABS*	00000000 r13
0000000e l       *ABS*	00000000 r14
0000000f l       *ABS*	00000000 r15
00000010 l       *ABS*	00000000 r16
00000011 l       *ABS*	00000000 r17
00000012 l       *ABS*	00000000 r18
00000013 l       *ABS*	00000000 r19
00000014 l       *ABS*	00000000 r20
00000015 l       *ABS*	00000000 r21
00000016 l       *ABS*	00000000 r22
00000017 l       *ABS*	00000000 r23
00000018 l       *ABS*	00000000 r24
00000019 l       *ABS*	00000000 r25
0000001a l       *ABS*	00000000 r26
0000001b l       *ABS*	00000000 r27
0000001c l       *ABS*	00000000 r28
0000001d l       *ABS*	00000000 r29
0000001e l       *ABS*	00000000 r30
0000001f l       *ABS*	00000000 r31
0000f7fc l       *ABS*	00000000 SIUL_BASE
00001300 l       *ABS*	00000000 GPDO0
00001304 l       *ABS*	00000000 GPDO1
00001308 l       *ABS*	00000000 GPDO2
0000130c l       *ABS*	00000000 GPDO3
00001310 l       *ABS*	00000000 GPDO4
00001314 l       *ABS*	00000000 GPDO5
00001318 l       *ABS*	00000000 GPDO6
0000131c l       *ABS*	00000000 GPDO7
00001320 l       *ABS*	00000000 GPDO8
00001324 l       *ABS*	00000000 GPDO9
00001328 l       *ABS*	00000000 GPDO10
0000132c l       *ABS*	00000000 GPDO11
00001330 l       *ABS*	00000000 GPDO12
00001334 l       *ABS*	00000000 GPDO13
00001338 l       *ABS*	00000000 GPDO14
0000133c l       *ABS*	00000000 GPDO15
00001340 l       *ABS*	00000000 GPDO16
00001344 l       *ABS*	00000000 GPDO17
00001348 l       *ABS*	00000000 GPDO18
0000134c l       *ABS*	00000000 GPDO19
00001350 l       *ABS*	00000000 GPDO20
00001354 l       *ABS*	00000000 GPDO21
00001358 l       *ABS*	00000000 GPDO22
0000135c l       *ABS*	00000000 GPDO23
00001360 l       *ABS*	00000000 GPDO24
00001364 l       *ABS*	00000000 GPDO25
00001368 l       *ABS*	00000000 GPDO26
0000136c l       *ABS*	00000000 GPDO27
00001370 l       *ABS*	00000000 GPDO28
00001374 l       *ABS*	00000000 GPDO29
00001378 l       *ABS*	00000000 GPDO30
0000137c l       *ABS*	00000000 GPDO31
00001380 l       *ABS*	00000000 GPDO32
00001384 l       *ABS*	00000000 GPDO33
00001388 l       *ABS*	00000000 GPDO34
0000138c l       *ABS*	00000000 GPDO35
00001390 l       *ABS*	00000000 GPDO36
00001394 l       *ABS*	00000000 GPDO37
00001398 l       *ABS*	00000000 GPDO38
0000139c l       *ABS*	00000000 GPDO39
00001500 l       *ABS*	00000000 GPDI0
00001504 l       *ABS*	00000000 GPDI1
00001508 l       *ABS*	00000000 GPDI2
0000150c l       *ABS*	00000000 GPDI3
00001510 l       *ABS*	00000000 GPDI4
00001514 l       *ABS*	00000000 GPDI5
00001518 l       *ABS*	00000000 GPDI6
0000151c l       *ABS*	00000000 GPDI7
00001520 l       *ABS*	00000000 GPDI8
00001524 l       *ABS*	00000000 GPDI9
00001528 l       *ABS*	00000000 GPDI10
0000152c l       *ABS*	00000000 GPDI11
00001530 l       *ABS*	00000000 GPDI12
00001534 l       *ABS*	00000000 GPDI13
00001538 l       *ABS*	00000000 GPDI14
0000153c l       *ABS*	00000000 GPDI15
00001540 l       *ABS*	00000000 GPDI16
00001544 l       *ABS*	00000000 GPDI17
00001548 l       *ABS*	00000000 GPDI18
0000154c l       *ABS*	00000000 GPDI19
00001550 l       *ABS*	00000000 GPDI20
00001554 l       *ABS*	00000000 GPDI21
00001558 l       *ABS*	00000000 GPDI22
0000155c l       *ABS*	00000000 GPDI23
00001560 l       *ABS*	00000000 GPDI24
00001564 l       *ABS*	00000000 GPDI25
00001568 l       *ABS*	00000000 GPDI26
0000156c l       *ABS*	00000000 GPDI27
00001570 l       *ABS*	00000000 GPDI28
00001574 l       *ABS*	00000000 GPDI29
00001578 l       *ABS*	00000000 GPDI30
0000157c l       *ABS*	00000000 GPDI31
00001580 l       *ABS*	00000000 GPDI32
00001584 l       *ABS*	00000000 GPDI33
00001588 l       *ABS*	00000000 GPDI34
0000158c l       *ABS*	00000000 GPDI35
00001590 l       *ABS*	00000000 GPDI36
00001594 l       *ABS*	00000000 GPDI37
00001598 l       *ABS*	00000000 GPDI38
0000159c l       *ABS*	00000000 GPDI39
00001700 l       *ABS*	00000000 PGPDO0
00001704 l       *ABS*	00000000 PGPDO1
00001708 l       *ABS*	00000000 PGPDO2
0000170c l       *ABS*	00000000 PGPDO3
00001710 l       *ABS*	00000000 PGPDO4
00001700 l       *ABS*	00000000 POUT_A
00001702 l       *ABS*	00000000 POUT_B
00001704 l       *ABS*	00000000 POUT_C
00001706 l       *ABS*	00000000 POUT_D
00001708 l       *ABS*	00000000 POUT_E
0000170a l       *ABS*	00000000 POUT_F
0000170c l       *ABS*	00000000 POUT_G
0000170e l       *ABS*	00000000 POUT_H
00001710 l       *ABS*	00000000 POUT_I
00001712 l       *ABS*	00000000 POUT_J
00001740 l       *ABS*	00000000 PGPDI0
00001744 l       *ABS*	00000000 PGPDI1
00001748 l       *ABS*	00000000 PGPDI2
0000174c l       *ABS*	00000000 PGPDI3
00001750 l       *ABS*	00000000 PGPDI4
00001740 l       *ABS*	00000000 PIN_A
00001742 l       *ABS*	00000000 PIN_B
00001744 l       *ABS*	00000000 PIN_C
00001746 l       *ABS*	00000000 PIN_D
00001748 l       *ABS*	00000000 PIN_E
0000174a l       *ABS*	00000000 PIN_F
0000174c l       *ABS*	00000000 PIN_G
0000174e l       *ABS*	00000000 PIN_H
00001750 l       *ABS*	00000000 PIN_I
00001752 l       *ABS*	00000000 PIN_J
00000240 l       *ABS*	00000000 MCSR_A0
00000244 l       *ABS*	00000000 MCSR_A1
00000248 l       *ABS*	00000000 MCSR_A2
0000024c l       *ABS*	00000000 MCSR_A3
00000250 l       *ABS*	00000000 MCSR_A4
00000254 l       *ABS*	00000000 MCSR_A5
00000258 l       *ABS*	00000000 MCSR_A6
0000025c l       *ABS*	00000000 MCSR_A7
00000260 l       *ABS*	00000000 MCSR_A8
00000264 l       *ABS*	00000000 MCSR_A9
00000268 l       *ABS*	00000000 MCSR_A10
0000026c l       *ABS*	00000000 MCSR_A11
00000270 l       *ABS*	00000000 MCSR_A12
00000274 l       *ABS*	00000000 MCSR_A13
00000278 l       *ABS*	00000000 MCSR_A14
0000027c l       *ABS*	00000000 MCSR_A15
00000280 l       *ABS*	00000000 MCSR_B0
00000284 l       *ABS*	00000000 MCSR_B1
00000288 l       *ABS*	00000000 MCSR_B2
0000028c l       *ABS*	00000000 MCSR_B3
00000290 l       *ABS*	00000000 MCSR_B4
00000294 l       *ABS*	00000000 MCSR_B5
00000298 l       *ABS*	00000000 MCSR_B6
0000029c l       *ABS*	00000000 MCSR_B7
000002a0 l       *ABS*	00000000 MCSR_B8
000002a4 l       *ABS*	00000000 MCSR_B9
000002a8 l       *ABS*	00000000 MCSR_B10
000002ac l       *ABS*	00000000 MCSR_B11
000002b0 l       *ABS*	00000000 MCSR_B12
000002b4 l       *ABS*	00000000 MCSR_B13
000002b8 l       *ABS*	00000000 MCSR_B14
000002bc l       *ABS*	00000000 MCSR_B15
000002c0 l       *ABS*	00000000 MCSR_C0
000002c4 l       *ABS*	00000000 MCSR_C1
000002c8 l       *ABS*	00000000 MCSR_C2
000002cc l       *ABS*	00000000 MCSR_C3
000002d0 l       *ABS*	00000000 MCSR_C4
000002d4 l       *ABS*	00000000 MCSR_C5
000002d8 l       *ABS*	00000000 MCSR_C6
000002dc l       *ABS*	00000000 MCSR_C7
000002e0 l       *ABS*	00000000 MCSR_C8
000002e4 l       *ABS*	00000000 MCSR_C9
000002e8 l       *ABS*	00000000 MCSR_C10
000002ec l       *ABS*	00000000 MCSR_C11
000002f0 l       *ABS*	00000000 MCSR_C12
000002f4 l       *ABS*	00000000 MCSR_C13
000002f8 l       *ABS*	00000000 MCSR_C14
000002fc l       *ABS*	00000000 MCSR_C15
00000300 l       *ABS*	00000000 MCSR_D0
00000304 l       *ABS*	00000000 MCSR_D1
00000308 l       *ABS*	00000000 MCSR_D2
0000030c l       *ABS*	00000000 MCSR_D3
00000310 l       *ABS*	00000000 MCSR_D4
00000314 l       *ABS*	00000000 MCSR_D5
00000318 l       *ABS*	00000000 MCSR_D6
0000031c l       *ABS*	00000000 MCSR_D7
00000320 l       *ABS*	00000000 MCSR_D8
00000324 l       *ABS*	00000000 MCSR_D9
00000328 l       *ABS*	00000000 MCSR_D10
0000032c l       *ABS*	00000000 MCSR_D11
00000330 l       *ABS*	00000000 MCSR_D12
00000334 l       *ABS*	00000000 MCSR_D13
00000338 l       *ABS*	00000000 MCSR_D14
0000033c l       *ABS*	00000000 MCSR_D15
00000340 l       *ABS*	00000000 MCSR_E0
00000344 l       *ABS*	00000000 MCSR_E1
00000348 l       *ABS*	00000000 MCSR_E2
0000034c l       *ABS*	00000000 MCSR_E3
00000350 l       *ABS*	00000000 MCSR_E4
00000354 l       *ABS*	00000000 MCSR_E5
00000358 l       *ABS*	00000000 MCSR_E6
0000035c l       *ABS*	00000000 MCSR_E7
00000360 l       *ABS*	00000000 MCSR_E8
00000364 l       *ABS*	00000000 MCSR_E9
00000368 l       *ABS*	00000000 MCSR_E10
0000036c l       *ABS*	00000000 MCSR_E11
00000370 l       *ABS*	00000000 MCSR_E12
00000374 l       *ABS*	00000000 MCSR_E13
00000378 l       *ABS*	00000000 MCSR_E14
0000037c l       *ABS*	00000000 MCSR_E15
00000380 l       *ABS*	00000000 MCSR_F0
00000384 l       *ABS*	00000000 MCSR_F1
00000388 l       *ABS*	00000000 MCSR_F2
0000038c l       *ABS*	00000000 MCSR_F3
00000390 l       *ABS*	00000000 MCSR_F4
00000394 l       *ABS*	00000000 MCSR_F5
00000398 l       *ABS*	00000000 MCSR_F6
0000039c l       *ABS*	00000000 MCSR_F7
000003a0 l       *ABS*	00000000 MCSR_F8
000003a4 l       *ABS*	00000000 MCSR_F9
000003a8 l       *ABS*	00000000 MCSR_F10
000003ac l       *ABS*	00000000 MCSR_F11
000003b0 l       *ABS*	00000000 MCSR_F12
000003b4 l       *ABS*	00000000 MCSR_F13
000003b8 l       *ABS*	00000000 MCSR_F14
000003bc l       *ABS*	00000000 MCSR_F15
000003c0 l       *ABS*	00000000 MCSR_G0
000003c4 l       *ABS*	00000000 MCSR_G1
000003c8 l       *ABS*	00000000 MCSR_G2
000003cc l       *ABS*	00000000 MCSR_G3
000003d0 l       *ABS*	00000000 MCSR_G4
000003d4 l       *ABS*	00000000 MCSR_G5
000003d8 l       *ABS*	00000000 MCSR_G6
000003dc l       *ABS*	00000000 MCSR_G7
000003e0 l       *ABS*	00000000 MCSR_G8
000003e4 l       *ABS*	00000000 MCSR_G9
000003e8 l       *ABS*	00000000 MCSR_G10
000003ec l       *ABS*	00000000 MCSR_G11
000003f0 l       *ABS*	00000000 MCSR_G12
000003f4 l       *ABS*	00000000 MCSR_G13
000003f8 l       *ABS*	00000000 MCSR_G14
000003fc l       *ABS*	00000000 MCSR_G15
00000400 l       *ABS*	00000000 MCSR_H0
00000404 l       *ABS*	00000000 MCSR_H1
00000408 l       *ABS*	00000000 MCSR_H2
0000040c l       *ABS*	00000000 MCSR_H3
00000410 l       *ABS*	00000000 MCSR_H4
00000414 l       *ABS*	00000000 MCSR_H5
00000418 l       *ABS*	00000000 MCSR_H6
0000041c l       *ABS*	00000000 MCSR_H7
00000420 l       *ABS*	00000000 MCSR_H8
00000424 l       *ABS*	00000000 MCSR_H9
00000428 l       *ABS*	00000000 MCSR_H10
0000042c l       *ABS*	00000000 MCSR_H11
00000430 l       *ABS*	00000000 MCSR_H12
00000434 l       *ABS*	00000000 MCSR_H13
00000438 l       *ABS*	00000000 MCSR_H14
0000043c l       *ABS*	00000000 MCSR_H15
00000440 l       *ABS*	00000000 MCSR_I0
00000444 l       *ABS*	00000000 MCSR_I1
00000448 l       *ABS*	00000000 MCSR_I2
0000044c l       *ABS*	00000000 MCSR_I3
00000450 l       *ABS*	00000000 MCSR_I4
00000454 l       *ABS*	00000000 MCSR_I5
00000458 l       *ABS*	00000000 MCSR_I6
0000045c l       *ABS*	00000000 MCSR_I7
00000460 l       *ABS*	00000000 MCSR_I8
00000464 l       *ABS*	00000000 MCSR_I9
00000468 l       *ABS*	00000000 MCSR_I10
0000046c l       *ABS*	00000000 MCSR_I11
00000470 l       *ABS*	00000000 MCSR_I12
00000474 l       *ABS*	00000000 MCSR_I13
00000478 l       *ABS*	00000000 MCSR_I14
0000047c l       *ABS*	00000000 MCSR_I15
00000480 l       *ABS*	00000000 MCSR_J0
00000484 l       *ABS*	00000000 MCSR_J1
00000488 l       *ABS*	00000000 MCSR_J2
0000048c l       *ABS*	00000000 MCSR_J3
00000490 l       *ABS*	00000000 MCSR_J4
00000494 l       *ABS*	00000000 MCSR_J5
00000498 l       *ABS*	00000000 MCSR_J6
0000049c l       *ABS*	00000000 MCSR_J7
000004a0 l       *ABS*	00000000 MCSR_J8
000004a4 l       *ABS*	00000000 MCSR_J9
000004a8 l       *ABS*	00000000 MCSR_J10
000004ac l       *ABS*	00000000 MCSR_J11
000004b0 l       *ABS*	00000000 MCSR_J12
000004b4 l       *ABS*	00000000 MCSR_J13
000004b8 l       *ABS*	00000000 MCSR_J14
000004bc l       *ABS*	00000000 MCSR_J15
00000003 l       *ABS*	00000000 MCSR_UNCONNECT
00000088 l       *ABS*	00000000 MCSR_INPUT
00000089 l       *ABS*	00000000 MCSR_INPUT_PU
0000008a l       *ABS*	00000000 MCSR_INPUT_PD
00002288 l       *ABS*	00000000 MCSR_OUTPUT
00002188 l       *ABS*	00000000 MCSR_OUTPUT_OD
0000f405 l       *ABS*	00000000 SWT_BASE
00008000 l       *ABS*	00000000 SWT_CR
00008004 l       *ABS*	00000000 SWT_IR
00008008 l       *ABS*	00000000 SWT_TO
0000800c l       *ABS*	00000000 SWT_WN
00008010 l       *ABS*	00000000 SWT_SR
00008014 l       *ABS*	00000000 SWT_CO
00008018 l       *ABS*	00000000 SWT_SK
0000f7fb l       *ABS*	00000000 ME_BASE
00008000 l       *ABS*	00000000 ME_GS
00008004 l       *ABS*	00000000 ME_MCTL
00008008 l       *ABS*	00000000 ME_ME
0000800c l       *ABS*	00000000 ME_MIS
00008010 l       *ABS*	00000000 ME_IM
00008014 l       *ABS*	00000000 ME_IMTS
00008018 l       *ABS*	00000000 ME_DMTS
00008080 l       *ABS*	00000000 ME_RUN_PC0
00008084 l       *ABS*	00000000 ME_RUN_PC1
00008088 l       *ABS*	00000000 ME_RUN_PC2
0000808c l       *ABS*	00000000 ME_RUN_PC3
00008090 l       *ABS*	00000000 ME_RUN_PC4
00008094 l       *ABS*	00000000 ME_RUN_PC5
00008098 l       *ABS*	00000000 ME_RUN_PC6
0000809c l       *ABS*	00000000 ME_RUN_PC7
0000802c l       *ABS*	00000000 ME_DRUN_MC
0000c3fe l       *ABS*	00000000 FMPLL_BASE
000000a0 l       *ABS*	00000000 FMPLL0_CR
000000c0 l       *ABS*	00000000 FMPLL1_CR
0000ffe4 l       *ABS*	00000000 LINFLEX0_BASE
00000000 l       *ABS*	00000000 LINFLEX0_LINCR1
00000010 l       *ABS*	00000000 LINFLEX0_UARTCR
00000014 l       *ABS*	00000000 LINFLEX0_UARTSR
00000028 l       *ABS*	00000000 LINFLEX0_LINBRR
0000002c l       *ABS*	00000000 LINFLEX0_LINBFRR
00000038 l       *ABS*	00000000 LINFLEX0_BRDL
0000003c l       *ABS*	00000000 LINFLEX0_BRDM
0000f7fe l       *ABS*	00000000 FLASH_BASE
00000000 l       *ABS*	00000000 FLASH_MCR
00000004 l       *ABS*	00000000 FLASH_MCRA
00000008 l       *ABS*	00000000 FLASH_MCRE
00000010 l       *ABS*	00000000 FLASH_LOCK0
00000014 l       *ABS*	00000000 FLASH_LOCK1
00000018 l       *ABS*	00000000 FLASH_LOCK2
0000001c l       *ABS*	00000000 FLASH_LOCK3
00000028 l       *ABS*	00000000 FLASH_LOCK0A
0000002c l       *ABS*	00000000 FLASH_LOCK1A
00000038 l       *ABS*	00000000 FLASH_SEL0
0000003c l       *ABS*	00000000 FLASH_SEL1
00000040 l       *ABS*	00000000 FLASH_SEL2
00000044 l       *ABS*	00000000 FLASH_SEL3
0000004c l       *ABS*	00000000 FLASH_PAR
00000050 l       *ABS*	00000000 FLASH_ADR
00000054 l       *ABS*	00000000 FLASH_UT0
00000058 l       *ABS*	00000000 FLASH_UM0
0000005c l       *ABS*	00000000 FLASH_UM1
00000060 l       *ABS*	00000000 FLASH_UM2
00000064 l       *ABS*	00000000 FLASH_UM3
00000068 l       *ABS*	00000000 FLASH_UM4
0000006c l       *ABS*	00000000 FLASH_UM5
00000070 l       *ABS*	00000000 FLASH_UM6
00000074 l       *ABS*	00000000 FLASH_UM7
00000078 l       *ABS*	00000000 FLASH_UM8
0000007c l       *ABS*	00000000 FLASH_UM9
00000080 l       *ABS*	00000000 FLASH_OPP0
00000084 l       *ABS*	00000000 FLASH_OPP1
00000088 l       *ABS*	00000000 FLASH_OPP2
0000008c l       *ABS*	00000000 FLASH_OPP3
00000090 l       *ABS*	00000000 FLASH_TMD
00000094 l       *ABS*	00000000 FLASH_ALTSEL0
00000098 l       *ABS*	00000000 FLASH_ALTSEL1
00000100 l       *ABS*	00000000 FLASH_ELOCK0
00000104 l       *ABS*	00000000 FLASH_ELOCK1
00000108 l       *ABS*	00000000 FLASH_ELOCK2
0000010c l       *ABS*	00000000 FLASH_ELOCK3
00000110 l       *ABS*	00000000 FLASH_PLOCK0
00000114 l       *ABS*	00000000 FLASH_PLOCK1
00000118 l       *ABS*	00000000 FLASH_PLOCK2
0000011c l       *ABS*	00000000 FLASH_PLOCK3
fff48000 l       *ABS*	00000000 INTC_BASE
fff48010 l       *ABS*	00000000 INTC_IACKR
fff48018 l       *ABS*	00000000 INTC_EOIR
00000800 l       *ABS*	00000000 block_size
00000001 l       *ABS*	00000000 DEBUG_LED
52800100 l       .text	00000000 main_start
5280016e l       .text	00000000 rfill_1
52800224 l       .text	00000000 prog_dw
528001dc l       .text	00000000 loop
528001e0 l       .text	00000000 w1
528001f4 l       .text	00000000 w2
52800234 l       .text	00000000 prog_dw_loop
52800250 g       .data	00000000 __data_start__
52808250 g       .data	00000000 __sdata_start__
52808250 g       .text	00000000 __sdata2_start__
00000000 g       *ABS*	00000000 _reset_address
52800250 g       .data	00000000 __heap_base__
52800250 g       .text	00000000 __romdata_start__
52800250 g       .stacks	00000000 __main_thread_stack_end__
52810000 g       *ABS*	00000000 __heap_end__
52800250 g       .data	00000000 __bss_start__
ffffffff g       *ABS*	00000000 __flash_size__
52800250 g       .data	00000000 __data_end__
52800250 g       .data	00000000 __bss_end__
52800000 g       .text	00000000 _start
00000000 g       *ABS*	00000000 __irq_stack_size__
ffffffff g       *ABS*	00000000 __flash_end__
00010000 g       *ABS*	00000000 __ram_size__
52800000 g       .text	00000000 __ram_start__
52800250 g       .stacks	00000000 __process_stack_base__
52800250 g       .stacks	00000000 __irq_stack_end__
52810000 g       *ABS*	00000000 __ram_end__
52800250 g       .stacks	00000000 __irq_stack_base__
52800250 g       .stacks	00000000 __main_thread_stack_base__
00000000 g       .text	00000000 __flash_start__
52800250 g       .stacks	00000000 __process_stack_end__
00000000 g       *ABS*	00000000 __process_stack_size__



Disassembly of section .text:

52800000 <__ram_start__>:
	...

52800100 <main_start>:
52800100:	73 1e e4 05 	e_lis   r24,62469
52800104:	73 30 00 10 	e_li    r25,32784
52800108:	44 89       	se_or   r25,r24
5280010a:	73 98 05 20 	e_li    r28,50464
5280010e:	57 99 00 00 	e_stw   r28,0(r25)
52800112:	73 9b 01 28 	e_li    r28,55592
52800116:	57 99 00 00 	e_stw   r28,0(r25)
5280011a:	73 30 00 00 	e_li    r25,32768
5280011e:	44 89       	se_or   r25,r24
52800120:	53 99 00 00 	e_lwz   r28,0(r25)
52800124:	77 9c 00 3d 	e_rlwinm r28,r28,0,0,30
52800128:	57 99 00 00 	e_stw   r28,0(r25)
5280012c:	73 1e e7 fb 	e_lis   r24,63483
52800130:	73 30 00 80 	e_li    r25,32896
52800134:	44 89       	se_or   r25,r24
52800136:	73 80 00 fe 	e_li    r28,254
5280013a:	57 99 00 00 	e_stw   r28,0(r25)
5280013e:	73 30 00 04 	e_li    r25,32772
52800142:	44 89       	se_or   r25,r24
52800144:	73 a6 e0 00 	e_lis   r29,12288
52800148:	73 8b 02 f0 	e_li    r28,23280
5280014c:	44 dc       	se_or   r28,r29
5280014e:	d0 c9       	se_stw  r28,0(r25)
52800150:	73 94 05 0f 	e_li    r28,42255
52800154:	44 dc       	se_or   r28,r29
52800156:	d0 c9       	se_stw  r28,0(r25)
52800158:	73 8a e2 80 	e_lis   r28,21120
5280015c:	73 a1 00 00 	e_li    r29,2048
52800160:	44 dc       	se_or   r28,r29
52800162:	73 c0 00 00 	e_li    r30,0
52800166:	73 e0 00 00 	e_li    r31,0
5280016a:	73 60 00 00 	e_li    r27,0

5280016e <rfill_1>:
5280016e:	1b dc 09 00 	e_stmw  r30,0(r28)
52800172:	1f 9c 00 08 	e_add16i r28,r28,8
52800176:	1f 7b 00 01 	e_add16i r27,r27,1
5280017a:	70 7b 9f 00 	e_cmp16i r27,7936
5280017e:	e2 f8       	se_bne  5280016e <rfill_1>
52800180:	70 2a e2 80 	e_lis   r1,21120
52800184:	73 3f 07 fc 	e_li    r25,65532
52800188:	44 91       	se_or   r1,r25
5280018a:	73 3e e7 fc 	e_lis   r25,63484
5280018e:	73 84 e2 88 	e_lis   r28,8840
52800192:	57 99 04 44 	e_stw   r28,1092(r25)
52800196:	57 99 04 48 	e_stw   r28,1096(r25)
5280019a:	73 be e7 fe 	e_lis   r29,63486
5280019e:	73 d0 e0 00 	e_lis   r30,32768
528001a2:	57 dd 00 10 	e_stw   r30,16(r29)
528001a6:	73 df e7 ff 	e_lis   r30,65535
528001aa:	57 dd 00 14 	e_stw   r30,20(r29)
528001ae:	73 c0 e0 00 	e_lis   r30,0
528001b2:	57 dd 00 18 	e_stw   r30,24(r29)
528001b6:	57 dd 00 1c 	e_stw   r30,28(r29)
528001ba:	70 a0 e0 80 	e_lis   r5,128
528001be:	70 c2 e1 11 	e_lis   r6,4369
528001c2:	70 c4 c2 22 	e_or2i  r6,8738
528001c6:	70 e6 e3 33 	e_lis   r7,13107
528001ca:	70 e8 c4 44 	e_or2i  r7,17476
528001ce:	78 00 00 57 	e_bl    52800224 <prog_dw>
528001d2:	70 ca e2 80 	e_lis   r6,21120
528001d6:	70 a0 00 80 	e_li    r5,128
528001da:	44 56       	se_or   r6,r5

528001dc <loop>:
528001dc:	70 60 e0 08 	e_lis   r3,8

528001e0 <w1>:
528001e0:	26 03       	se_subi. r3,1
528001e2:	e2 ff       	se_bne  528001e0 <w1>
528001e4:	48 1c       	se_li   r28,1
528001e6:	37 99 13 81 	e_stb   r28,4993(r25)
528001ea:	48 0c       	se_li   r28,0
528001ec:	37 99 13 82 	e_stb   r28,4994(r25)
528001f0:	70 60 e0 08 	e_lis   r3,8

528001f4 <w2>:
528001f4:	26 03       	se_subi. r3,1
528001f6:	e2 ff       	se_bne  528001f4 <w2>
528001f8:	50 f9 17 10 	e_lwz   r7,5904(r25)
528001fc:	d2 76       	se_stw  r7,8(r6)
528001fe:	48 0c       	se_li   r28,0
52800200:	37 99 13 81 	e_stb   r28,4993(r25)
52800204:	48 1c       	se_li   r28,1
52800206:	37 99 13 82 	e_stb   r28,4994(r25)
5280020a:	50 f9 00 04 	e_lwz   r7,4(r25)
5280020e:	d0 76       	se_stw  r7,0(r6)
52800210:	50 f9 00 08 	e_lwz   r7,8(r25)
52800214:	d1 76       	se_stw  r7,4(r6)
52800216:	50 f9 04 44 	e_lwz   r7,1092(r25)
5280021a:	d2 76       	se_stw  r7,8(r6)
5280021c:	50 f9 17 10 	e_lwz   r7,5904(r25)
52800220:	d3 76       	se_stw  r7,12(r6)
52800222:	e8 dd       	se_b    528001dc <loop>

52800224 <prog_dw>:
52800224:	73 e0 00 10 	e_li    r31,16
52800228:	d0 fd       	se_stw  r31,0(r29)
5280022a:	d0 65       	se_stw  r6,0(r5)
5280022c:	d1 75       	se_stw  r7,4(r5)
5280022e:	73 e0 00 11 	e_li    r31,17
52800232:	d0 fd       	se_stw  r31,0(r29)

52800234 <prog_dw_loop>:
52800234:	c0 fd       	se_lwz  r31,0(r29)
52800236:	73 e0 cc 00 	e_and2i. r31,1024
5280023a:	e6 fd       	se_beq  52800234 <prog_dw_loop>
5280023c:	73 e0 00 10 	e_li    r31,16
52800240:	d0 fd       	se_stw  r31,0(r29)
52800242:	73 e0 00 00 	e_li    r31,0
52800246:	d0 fd       	se_stw  r31,0(r29)
52800248:	00 04       	se_blr

Disassembly of section .PPC.EMB.apuinfo:

00000000 <.PPC.EMB.apuinfo>:
   0:	00 00 00 08 	.long 0x8
   4:	00 00 00 04 	.long 0x4
   8:	00 00 00 02 	.long 0x2
   c:	41 50 55 69 	bdztl   4*cr4+lt,5574 <MCSR_OUTPUT+0x32ec>
  10:	6e 66 6f 00 	xoris   r6,r19,28416
  14:	01 04 00 01 	.long 0x1040001

boot.elf:     file format elf32-powerpc
boot.elf
architecture: powerpc:common, flags 0x00000112:
EXEC_P, HAS_SYMS, D_PAGED
start address 0x00000000

Program Header:
    LOAD off    0x00000000 vaddr 0x00600000 paddr 0x00600000 align 2**16
         filesz 0x0000c278 memsz 0x0000c278 flags r-x
    LOAD off    0x00010000 vaddr 0x52800000 paddr 0x0060c280 align 2**16
         filesz 0x00000000 memsz 0x00000000 flags rw-

Sections:
Idx Name          Size      VMA       LMA       File off  Algn
  0 .text         00000278  0060c000  0060c000  0000c000  2**4
                  CONTENTS, ALLOC, LOAD, READONLY, CODE, VLE
  1 .stacks       00000000  52800000  52800000  00010000  2**0
                  CONTENTS
  2 .data         00000000  52800000  0060c280  00010000  2**0
                  CONTENTS, ALLOC, LOAD, DATA
  3 .PPC.EMB.apuinfo 00000018  00000000  00000000  00010000  2**0
                  CONTENTS, READONLY
SYMBOL TABLE:
0060c000 l    d  .text	00000000 .text
52800000 l    d  .stacks	00000000 .stacks
52800000 l    d  .data	00000000 .data
00000000 l    d  .PPC.EMB.apuinfo	00000000 .PPC.EMB.apuinfo
00000000 l    df *ABS*	00000000 build/src/boot.o
00000000 l       *ABS*	00000000 r0
00000001 l       *ABS*	00000000 r1
00000001 l       *ABS*	00000000 rsp
00000002 l       *ABS*	00000000 r2
00000003 l       *ABS*	00000000 r3
00000004 l       *ABS*	00000000 r4
00000005 l       *ABS*	00000000 r5
00000006 l       *ABS*	00000000 r6
00000007 l       *ABS*	00000000 r7
00000008 l       *ABS*	00000000 r8
00000009 l       *ABS*	00000000 r9
0000000a l       *ABS*	00000000 r10
0000000b l       *ABS*	00000000 r11
0000000c l       *ABS*	00000000 r12
0000000d l       *ABS*	00000000 r13
0000000e l       *ABS*	00000000 r14
0000000f l       *ABS*	00000000 r15
00000010 l       *ABS*	00000000 r16
00000011 l       *ABS*	00000000 r17
00000012 l       *ABS*	00000000 r18
00000013 l       *ABS*	00000000 r19
00000014 l       *ABS*	00000000 r20
00000015 l       *ABS*	00000000 r21
00000016 l       *ABS*	00000000 r22
00000017 l       *ABS*	00000000 r23
00000018 l       *ABS*	00000000 r24
00000019 l       *ABS*	00000000 r25
0000001a l       *ABS*	00000000 r26
0000001b l       *ABS*	00000000 r27
0000001c l       *ABS*	00000000 r28
0000001d l       *ABS*	00000000 r29
0000001e l       *ABS*	00000000 r30
0000001f l       *ABS*	00000000 r31
0000f7fc l       *ABS*	00000000 SIUL_BASE
00001300 l       *ABS*	00000000 GPDO0
00001304 l       *ABS*	00000000 GPDO1
00001308 l       *ABS*	00000000 GPDO2
0000130c l       *ABS*	00000000 GPDO3
00001310 l       *ABS*	00000000 GPDO4
00001314 l       *ABS*	00000000 GPDO5
00001318 l       *ABS*	00000000 GPDO6
0000131c l       *ABS*	00000000 GPDO7
00001320 l       *ABS*	00000000 GPDO8
00001324 l       *ABS*	00000000 GPDO9
00001328 l       *ABS*	00000000 GPDO10
0000132c l       *ABS*	00000000 GPDO11
00001330 l       *ABS*	00000000 GPDO12
00001334 l       *ABS*	00000000 GPDO13
00001338 l       *ABS*	00000000 GPDO14
0000133c l       *ABS*	00000000 GPDO15
00001340 l       *ABS*	00000000 GPDO16
00001344 l       *ABS*	00000000 GPDO17
00001348 l       *ABS*	00000000 GPDO18
0000134c l       *ABS*	00000000 GPDO19
00001350 l       *ABS*	00000000 GPDO20
00001354 l       *ABS*	00000000 GPDO21
00001358 l       *ABS*	00000000 GPDO22
0000135c l       *ABS*	00000000 GPDO23
00001360 l       *ABS*	00000000 GPDO24
00001364 l       *ABS*	00000000 GPDO25
00001368 l       *ABS*	00000000 GPDO26
0000136c l       *ABS*	00000000 GPDO27
00001370 l       *ABS*	00000000 GPDO28
00001374 l       *ABS*	00000000 GPDO29
00001378 l       *ABS*	00000000 GPDO30
0000137c l       *ABS*	00000000 GPDO31
00001380 l       *ABS*	00000000 GPDO32
00001384 l       *ABS*	00000000 GPDO33
00001388 l       *ABS*	00000000 GPDO34
0000138c l       *ABS*	00000000 GPDO35
00001390 l       *ABS*	00000000 GPDO36
00001394 l       *ABS*	00000000 GPDO37
00001398 l       *ABS*	00000000 GPDO38
0000139c l       *ABS*	00000000 GPDO39
00001500 l       *ABS*	00000000 GPDI0
00001504 l       *ABS*	00000000 GPDI1
00001508 l       *ABS*	00000000 GPDI2
0000150c l       *ABS*	00000000 GPDI3
00001510 l       *ABS*	00000000 GPDI4
00001514 l       *ABS*	00000000 GPDI5
00001518 l       *ABS*	00000000 GPDI6
0000151c l       *ABS*	00000000 GPDI7
00001520 l       *ABS*	00000000 GPDI8
00001524 l       *ABS*	00000000 GPDI9
00001528 l       *ABS*	00000000 GPDI10
0000152c l       *ABS*	00000000 GPDI11
00001530 l       *ABS*	00000000 GPDI12
00001534 l       *ABS*	00000000 GPDI13
00001538 l       *ABS*	00000000 GPDI14
0000153c l       *ABS*	00000000 GPDI15
00001540 l       *ABS*	00000000 GPDI16
00001544 l       *ABS*	00000000 GPDI17
00001548 l       *ABS*	00000000 GPDI18
0000154c l       *ABS*	00000000 GPDI19
00001550 l       *ABS*	00000000 GPDI20
00001554 l       *ABS*	00000000 GPDI21
00001558 l       *ABS*	00000000 GPDI22
0000155c l       *ABS*	00000000 GPDI23
00001560 l       *ABS*	00000000 GPDI24
00001564 l       *ABS*	00000000 GPDI25
00001568 l       *ABS*	00000000 GPDI26
0000156c l       *ABS*	00000000 GPDI27
00001570 l       *ABS*	00000000 GPDI28
00001574 l       *ABS*	00000000 GPDI29
00001578 l       *ABS*	00000000 GPDI30
0000157c l       *ABS*	00000000 GPDI31
00001580 l       *ABS*	00000000 GPDI32
00001584 l       *ABS*	00000000 GPDI33
00001588 l       *ABS*	00000000 GPDI34
0000158c l       *ABS*	00000000 GPDI35
00001590 l       *ABS*	00000000 GPDI36
00001594 l       *ABS*	00000000 GPDI37
00001598 l       *ABS*	00000000 GPDI38
0000159c l       *ABS*	00000000 GPDI39
00001700 l       *ABS*	00000000 PGPDO0
00001704 l       *ABS*	00000000 PGPDO1
00001708 l       *ABS*	00000000 PGPDO2
0000170c l       *ABS*	00000000 PGPDO3
00001710 l       *ABS*	00000000 PGPDO4
00001700 l       *ABS*	00000000 POUT_A
00001702 l       *ABS*	00000000 POUT_B
00001704 l       *ABS*	00000000 POUT_C
00001706 l       *ABS*	00000000 POUT_D
00001708 l       *ABS*	00000000 POUT_E
0000170a l       *ABS*	00000000 POUT_F
0000170c l       *ABS*	00000000 POUT_G
0000170e l       *ABS*	00000000 POUT_H
00001710 l       *ABS*	00000000 POUT_I
00001712 l       *ABS*	00000000 POUT_J
00001740 l       *ABS*	00000000 PGPDI0
00001744 l       *ABS*	00000000 PGPDI1
00001748 l       *ABS*	00000000 PGPDI2
0000174c l       *ABS*	00000000 PGPDI3
00001750 l       *ABS*	00000000 PGPDI4
00001740 l       *ABS*	00000000 PIN_A
00001742 l       *ABS*	00000000 PIN_B
00001744 l       *ABS*	00000000 PIN_C
00001746 l       *ABS*	00000000 PIN_D
00001748 l       *ABS*	00000000 PIN_E
0000174a l       *ABS*	00000000 PIN_F
0000174c l       *ABS*	00000000 PIN_G
0000174e l       *ABS*	00000000 PIN_H
00001750 l       *ABS*	00000000 PIN_I
00001752 l       *ABS*	00000000 PIN_J
00000240 l       *ABS*	00000000 MCSR_A0
00000244 l       *ABS*	00000000 MCSR_A1
00000248 l       *ABS*	00000000 MCSR_A2
0000024c l       *ABS*	00000000 MCSR_A3
00000250 l       *ABS*	00000000 MCSR_A4
00000254 l       *ABS*	00000000 MCSR_A5
00000258 l       *ABS*	00000000 MCSR_A6
0000025c l       *ABS*	00000000 MCSR_A7
00000260 l       *ABS*	00000000 MCSR_A8
00000264 l       *ABS*	00000000 MCSR_A9
00000268 l       *ABS*	00000000 MCSR_A10
0000026c l       *ABS*	00000000 MCSR_A11
00000270 l       *ABS*	00000000 MCSR_A12
00000274 l       *ABS*	00000000 MCSR_A13
00000278 l       *ABS*	00000000 MCSR_A14
0000027c l       *ABS*	00000000 MCSR_A15
00000280 l       *ABS*	00000000 MCSR_B0
00000284 l       *ABS*	00000000 MCSR_B1
00000288 l       *ABS*	00000000 MCSR_B2
0000028c l       *ABS*	00000000 MCSR_B3
00000290 l       *ABS*	00000000 MCSR_B4
00000294 l       *ABS*	00000000 MCSR_B5
00000298 l       *ABS*	00000000 MCSR_B6
0000029c l       *ABS*	00000000 MCSR_B7
000002a0 l       *ABS*	00000000 MCSR_B8
000002a4 l       *ABS*	00000000 MCSR_B9
000002a8 l       *ABS*	00000000 MCSR_B10
000002ac l       *ABS*	00000000 MCSR_B11
000002b0 l       *ABS*	00000000 MCSR_B12
000002b4 l       *ABS*	00000000 MCSR_B13
000002b8 l       *ABS*	00000000 MCSR_B14
000002bc l       *ABS*	00000000 MCSR_B15
000002c0 l       *ABS*	00000000 MCSR_C0
000002c4 l       *ABS*	00000000 MCSR_C1
000002c8 l       *ABS*	00000000 MCSR_C2
000002cc l       *ABS*	00000000 MCSR_C3
000002d0 l       *ABS*	00000000 MCSR_C4
000002d4 l       *ABS*	00000000 MCSR_C5
000002d8 l       *ABS*	00000000 MCSR_C6
000002dc l       *ABS*	00000000 MCSR_C7
000002e0 l       *ABS*	00000000 MCSR_C8
000002e4 l       *ABS*	00000000 MCSR_C9
000002e8 l       *ABS*	00000000 MCSR_C10
000002ec l       *ABS*	00000000 MCSR_C11
000002f0 l       *ABS*	00000000 MCSR_C12
000002f4 l       *ABS*	00000000 MCSR_C13
000002f8 l       *ABS*	00000000 MCSR_C14
000002fc l       *ABS*	00000000 MCSR_C15
00000300 l       *ABS*	00000000 MCSR_D0
00000304 l       *ABS*	00000000 MCSR_D1
00000308 l       *ABS*	00000000 MCSR_D2
0000030c l       *ABS*	00000000 MCSR_D3
00000310 l       *ABS*	00000000 MCSR_D4
00000314 l       *ABS*	00000000 MCSR_D5
00000318 l       *ABS*	00000000 MCSR_D6
0000031c l       *ABS*	00000000 MCSR_D7
00000320 l       *ABS*	00000000 MCSR_D8
00000324 l       *ABS*	00000000 MCSR_D9
00000328 l       *ABS*	00000000 MCSR_D10
0000032c l       *ABS*	00000000 MCSR_D11
00000330 l       *ABS*	00000000 MCSR_D12
00000334 l       *ABS*	00000000 MCSR_D13
00000338 l       *ABS*	00000000 MCSR_D14
0000033c l       *ABS*	00000000 MCSR_D15
00000340 l       *ABS*	00000000 MCSR_E0
00000344 l       *ABS*	00000000 MCSR_E1
00000348 l       *ABS*	00000000 MCSR_E2
0000034c l       *ABS*	00000000 MCSR_E3
00000350 l       *ABS*	00000000 MCSR_E4
00000354 l       *ABS*	00000000 MCSR_E5
00000358 l       *ABS*	00000000 MCSR_E6
0000035c l       *ABS*	00000000 MCSR_E7
00000360 l       *ABS*	00000000 MCSR_E8
00000364 l       *ABS*	00000000 MCSR_E9
00000368 l       *ABS*	00000000 MCSR_E10
0000036c l       *ABS*	00000000 MCSR_E11
00000370 l       *ABS*	00000000 MCSR_E12
00000374 l       *ABS*	00000000 MCSR_E13
00000378 l       *ABS*	00000000 MCSR_E14
0000037c l       *ABS*	00000000 MCSR_E15
00000380 l       *ABS*	00000000 MCSR_F0
00000384 l       *ABS*	00000000 MCSR_F1
00000388 l       *ABS*	00000000 MCSR_F2
0000038c l       *ABS*	00000000 MCSR_F3
00000390 l       *ABS*	00000000 MCSR_F4
00000394 l       *ABS*	00000000 MCSR_F5
00000398 l       *ABS*	00000000 MCSR_F6
0000039c l       *ABS*	00000000 MCSR_F7
000003a0 l       *ABS*	00000000 MCSR_F8
000003a4 l       *ABS*	00000000 MCSR_F9
000003a8 l       *ABS*	00000000 MCSR_F10
000003ac l       *ABS*	00000000 MCSR_F11
000003b0 l       *ABS*	00000000 MCSR_F12
000003b4 l       *ABS*	00000000 MCSR_F13
000003b8 l       *ABS*	00000000 MCSR_F14
000003bc l       *ABS*	00000000 MCSR_F15
000003c0 l       *ABS*	00000000 MCSR_G0
000003c4 l       *ABS*	00000000 MCSR_G1
000003c8 l       *ABS*	00000000 MCSR_G2
000003cc l       *ABS*	00000000 MCSR_G3
000003d0 l       *ABS*	00000000 MCSR_G4
000003d4 l       *ABS*	00000000 MCSR_G5
000003d8 l       *ABS*	00000000 MCSR_G6
000003dc l       *ABS*	00000000 MCSR_G7
000003e0 l       *ABS*	00000000 MCSR_G8
000003e4 l       *ABS*	00000000 MCSR_G9
000003e8 l       *ABS*	00000000 MCSR_G10
000003ec l       *ABS*	00000000 MCSR_G11
000003f0 l       *ABS*	00000000 MCSR_G12
000003f4 l       *ABS*	00000000 MCSR_G13
000003f8 l       *ABS*	00000000 MCSR_G14
000003fc l       *ABS*	00000000 MCSR_G15
00000400 l       *ABS*	00000000 MCSR_H0
00000404 l       *ABS*	00000000 MCSR_H1
00000408 l       *ABS*	00000000 MCSR_H2
0000040c l       *ABS*	00000000 MCSR_H3
00000410 l       *ABS*	00000000 MCSR_H4
00000414 l       *ABS*	00000000 MCSR_H5
00000418 l       *ABS*	00000000 MCSR_H6
0000041c l       *ABS*	00000000 MCSR_H7
00000420 l       *ABS*	00000000 MCSR_H8
00000424 l       *ABS*	00000000 MCSR_H9
00000428 l       *ABS*	00000000 MCSR_H10
0000042c l       *ABS*	00000000 MCSR_H11
00000430 l       *ABS*	00000000 MCSR_H12
00000434 l       *ABS*	00000000 MCSR_H13
00000438 l       *ABS*	00000000 MCSR_H14
0000043c l       *ABS*	00000000 MCSR_H15
00000440 l       *ABS*	00000000 MCSR_I0
00000444 l       *ABS*	00000000 MCSR_I1
00000448 l       *ABS*	00000000 MCSR_I2
0000044c l       *ABS*	00000000 MCSR_I3
00000450 l       *ABS*	00000000 MCSR_I4
00000454 l       *ABS*	00000000 MCSR_I5
00000458 l       *ABS*	00000000 MCSR_I6
0000045c l       *ABS*	00000000 MCSR_I7
00000460 l       *ABS*	00000000 MCSR_I8
00000464 l       *ABS*	00000000 MCSR_I9
00000468 l       *ABS*	00000000 MCSR_I10
0000046c l       *ABS*	00000000 MCSR_I11
00000470 l       *ABS*	00000000 MCSR_I12
00000474 l       *ABS*	00000000 MCSR_I13
00000478 l       *ABS*	00000000 MCSR_I14
0000047c l       *ABS*	00000000 MCSR_I15
00000480 l       *ABS*	00000000 MCSR_J0
00000484 l       *ABS*	00000000 MCSR_J1
00000488 l       *ABS*	00000000 MCSR_J2
0000048c l       *ABS*	00000000 MCSR_J3
00000490 l       *ABS*	00000000 MCSR_J4
00000494 l       *ABS*	00000000 MCSR_J5
00000498 l       *ABS*	00000000 MCSR_J6
0000049c l       *ABS*	00000000 MCSR_J7
000004a0 l       *ABS*	00000000 MCSR_J8
000004a4 l       *ABS*	00000000 MCSR_J9
000004a8 l       *ABS*	00000000 MCSR_J10
000004ac l       *ABS*	00000000 MCSR_J11
000004b0 l       *ABS*	00000000 MCSR_J12
000004b4 l       *ABS*	00000000 MCSR_J13
000004b8 l       *ABS*	00000000 MCSR_J14
000004bc l       *ABS*	00000000 MCSR_J15
00000003 l       *ABS*	00000000 MCSR_UNCONNECT
00000088 l       *ABS*	00000000 MCSR_INPUT
00000089 l       *ABS*	00000000 MCSR_INPUT_PU
0000008a l       *ABS*	00000000 MCSR_INPUT_PD
00002288 l       *ABS*	00000000 MCSR_OUTPUT
00002188 l       *ABS*	00000000 MCSR_OUTPUT_OD
0000f405 l       *ABS*	00000000 SWT_BASE
00008000 l       *ABS*	00000000 SWT_CR
00008004 l       *ABS*	00000000 SWT_IR
00008008 l       *ABS*	00000000 SWT_TO
0000800c l       *ABS*	00000000 SWT_WN
00008010 l       *ABS*	00000000 SWT_SR
00008014 l       *ABS*	00000000 SWT_CO
00008018 l       *ABS*	00000000 SWT_SK
0000f7fb l       *ABS*	00000000 ME_BASE
00008000 l       *ABS*	00000000 ME_GS
00008004 l       *ABS*	00000000 ME_MCTL
00008008 l       *ABS*	00000000 ME_ME
0000800c l       *ABS*	00000000 ME_MIS
00008010 l       *ABS*	00000000 ME_IM
00008014 l       *ABS*	00000000 ME_IMTS
00008018 l       *ABS*	00000000 ME_DMTS
00008080 l       *ABS*	00000000 ME_RUN_PC0
00008084 l       *ABS*	00000000 ME_RUN_PC1
00008088 l       *ABS*	00000000 ME_RUN_PC2
0000808c l       *ABS*	00000000 ME_RUN_PC3
00008090 l       *ABS*	00000000 ME_RUN_PC4
00008094 l       *ABS*	00000000 ME_RUN_PC5
00008098 l       *ABS*	00000000 ME_RUN_PC6
0000809c l       *ABS*	00000000 ME_RUN_PC7
0000802c l       *ABS*	00000000 ME_DRUN_MC
0000c3fe l       *ABS*	00000000 FMPLL_BASE
000000a0 l       *ABS*	00000000 FMPLL0_CR
000000c0 l       *ABS*	00000000 FMPLL1_CR
0000ffe4 l       *ABS*	00000000 LINFLEX0_BASE
00000000 l       *ABS*	00000000 LINFLEX0_LINCR1
00000010 l       *ABS*	00000000 LINFLEX0_UARTCR
00000014 l       *ABS*	00000000 LINFLEX0_UARTSR
00000028 l       *ABS*	00000000 LINFLEX0_LINBRR
0000002c l       *ABS*	00000000 LINFLEX0_LINBFRR
00000038 l       *ABS*	00000000 LINFLEX0_BRDL
0000003c l       *ABS*	00000000 LINFLEX0_BRDM
0000f7fe l       *ABS*	00000000 FLASH_BASE
00000000 l       *ABS*	00000000 FLASH_MCR
00000004 l       *ABS*	00000000 FLASH_MCRA
00000008 l       *ABS*	00000000 FLASH_MCRE
00000010 l       *ABS*	00000000 FLASH_LOCK0
00000014 l       *ABS*	00000000 FLASH_LOCK1
00000018 l       *ABS*	00000000 FLASH_LOCK2
0000001c l       *ABS*	00000000 FLASH_LOCK3
00000028 l       *ABS*	00000000 FLASH_LOCK0A
0000002c l       *ABS*	00000000 FLASH_LOCK1A
00000038 l       *ABS*	00000000 FLASH_SEL0
0000003c l       *ABS*	00000000 FLASH_SEL1
00000040 l       *ABS*	00000000 FLASH_SEL2
00000044 l       *ABS*	00000000 FLASH_SEL3
0000004c l       *ABS*	00000000 FLASH_PAR
00000050 l       *ABS*	00000000 FLASH_ADR
00000054 l       *ABS*	00000000 FLASH_UT0
00000058 l       *ABS*	00000000 FLASH_UM0
0000005c l       *ABS*	00000000 FLASH_UM1
00000060 l       *ABS*	00000000 FLASH_UM2
00000064 l       *ABS*	00000000 FLASH_UM3
00000068 l       *ABS*	00000000 FLASH_UM4
0000006c l       *ABS*	00000000 FLASH_UM5
00000070 l       *ABS*	00000000 FLASH_UM6
00000074 l       *ABS*	00000000 FLASH_UM7
00000078 l       *ABS*	00000000 FLASH_UM8
0000007c l       *ABS*	00000000 FLASH_UM9
00000080 l       *ABS*	00000000 FLASH_OPP0
00000084 l       *ABS*	00000000 FLASH_OPP1
00000088 l       *ABS*	00000000 FLASH_OPP2
0000008c l       *ABS*	00000000 FLASH_OPP3
00000090 l       *ABS*	00000000 FLASH_TMD
00000094 l       *ABS*	00000000 FLASH_ALTSEL0
00000098 l       *ABS*	00000000 FLASH_ALTSEL1
00000100 l       *ABS*	00000000 FLASH_ELOCK0
00000104 l       *ABS*	00000000 FLASH_ELOCK1
00000108 l       *ABS*	00000000 FLASH_ELOCK2
0000010c l       *ABS*	00000000 FLASH_ELOCK3
00000110 l       *ABS*	00000000 FLASH_PLOCK0
00000114 l       *ABS*	00000000 FLASH_PLOCK1
00000118 l       *ABS*	00000000 FLASH_PLOCK2
0000011c l       *ABS*	00000000 FLASH_PLOCK3
fff48000 l       *ABS*	00000000 INTC_BASE
fff48010 l       *ABS*	00000000 INTC_IACKR
fff48018 l       *ABS*	00000000 INTC_EOIR
00000800 l       *ABS*	00000000 block_size
00000001 l       *ABS*	00000000 DEBUG_LED
0060c100 l       .text	00000000 main_start
0060c16e l       .text	00000000 rfill_1
0060c24a l       .text	00000000 erase_data_flash
0060c1dc l       .text	00000000 loop
0060c1e0 l       .text	00000000 w1
0060c1f4 l       .text	00000000 w2
0060c224 l       .text	00000000 prog_dw
0060c234 l       .text	00000000 prog_dw_loop
0060c262 l       .text	00000000 prog_edf_loop
52800000 g       .data	00000000 __data_start__
52808000 g       .data	00000000 __sdata_start__
00614280 g       .text	00000000 __sdata2_start__
00000000 g       *ABS*	00000000 _reset_address
52800000 g       .data	00000000 __heap_base__
0060c280 g       .text	00000000 __romdata_start__
52800000 g       .stacks	00000000 __main_thread_stack_end__
52810000 g       *ABS*	00000000 __heap_end__
52800000 g       .data	00000000 __bss_start__
00024000 g       *ABS*	00000000 __flash_size__
52800000 g       .data	00000000 __data_end__
52800000 g       .data	00000000 __bss_end__
0060c000 g       .text	00000000 _start
00000000 g       *ABS*	00000000 __irq_stack_size__
00630000 g       *ABS*	00000000 __flash_end__
00010000 g       *ABS*	00000000 __ram_size__
52800000 g       .text	00000000 __ram_start__
52800000 g       .stacks	00000000 __process_stack_base__
52800000 g       .stacks	00000000 __irq_stack_end__
52810000 g       *ABS*	00000000 __ram_end__
52800000 g       .stacks	00000000 __irq_stack_base__
52800000 g       .stacks	00000000 __main_thread_stack_base__
0060c000 g       .text	00000000 __flash_start__
52800000 g       .stacks	00000000 __process_stack_end__
00000000 g       *ABS*	00000000 __process_stack_size__



Disassembly of section .text:

0060c000 <__flash_start__>:
	...

0060c100 <main_start>:
  60c100:	73 1e e4 05 	e_lis   r24,62469
  60c104:	73 30 00 10 	e_li    r25,32784
  60c108:	44 89       	se_or   r25,r24
  60c10a:	73 98 05 20 	e_li    r28,50464
  60c10e:	57 99 00 00 	e_stw   r28,0(r25)
  60c112:	73 9b 01 28 	e_li    r28,55592
  60c116:	57 99 00 00 	e_stw   r28,0(r25)
  60c11a:	73 30 00 00 	e_li    r25,32768
  60c11e:	44 89       	se_or   r25,r24
  60c120:	53 99 00 00 	e_lwz   r28,0(r25)
  60c124:	77 9c 00 3d 	e_rlwinm r28,r28,0,0,30
  60c128:	57 99 00 00 	e_stw   r28,0(r25)
  60c12c:	73 1e e7 fb 	e_lis   r24,63483
  60c130:	73 30 00 80 	e_li    r25,32896
  60c134:	44 89       	se_or   r25,r24
  60c136:	73 80 00 fe 	e_li    r28,254
  60c13a:	57 99 00 00 	e_stw   r28,0(r25)
  60c13e:	73 30 00 04 	e_li    r25,32772
  60c142:	44 89       	se_or   r25,r24
  60c144:	73 a6 e0 00 	e_lis   r29,12288
  60c148:	73 8b 02 f0 	e_li    r28,23280
  60c14c:	44 dc       	se_or   r28,r29
  60c14e:	d0 c9       	se_stw  r28,0(r25)
  60c150:	73 94 05 0f 	e_li    r28,42255
  60c154:	44 dc       	se_or   r28,r29
  60c156:	d0 c9       	se_stw  r28,0(r25)
  60c158:	73 8a e2 80 	e_lis   r28,21120
  60c15c:	73 a1 00 00 	e_li    r29,2048
  60c160:	44 dc       	se_or   r28,r29
  60c162:	73 c0 00 00 	e_li    r30,0
  60c166:	73 e0 00 00 	e_li    r31,0
  60c16a:	73 60 00 00 	e_li    r27,0

0060c16e <rfill_1>:
  60c16e:	1b dc 09 00 	e_stmw  r30,0(r28)
  60c172:	1f 9c 00 08 	e_add16i r28,r28,8
  60c176:	1f 7b 00 01 	e_add16i r27,r27,1
  60c17a:	70 7b 9f 00 	e_cmp16i r27,7936
  60c17e:	e2 f8       	se_bne  60c16e <rfill_1>
  60c180:	70 2a e2 80 	e_lis   r1,21120
  60c184:	73 3f 07 fc 	e_li    r25,65532
  60c188:	44 91       	se_or   r1,r25
  60c18a:	73 3e e7 fc 	e_lis   r25,63484
  60c18e:	73 84 e2 88 	e_lis   r28,8840
  60c192:	57 99 04 44 	e_stw   r28,1092(r25)
  60c196:	57 99 04 48 	e_stw   r28,1096(r25)
  60c19a:	73 be e7 fe 	e_lis   r29,63486
  60c19e:	73 d0 e0 00 	e_lis   r30,32768
  60c1a2:	57 dd 00 10 	e_stw   r30,16(r29)
  60c1a6:	73 df e7 ff 	e_lis   r30,65535
  60c1aa:	57 dd 00 14 	e_stw   r30,20(r29)
  60c1ae:	73 c0 e0 00 	e_lis   r30,0
  60c1b2:	57 dd 00 18 	e_stw   r30,24(r29)
  60c1b6:	57 dd 00 1c 	e_stw   r30,28(r29)
  60c1ba:	70 a0 e0 80 	e_lis   r5,128
  60c1be:	70 c2 e1 11 	e_lis   r6,4369
  60c1c2:	70 c4 c2 22 	e_or2i  r6,8738
  60c1c6:	70 e6 e3 33 	e_lis   r7,13107
  60c1ca:	70 e8 c4 44 	e_or2i  r7,17476
  60c1ce:	78 00 00 7d 	e_bl    60c24a <erase_data_flash>
  60c1d2:	70 ca e2 80 	e_lis   r6,21120
  60c1d6:	70 a0 00 80 	e_li    r5,128
  60c1da:	44 56       	se_or   r6,r5

0060c1dc <loop>:
  60c1dc:	70 60 e0 08 	e_lis   r3,8

0060c1e0 <w1>:
  60c1e0:	26 03       	se_subi. r3,1
  60c1e2:	e2 ff       	se_bne  60c1e0 <w1>
  60c1e4:	48 1c       	se_li   r28,1
  60c1e6:	37 99 13 81 	e_stb   r28,4993(r25)
  60c1ea:	48 0c       	se_li   r28,0
  60c1ec:	37 99 13 82 	e_stb   r28,4994(r25)
  60c1f0:	70 60 e0 08 	e_lis   r3,8

0060c1f4 <w2>:
  60c1f4:	26 03       	se_subi. r3,1
  60c1f6:	e2 ff       	se_bne  60c1f4 <w2>
  60c1f8:	50 f9 17 10 	e_lwz   r7,5904(r25)
  60c1fc:	d2 76       	se_stw  r7,8(r6)
  60c1fe:	48 0c       	se_li   r28,0
  60c200:	37 99 13 81 	e_stb   r28,4993(r25)
  60c204:	48 1c       	se_li   r28,1
  60c206:	37 99 13 82 	e_stb   r28,4994(r25)
  60c20a:	50 f9 00 04 	e_lwz   r7,4(r25)
  60c20e:	d0 76       	se_stw  r7,0(r6)
  60c210:	50 f9 00 08 	e_lwz   r7,8(r25)
  60c214:	d1 76       	se_stw  r7,4(r6)
  60c216:	50 f9 04 44 	e_lwz   r7,1092(r25)
  60c21a:	d2 76       	se_stw  r7,8(r6)
  60c21c:	50 f9 17 10 	e_lwz   r7,5904(r25)
  60c220:	d3 76       	se_stw  r7,12(r6)
  60c222:	e8 dd       	se_b    60c1dc <loop>

0060c224 <prog_dw>:
  60c224:	73 e0 00 10 	e_li    r31,16
  60c228:	d0 fd       	se_stw  r31,0(r29)
  60c22a:	d0 65       	se_stw  r6,0(r5)
  60c22c:	d1 75       	se_stw  r7,4(r5)
  60c22e:	73 e0 00 11 	e_li    r31,17
  60c232:	d0 fd       	se_stw  r31,0(r29)

0060c234 <prog_dw_loop>:
  60c234:	c0 fd       	se_lwz  r31,0(r29)
  60c236:	73 e0 cc 00 	e_and2i. r31,1024
  60c23a:	e6 fd       	se_beq  60c234 <prog_dw_loop>
  60c23c:	73 e0 00 10 	e_li    r31,16
  60c240:	d0 fd       	se_stw  r31,0(r29)
  60c242:	73 e0 00 00 	e_li    r31,0
  60c246:	d0 fd       	se_stw  r31,0(r29)
  60c248:	00 04       	se_blr

0060c24a <erase_data_flash>:
  60c24a:	73 e0 00 04 	e_li    r31,4
  60c24e:	d0 fd       	se_stw  r31,0(r29)
  60c250:	73 e0 00 0f 	e_li    r31,15
  60c254:	df fd       	se_stw  r31,60(r29)
  60c256:	73 e0 e0 90 	e_lis   r31,144
  60c25a:	d0 ff       	se_stw  r31,0(r31)
  60c25c:	73 e0 00 05 	e_li    r31,5
  60c260:	d0 fd       	se_stw  r31,0(r29)

0060c262 <prog_edf_loop>:
  60c262:	c0 fd       	se_lwz  r31,0(r29)
  60c264:	73 e0 cc 00 	e_and2i. r31,1024
  60c268:	e6 fd       	se_beq  60c262 <prog_edf_loop>
  60c26a:	73 e0 00 04 	e_li    r31,4
  60c26e:	d0 fd       	se_stw  r31,0(r29)
  60c270:	73 e0 00 00 	e_li    r31,0
  60c274:	d0 fd       	se_stw  r31,0(r29)
  60c276:	00 04       	se_blr

Disassembly of section .PPC.EMB.apuinfo:

00000000 <.PPC.EMB.apuinfo>:
   0:	00 00 00 08 	.long 0x8
   4:	00 00 00 04 	.long 0x4
   8:	00 00 00 02 	.long 0x2
   c:	41 50 55 69 	bdztl   4*cr4+lt,5574 <MCSR_OUTPUT+0x32ec>
  10:	6e 66 6f 00 	xoris   r6,r19,28416
  14:	01 04 00 01 	.long 0x1040001

boot.elf:     file format elf32-powerpc
boot.elf
architecture: powerpc:common, flags 0x00000112:
EXEC_P, HAS_SYMS, D_PAGED
start address 0x00000000

Program Header:
    LOAD off    0x00010000 vaddr 0x52800000 paddr 0x52800000 align 2**16
         filesz 0x00000278 memsz 0x00000278 flags r-x
    LOAD off    0x00010278 vaddr 0x52800278 paddr 0x52800280 align 2**16
         filesz 0x00000000 memsz 0x00000000 flags rw-

Sections:
Idx Name          Size      VMA       LMA       File off  Algn
  0 .text         00000278  52800000  52800000  00010000  2**4
                  CONTENTS, ALLOC, LOAD, READONLY, CODE, VLE
  1 .stacks       00000000  52800278  52800278  00010278  2**0
                  CONTENTS
  2 .data         00000000  52800278  52800278  00010278  2**0
                  CONTENTS, ALLOC, LOAD, DATA
  3 .PPC.EMB.apuinfo 00000018  00000000  00000000  00010278  2**0
                  CONTENTS, READONLY
SYMBOL TABLE:
52800000 l    d  .text	00000000 .text
52800278 l    d  .stacks	00000000 .stacks
52800278 l    d  .data	00000000 .data
00000000 l    d  .PPC.EMB.apuinfo	00000000 .PPC.EMB.apuinfo
00000000 l    df *ABS*	00000000 build/src/boot.o
00000000 l       *ABS*	00000000 r0
00000001 l       *ABS*	00000000 r1
00000001 l       *ABS*	00000000 rsp
00000002 l       *ABS*	00000000 r2
00000003 l       *ABS*	00000000 r3
00000004 l       *ABS*	00000000 r4
00000005 l       *ABS*	00000000 r5
00000006 l       *ABS*	00000000 r6
00000007 l       *ABS*	00000000 r7
00000008 l       *ABS*	00000000 r8
00000009 l       *ABS*	00000000 r9
0000000a l       *ABS*	00000000 r10
0000000b l       *ABS*	00000000 r11
0000000c l       *ABS*	00000000 r12
0000000d l       *ABS*	00000000 r13
0000000e l       *ABS*	00000000 r14
0000000f l       *ABS*	00000000 r15
00000010 l       *ABS*	00000000 r16
00000011 l       *ABS*	00000000 r17
00000012 l       *ABS*	00000000 r18
00000013 l       *ABS*	00000000 r19
00000014 l       *ABS*	00000000 r20
00000015 l       *ABS*	00000000 r21
00000016 l       *ABS*	00000000 r22
00000017 l       *ABS*	00000000 r23
00000018 l       *ABS*	00000000 r24
00000019 l       *ABS*	00000000 r25
0000001a l       *ABS*	00000000 r26
0000001b l       *ABS*	00000000 r27
0000001c l       *ABS*	00000000 r28
0000001d l       *ABS*	00000000 r29
0000001e l       *ABS*	00000000 r30
0000001f l       *ABS*	00000000 r31
0000f7fc l       *ABS*	00000000 SIUL_BASE
00001300 l       *ABS*	00000000 GPDO0
00001304 l       *ABS*	00000000 GPDO1
00001308 l       *ABS*	00000000 GPDO2
0000130c l       *ABS*	00000000 GPDO3
00001310 l       *ABS*	00000000 GPDO4
00001314 l       *ABS*	00000000 GPDO5
00001318 l       *ABS*	00000000 GPDO6
0000131c l       *ABS*	00000000 GPDO7
00001320 l       *ABS*	00000000 GPDO8
00001324 l       *ABS*	00000000 GPDO9
00001328 l       *ABS*	00000000 GPDO10
0000132c l       *ABS*	00000000 GPDO11
00001330 l       *ABS*	00000000 GPDO12
00001334 l       *ABS*	00000000 GPDO13
00001338 l       *ABS*	00000000 GPDO14
0000133c l       *ABS*	00000000 GPDO15
00001340 l       *ABS*	00000000 GPDO16
00001344 l       *ABS*	00000000 GPDO17
00001348 l       *ABS*	00000000 GPDO18
0000134c l       *ABS*	00000000 GPDO19
00001350 l       *ABS*	00000000 GPDO20
00001354 l       *ABS*	00000000 GPDO21
00001358 l       *ABS*	00000000 GPDO22
0000135c l       *ABS*	00000000 GPDO23
00001360 l       *ABS*	00000000 GPDO24
00001364 l       *ABS*	00000000 GPDO25
00001368 l       *ABS*	00000000 GPDO26
0000136c l       *ABS*	00000000 GPDO27
00001370 l       *ABS*	00000000 GPDO28
00001374 l       *ABS*	00000000 GPDO29
00001378 l       *ABS*	00000000 GPDO30
0000137c l       *ABS*	00000000 GPDO31
00001380 l       *ABS*	00000000 GPDO32
00001384 l       *ABS*	00000000 GPDO33
00001388 l       *ABS*	00000000 GPDO34
0000138c l       *ABS*	00000000 GPDO35
00001390 l       *ABS*	00000000 GPDO36
00001394 l       *ABS*	00000000 GPDO37
00001398 l       *ABS*	00000000 GPDO38
0000139c l       *ABS*	00000000 GPDO39
00001500 l       *ABS*	00000000 GPDI0
00001504 l       *ABS*	00000000 GPDI1
00001508 l       *ABS*	00000000 GPDI2
0000150c l       *ABS*	00000000 GPDI3
00001510 l       *ABS*	00000000 GPDI4
00001514 l       *ABS*	00000000 GPDI5
00001518 l       *ABS*	00000000 GPDI6
0000151c l       *ABS*	00000000 GPDI7
00001520 l       *ABS*	00000000 GPDI8
00001524 l       *ABS*	00000000 GPDI9
00001528 l       *ABS*	00000000 GPDI10
0000152c l       *ABS*	00000000 GPDI11
00001530 l       *ABS*	00000000 GPDI12
00001534 l       *ABS*	00000000 GPDI13
00001538 l       *ABS*	00000000 GPDI14
0000153c l       *ABS*	00000000 GPDI15
00001540 l       *ABS*	00000000 GPDI16
00001544 l       *ABS*	00000000 GPDI17
00001548 l       *ABS*	00000000 GPDI18
0000154c l       *ABS*	00000000 GPDI19
00001550 l       *ABS*	00000000 GPDI20
00001554 l       *ABS*	00000000 GPDI21
00001558 l       *ABS*	00000000 GPDI22
0000155c l       *ABS*	00000000 GPDI23
00001560 l       *ABS*	00000000 GPDI24
00001564 l       *ABS*	00000000 GPDI25
00001568 l       *ABS*	00000000 GPDI26
0000156c l       *ABS*	00000000 GPDI27
00001570 l       *ABS*	00000000 GPDI28
00001574 l       *ABS*	00000000 GPDI29
00001578 l       *ABS*	00000000 GPDI30
0000157c l       *ABS*	00000000 GPDI31
00001580 l       *ABS*	00000000 GPDI32
00001584 l       *ABS*	00000000 GPDI33
00001588 l       *ABS*	00000000 GPDI34
0000158c l       *ABS*	00000000 GPDI35
00001590 l       *ABS*	00000000 GPDI36
00001594 l       *ABS*	00000000 GPDI37
00001598 l       *ABS*	00000000 GPDI38
0000159c l       *ABS*	00000000 GPDI39
00001700 l       *ABS*	00000000 PGPDO0
00001704 l       *ABS*	00000000 PGPDO1
00001708 l       *ABS*	00000000 PGPDO2
0000170c l       *ABS*	00000000 PGPDO3
00001710 l       *ABS*	00000000 PGPDO4
00001700 l       *ABS*	00000000 POUT_A
00001702 l       *ABS*	00000000 POUT_B
00001704 l       *ABS*	00000000 POUT_C
00001706 l       *ABS*	00000000 POUT_D
00001708 l       *ABS*	00000000 POUT_E
0000170a l       *ABS*	00000000 POUT_F
0000170c l       *ABS*	00000000 POUT_G
0000170e l       *ABS*	00000000 POUT_H
00001710 l       *ABS*	00000000 POUT_I
00001712 l       *ABS*	00000000 POUT_J
00001740 l       *ABS*	00000000 PGPDI0
00001744 l       *ABS*	00000000 PGPDI1
00001748 l       *ABS*	00000000 PGPDI2
0000174c l       *ABS*	00000000 PGPDI3
00001750 l       *ABS*	00000000 PGPDI4
00001740 l       *ABS*	00000000 PIN_A
00001742 l       *ABS*	00000000 PIN_B
00001744 l       *ABS*	00000000 PIN_C
00001746 l       *ABS*	00000000 PIN_D
00001748 l       *ABS*	00000000 PIN_E
0000174a l       *ABS*	00000000 PIN_F
0000174c l       *ABS*	00000000 PIN_G
0000174e l       *ABS*	00000000 PIN_H
00001750 l       *ABS*	00000000 PIN_I
00001752 l       *ABS*	00000000 PIN_J
00000240 l       *ABS*	00000000 MCSR_A0
00000244 l       *ABS*	00000000 MCSR_A1
00000248 l       *ABS*	00000000 MCSR_A2
0000024c l       *ABS*	00000000 MCSR_A3
00000250 l       *ABS*	00000000 MCSR_A4
00000254 l       *ABS*	00000000 MCSR_A5
00000258 l       *ABS*	00000000 MCSR_A6
0000025c l       *ABS*	00000000 MCSR_A7
00000260 l       *ABS*	00000000 MCSR_A8
00000264 l       *ABS*	00000000 MCSR_A9
00000268 l       *ABS*	00000000 MCSR_A10
0000026c l       *ABS*	00000000 MCSR_A11
00000270 l       *ABS*	00000000 MCSR_A12
00000274 l       *ABS*	00000000 MCSR_A13
00000278 l       *ABS*	00000000 MCSR_A14
0000027c l       *ABS*	00000000 MCSR_A15
00000280 l       *ABS*	00000000 MCSR_B0
00000284 l       *ABS*	00000000 MCSR_B1
00000288 l       *ABS*	00000000 MCSR_B2
0000028c l       *ABS*	00000000 MCSR_B3
00000290 l       *ABS*	00000000 MCSR_B4
00000294 l       *ABS*	00000000 MCSR_B5
00000298 l       *ABS*	00000000 MCSR_B6
0000029c l       *ABS*	00000000 MCSR_B7
000002a0 l       *ABS*	00000000 MCSR_B8
000002a4 l       *ABS*	00000000 MCSR_B9
000002a8 l       *ABS*	00000000 MCSR_B10
000002ac l       *ABS*	00000000 MCSR_B11
000002b0 l       *ABS*	00000000 MCSR_B12
000002b4 l       *ABS*	00000000 MCSR_B13
000002b8 l       *ABS*	00000000 MCSR_B14
000002bc l       *ABS*	00000000 MCSR_B15
000002c0 l       *ABS*	00000000 MCSR_C0
000002c4 l       *ABS*	00000000 MCSR_C1
000002c8 l       *ABS*	00000000 MCSR_C2
000002cc l       *ABS*	00000000 MCSR_C3
000002d0 l       *ABS*	00000000 MCSR_C4
000002d4 l       *ABS*	00000000 MCSR_C5
000002d8 l       *ABS*	00000000 MCSR_C6
000002dc l       *ABS*	00000000 MCSR_C7
000002e0 l       *ABS*	00000000 MCSR_C8
000002e4 l       *ABS*	00000000 MCSR_C9
000002e8 l       *ABS*	00000000 MCSR_C10
000002ec l       *ABS*	00000000 MCSR_C11
000002f0 l       *ABS*	00000000 MCSR_C12
000002f4 l       *ABS*	00000000 MCSR_C13
000002f8 l       *ABS*	00000000 MCSR_C14
000002fc l       *ABS*	00000000 MCSR_C15
00000300 l       *ABS*	00000000 MCSR_D0
00000304 l       *ABS*	00000000 MCSR_D1
00000308 l       *ABS*	00000000 MCSR_D2
0000030c l       *ABS*	00000000 MCSR_D3
00000310 l       *ABS*	00000000 MCSR_D4
00000314 l       *ABS*	00000000 MCSR_D5
00000318 l       *ABS*	00000000 MCSR_D6
0000031c l       *ABS*	00000000 MCSR_D7
00000320 l       *ABS*	00000000 MCSR_D8
00000324 l       *ABS*	00000000 MCSR_D9
00000328 l       *ABS*	00000000 MCSR_D10
0000032c l       *ABS*	00000000 MCSR_D11
00000330 l       *ABS*	00000000 MCSR_D12
00000334 l       *ABS*	00000000 MCSR_D13
00000338 l       *ABS*	00000000 MCSR_D14
0000033c l       *ABS*	00000000 MCSR_D15
00000340 l       *ABS*	00000000 MCSR_E0
00000344 l       *ABS*	00000000 MCSR_E1
00000348 l       *ABS*	00000000 MCSR_E2
0000034c l       *ABS*	00000000 MCSR_E3
00000350 l       *ABS*	00000000 MCSR_E4
00000354 l       *ABS*	00000000 MCSR_E5
00000358 l       *ABS*	00000000 MCSR_E6
0000035c l       *ABS*	00000000 MCSR_E7
00000360 l       *ABS*	00000000 MCSR_E8
00000364 l       *ABS*	00000000 MCSR_E9
00000368 l       *ABS*	00000000 MCSR_E10
0000036c l       *ABS*	00000000 MCSR_E11
00000370 l       *ABS*	00000000 MCSR_E12
00000374 l       *ABS*	00000000 MCSR_E13
00000378 l       *ABS*	00000000 MCSR_E14
0000037c l       *ABS*	00000000 MCSR_E15
00000380 l       *ABS*	00000000 MCSR_F0
00000384 l       *ABS*	00000000 MCSR_F1
00000388 l       *ABS*	00000000 MCSR_F2
0000038c l       *ABS*	00000000 MCSR_F3
00000390 l       *ABS*	00000000 MCSR_F4
00000394 l       *ABS*	00000000 MCSR_F5
00000398 l       *ABS*	00000000 MCSR_F6
0000039c l       *ABS*	00000000 MCSR_F7
000003a0 l       *ABS*	00000000 MCSR_F8
000003a4 l       *ABS*	00000000 MCSR_F9
000003a8 l       *ABS*	00000000 MCSR_F10
000003ac l       *ABS*	00000000 MCSR_F11
000003b0 l       *ABS*	00000000 MCSR_F12
000003b4 l       *ABS*	00000000 MCSR_F13
000003b8 l       *ABS*	00000000 MCSR_F14
000003bc l       *ABS*	00000000 MCSR_F15
000003c0 l       *ABS*	00000000 MCSR_G0
000003c4 l       *ABS*	00000000 MCSR_G1
000003c8 l       *ABS*	00000000 MCSR_G2
000003cc l       *ABS*	00000000 MCSR_G3
000003d0 l       *ABS*	00000000 MCSR_G4
000003d4 l       *ABS*	00000000 MCSR_G5
000003d8 l       *ABS*	00000000 MCSR_G6
000003dc l       *ABS*	00000000 MCSR_G7
000003e0 l       *ABS*	00000000 MCSR_G8
000003e4 l       *ABS*	00000000 MCSR_G9
000003e8 l       *ABS*	00000000 MCSR_G10
000003ec l       *ABS*	00000000 MCSR_G11
000003f0 l       *ABS*	00000000 MCSR_G12
000003f4 l       *ABS*	00000000 MCSR_G13
000003f8 l       *ABS*	00000000 MCSR_G14
000003fc l       *ABS*	00000000 MCSR_G15
00000400 l       *ABS*	00000000 MCSR_H0
00000404 l       *ABS*	00000000 MCSR_H1
00000408 l       *ABS*	00000000 MCSR_H2
0000040c l       *ABS*	00000000 MCSR_H3
00000410 l       *ABS*	00000000 MCSR_H4
00000414 l       *ABS*	00000000 MCSR_H5
00000418 l       *ABS*	00000000 MCSR_H6
0000041c l       *ABS*	00000000 MCSR_H7
00000420 l       *ABS*	00000000 MCSR_H8
00000424 l       *ABS*	00000000 MCSR_H9
00000428 l       *ABS*	00000000 MCSR_H10
0000042c l       *ABS*	00000000 MCSR_H11
00000430 l       *ABS*	00000000 MCSR_H12
00000434 l       *ABS*	00000000 MCSR_H13
00000438 l       *ABS*	00000000 MCSR_H14
0000043c l       *ABS*	00000000 MCSR_H15
00000440 l       *ABS*	00000000 MCSR_I0
00000444 l       *ABS*	00000000 MCSR_I1
00000448 l       *ABS*	00000000 MCSR_I2
0000044c l       *ABS*	00000000 MCSR_I3
00000450 l       *ABS*	00000000 MCSR_I4
00000454 l       *ABS*	00000000 MCSR_I5
00000458 l       *ABS*	00000000 MCSR_I6
0000045c l       *ABS*	00000000 MCSR_I7
00000460 l       *ABS*	00000000 MCSR_I8
00000464 l       *ABS*	00000000 MCSR_I9
00000468 l       *ABS*	00000000 MCSR_I10
0000046c l       *ABS*	00000000 MCSR_I11
00000470 l       *ABS*	00000000 MCSR_I12
00000474 l       *ABS*	00000000 MCSR_I13
00000478 l       *ABS*	00000000 MCSR_I14
0000047c l       *ABS*	00000000 MCSR_I15
00000480 l       *ABS*	00000000 MCSR_J0
00000484 l       *ABS*	00000000 MCSR_J1
00000488 l       *ABS*	00000000 MCSR_J2
0000048c l       *ABS*	00000000 MCSR_J3
00000490 l       *ABS*	00000000 MCSR_J4
00000494 l       *ABS*	00000000 MCSR_J5
00000498 l       *ABS*	00000000 MCSR_J6
0000049c l       *ABS*	00000000 MCSR_J7
000004a0 l       *ABS*	00000000 MCSR_J8
000004a4 l       *ABS*	00000000 MCSR_J9
000004a8 l       *ABS*	00000000 MCSR_J10
000004ac l       *ABS*	00000000 MCSR_J11
000004b0 l       *ABS*	00000000 MCSR_J12
000004b4 l       *ABS*	00000000 MCSR_J13
000004b8 l       *ABS*	00000000 MCSR_J14
000004bc l       *ABS*	00000000 MCSR_J15
00000003 l       *ABS*	00000000 MCSR_UNCONNECT
00000088 l       *ABS*	00000000 MCSR_INPUT
00000089 l       *ABS*	00000000 MCSR_INPUT_PU
0000008a l       *ABS*	00000000 MCSR_INPUT_PD
00002288 l       *ABS*	00000000 MCSR_OUTPUT
00002188 l       *ABS*	00000000 MCSR_OUTPUT_OD
0000f405 l       *ABS*	00000000 SWT_BASE
00008000 l       *ABS*	00000000 SWT_CR
00008004 l       *ABS*	00000000 SWT_IR
00008008 l       *ABS*	00000000 SWT_TO
0000800c l       *ABS*	00000000 SWT_WN
00008010 l       *ABS*	00000000 SWT_SR
00008014 l       *ABS*	00000000 SWT_CO
00008018 l       *ABS*	00000000 SWT_SK
0000f7fb l       *ABS*	00000000 ME_BASE
00008000 l       *ABS*	00000000 ME_GS
00008004 l       *ABS*	00000000 ME_MCTL
00008008 l       *ABS*	00000000 ME_ME
0000800c l       *ABS*	00000000 ME_MIS
00008010 l       *ABS*	00000000 ME_IM
00008014 l       *ABS*	00000000 ME_IMTS
00008018 l       *ABS*	00000000 ME_DMTS
00008080 l       *ABS*	00000000 ME_RUN_PC0
00008084 l       *ABS*	00000000 ME_RUN_PC1
00008088 l       *ABS*	00000000 ME_RUN_PC2
0000808c l       *ABS*	00000000 ME_RUN_PC3
00008090 l       *ABS*	00000000 ME_RUN_PC4
00008094 l       *ABS*	00000000 ME_RUN_PC5
00008098 l       *ABS*	00000000 ME_RUN_PC6
0000809c l       *ABS*	00000000 ME_RUN_PC7
0000802c l       *ABS*	00000000 ME_DRUN_MC
0000c3fe l       *ABS*	00000000 FMPLL_BASE
000000a0 l       *ABS*	00000000 FMPLL0_CR
000000c0 l       *ABS*	00000000 FMPLL1_CR
0000ffe4 l       *ABS*	00000000 LINFLEX0_BASE
00000000 l       *ABS*	00000000 LINFLEX0_LINCR1
00000010 l       *ABS*	00000000 LINFLEX0_UARTCR
00000014 l       *ABS*	00000000 LINFLEX0_UARTSR
00000028 l       *ABS*	00000000 LINFLEX0_LINBRR
0000002c l       *ABS*	00000000 LINFLEX0_LINBFRR
00000038 l       *ABS*	00000000 LINFLEX0_BRDL
0000003c l       *ABS*	00000000 LINFLEX0_BRDM
0000f7fe l       *ABS*	00000000 FLASH_BASE
00000000 l       *ABS*	00000000 FLASH_MCR
00000004 l       *ABS*	00000000 FLASH_MCRA
00000008 l       *ABS*	00000000 FLASH_MCRE
00000010 l       *ABS*	00000000 FLASH_LOCK0
00000014 l       *ABS*	00000000 FLASH_LOCK1
00000018 l       *ABS*	00000000 FLASH_LOCK2
0000001c l       *ABS*	00000000 FLASH_LOCK3
00000028 l       *ABS*	00000000 FLASH_LOCK0A
0000002c l       *ABS*	00000000 FLASH_LOCK1A
00000038 l       *ABS*	00000000 FLASH_SEL0
0000003c l       *ABS*	00000000 FLASH_SEL1
00000040 l       *ABS*	00000000 FLASH_SEL2
00000044 l       *ABS*	00000000 FLASH_SEL3
0000004c l       *ABS*	00000000 FLASH_PAR
00000050 l       *ABS*	00000000 FLASH_ADR
00000054 l       *ABS*	00000000 FLASH_UT0
00000058 l       *ABS*	00000000 FLASH_UM0
0000005c l       *ABS*	00000000 FLASH_UM1
00000060 l       *ABS*	00000000 FLASH_UM2
00000064 l       *ABS*	00000000 FLASH_UM3
00000068 l       *ABS*	00000000 FLASH_UM4
0000006c l       *ABS*	00000000 FLASH_UM5
00000070 l       *ABS*	00000000 FLASH_UM6
00000074 l       *ABS*	00000000 FLASH_UM7
00000078 l       *ABS*	00000000 FLASH_UM8
0000007c l       *ABS*	00000000 FLASH_UM9
00000080 l       *ABS*	00000000 FLASH_OPP0
00000084 l       *ABS*	00000000 FLASH_OPP1
00000088 l       *ABS*	00000000 FLASH_OPP2
0000008c l       *ABS*	00000000 FLASH_OPP3
00000090 l       *ABS*	00000000 FLASH_TMD
00000094 l       *ABS*	00000000 FLASH_ALTSEL0
00000098 l       *ABS*	00000000 FLASH_ALTSEL1
00000100 l       *ABS*	00000000 FLASH_ELOCK0
00000104 l       *ABS*	00000000 FLASH_ELOCK1
00000108 l       *ABS*	00000000 FLASH_ELOCK2
0000010c l       *ABS*	00000000 FLASH_ELOCK3
00000110 l       *ABS*	00000000 FLASH_PLOCK0
00000114 l       *ABS*	00000000 FLASH_PLOCK1
00000118 l       *ABS*	00000000 FLASH_PLOCK2
0000011c l       *ABS*	00000000 FLASH_PLOCK3
fff48000 l       *ABS*	00000000 INTC_BASE
fff48010 l       *ABS*	00000000 INTC_IACKR
fff48018 l       *ABS*	00000000 INTC_EOIR
00000800 l       *ABS*	00000000 block_size
00000001 l       *ABS*	00000000 DEBUG_LED
52800100 l       .text	00000000 main_start
5280016e l       .text	00000000 rfill_1
5280024a l       .text	00000000 erase_data_flash
528001dc l       .text	00000000 loop
528001e0 l       .text	00000000 w1
528001f4 l       .text	00000000 w2
52800224 l       .text	00000000 prog_dw
52800234 l       .text	00000000 prog_dw_loop
52800262 l       .text	00000000 prog_edf_loop
52800278 g       .data	00000000 __data_start__
52808278 g       .data	00000000 __sdata_start__
52808280 g       .text	00000000 __sdata2_start__
00000000 g       *ABS*	00000000 _reset_address
52800278 g       .data	00000000 __heap_base__
52800280 g       .text	00000000 __romdata_start__
52800278 g       .stacks	00000000 __main_thread_stack_end__
52810000 g       *ABS*	00000000 __heap_end__
52800278 g       .data	00000000 __bss_start__
ffffffff g       *ABS*	00000000 __flash_size__
52800278 g       .data	00000000 __data_end__
52800278 g       .data	00000000 __bss_end__
52800000 g       .text	00000000 _start
00000000 g       *ABS*	00000000 __irq_stack_size__
ffffffff g       *ABS*	00000000 __flash_end__
00010000 g       *ABS*	00000000 __ram_size__
52800000 g       .text	00000000 __ram_start__
52800278 g       .stacks	00000000 __process_stack_base__
52800278 g       .stacks	00000000 __irq_stack_end__
52810000 g       *ABS*	00000000 __ram_end__
52800278 g       .stacks	00000000 __irq_stack_base__
52800278 g       .stacks	00000000 __main_thread_stack_base__
00000000 g       .text	00000000 __flash_start__
52800278 g       .stacks	00000000 __process_stack_end__
00000000 g       *ABS*	00000000 __process_stack_size__



Disassembly of section .text:

52800000 <__ram_start__>:
	...

52800100 <main_start>:
52800100:	73 1e e4 05 	e_lis   r24,62469
52800104:	73 30 00 10 	e_li    r25,32784
52800108:	44 89       	se_or   r25,r24
5280010a:	73 98 05 20 	e_li    r28,50464
5280010e:	57 99 00 00 	e_stw   r28,0(r25)
52800112:	73 9b 01 28 	e_li    r28,55592
52800116:	57 99 00 00 	e_stw   r28,0(r25)
5280011a:	73 30 00 00 	e_li    r25,32768
5280011e:	44 89       	se_or   r25,r24
52800120:	53 99 00 00 	e_lwz   r28,0(r25)
52800124:	77 9c 00 3d 	e_rlwinm r28,r28,0,0,30
52800128:	57 99 00 00 	e_stw   r28,0(r25)
5280012c:	73 1e e7 fb 	e_lis   r24,63483
52800130:	73 30 00 80 	e_li    r25,32896
52800134:	44 89       	se_or   r25,r24
52800136:	73 80 00 fe 	e_li    r28,254
5280013a:	57 99 00 00 	e_stw   r28,0(r25)
5280013e:	73 30 00 04 	e_li    r25,32772
52800142:	44 89       	se_or   r25,r24
52800144:	73 a6 e0 00 	e_lis   r29,12288
52800148:	73 8b 02 f0 	e_li    r28,23280
5280014c:	44 dc       	se_or   r28,r29
5280014e:	d0 c9       	se_stw  r28,0(r25)
52800150:	73 94 05 0f 	e_li    r28,42255
52800154:	44 dc       	se_or   r28,r29
52800156:	d0 c9       	se_stw  r28,0(r25)
52800158:	73 8a e2 80 	e_lis   r28,21120
5280015c:	73 a1 00 00 	e_li    r29,2048
52800160:	44 dc       	se_or   r28,r29
52800162:	73 c0 00 00 	e_li    r30,0
52800166:	73 e0 00 00 	e_li    r31,0
5280016a:	73 60 00 00 	e_li    r27,0

5280016e <rfill_1>:
5280016e:	1b dc 09 00 	e_stmw  r30,0(r28)
52800172:	1f 9c 00 08 	e_add16i r28,r28,8
52800176:	1f 7b 00 01 	e_add16i r27,r27,1
5280017a:	70 7b 9f 00 	e_cmp16i r27,7936
5280017e:	e2 f8       	se_bne  5280016e <rfill_1>
52800180:	70 2a e2 80 	e_lis   r1,21120
52800184:	73 3f 07 fc 	e_li    r25,65532
52800188:	44 91       	se_or   r1,r25
5280018a:	73 3e e7 fc 	e_lis   r25,63484
5280018e:	73 84 e2 88 	e_lis   r28,8840
52800192:	57 99 04 44 	e_stw   r28,1092(r25)
52800196:	57 99 04 48 	e_stw   r28,1096(r25)
5280019a:	73 be e7 fe 	e_lis   r29,63486
5280019e:	73 d0 e0 00 	e_lis   r30,32768
528001a2:	57 dd 00 10 	e_stw   r30,16(r29)
528001a6:	73 df e7 ff 	e_lis   r30,65535
528001aa:	57 dd 00 14 	e_stw   r30,20(r29)
528001ae:	73 c0 e0 00 	e_lis   r30,0
528001b2:	57 dd 00 18 	e_stw   r30,24(r29)
528001b6:	57 dd 00 1c 	e_stw   r30,28(r29)
528001ba:	70 a0 e0 80 	e_lis   r5,128
528001be:	70 c2 e1 11 	e_lis   r6,4369
528001c2:	70 c4 c2 22 	e_or2i  r6,8738
528001c6:	70 e6 e3 33 	e_lis   r7,13107
528001ca:	70 e8 c4 44 	e_or2i  r7,17476
528001ce:	78 00 00 7d 	e_bl    5280024a <erase_data_flash>
528001d2:	70 ca e2 80 	e_lis   r6,21120
528001d6:	70 a0 00 80 	e_li    r5,128
528001da:	44 56       	se_or   r6,r5

528001dc <loop>:
528001dc:	70 60 e0 08 	e_lis   r3,8

528001e0 <w1>:
528001e0:	26 03       	se_subi. r3,1
528001e2:	e2 ff       	se_bne  528001e0 <w1>
528001e4:	48 1c       	se_li   r28,1
528001e6:	37 99 13 81 	e_stb   r28,4993(r25)
528001ea:	48 0c       	se_li   r28,0
528001ec:	37 99 13 82 	e_stb   r28,4994(r25)
528001f0:	70 60 e0 08 	e_lis   r3,8

528001f4 <w2>:
528001f4:	26 03       	se_subi. r3,1
528001f6:	e2 ff       	se_bne  528001f4 <w2>
528001f8:	50 f9 17 10 	e_lwz   r7,5904(r25)
528001fc:	d2 76       	se_stw  r7,8(r6)
528001fe:	48 0c       	se_li   r28,0
52800200:	37 99 13 81 	e_stb   r28,4993(r25)
52800204:	48 1c       	se_li   r28,1
52800206:	37 99 13 82 	e_stb   r28,4994(r25)
5280020a:	50 f9 00 04 	e_lwz   r7,4(r25)
5280020e:	d0 76       	se_stw  r7,0(r6)
52800210:	50 f9 00 08 	e_lwz   r7,8(r25)
52800214:	d1 76       	se_stw  r7,4(r6)
52800216:	50 f9 04 44 	e_lwz   r7,1092(r25)
5280021a:	d2 76       	se_stw  r7,8(r6)
5280021c:	50 f9 17 10 	e_lwz   r7,5904(r25)
52800220:	d3 76       	se_stw  r7,12(r6)
52800222:	e8 dd       	se_b    528001dc <loop>

52800224 <prog_dw>:
52800224:	73 e0 00 10 	e_li    r31,16
52800228:	d0 fd       	se_stw  r31,0(r29)
5280022a:	d0 65       	se_stw  r6,0(r5)
5280022c:	d1 75       	se_stw  r7,4(r5)
5280022e:	73 e0 00 11 	e_li    r31,17
52800232:	d0 fd       	se_stw  r31,0(r29)

52800234 <prog_dw_loop>:
52800234:	c0 fd       	se_lwz  r31,0(r29)
52800236:	73 e0 cc 00 	e_and2i. r31,1024
5280023a:	e6 fd       	se_beq  52800234 <prog_dw_loop>
5280023c:	73 e0 00 10 	e_li    r31,16
52800240:	d0 fd       	se_stw  r31,0(r29)
52800242:	73 e0 00 00 	e_li    r31,0
52800246:	d0 fd       	se_stw  r31,0(r29)
52800248:	00 04       	se_blr

5280024a <erase_data_flash>:
5280024a:	73 e0 00 04 	e_li    r31,4
5280024e:	d0 fd       	se_stw  r31,0(r29)
52800250:	73 e0 00 0f 	e_li    r31,15
52800254:	df fd       	se_stw  r31,60(r29)
52800256:	73 e0 e0 90 	e_lis   r31,144
5280025a:	d0 ff       	se_stw  r31,0(r31)
5280025c:	73 e0 00 05 	e_li    r31,5
52800260:	d0 fd       	se_stw  r31,0(r29)

52800262 <prog_edf_loop>:
52800262:	c0 fd       	se_lwz  r31,0(r29)
52800264:	73 e0 cc 00 	e_and2i. r31,1024
52800268:	e6 fd       	se_beq  52800262 <prog_edf_loop>
5280026a:	73 e0 00 04 	e_li    r31,4
5280026e:	d0 fd       	se_stw  r31,0(r29)
52800270:	73 e0 00 00 	e_li    r31,0
52800274:	d0 fd       	se_stw  r31,0(r29)
52800276:	00 04       	se_blr

Disassembly of section .PPC.EMB.apuinfo:

00000000 <.PPC.EMB.apuinfo>:
   0:	00 00 00 08 	.long 0x8
   4:	00 00 00 04 	.long 0x4
   8:	00 00 00 02 	.long 0x2
   c:	41 50 55 69 	bdztl   4*cr4+lt,5574 <MCSR_OUTPUT+0x32ec>
  10:	6e 66 6f 00 	xoris   r6,r19,28416
  14:	01 04 00 01 	.long 0x1040001

boot.elf:     file format elf32-powerpc
boot.elf
architecture: powerpc:common, flags 0x00000112:
EXEC_P, HAS_SYMS, D_PAGED
start address 0x00000000

Program Header:
    LOAD off    0x00010000 vaddr 0x52800000 paddr 0x52800000 align 2**16
         filesz 0x00000278 memsz 0x00000278 flags r-x
    LOAD off    0x00010278 vaddr 0x52800278 paddr 0x52800280 align 2**16
         filesz 0x00000000 memsz 0x00000000 flags rw-

Sections:
Idx Name          Size      VMA       LMA       File off  Algn
  0 .text         00000278  52800000  52800000  00010000  2**4
                  CONTENTS, ALLOC, LOAD, READONLY, CODE, VLE
  1 .stacks       00000000  52800278  52800278  00010278  2**0
                  CONTENTS
  2 .data         00000000  52800278  52800278  00010278  2**0
                  CONTENTS, ALLOC, LOAD, DATA
  3 .PPC.EMB.apuinfo 00000018  00000000  00000000  00010278  2**0
                  CONTENTS, READONLY
SYMBOL TABLE:
52800000 l    d  .text	00000000 .text
52800278 l    d  .stacks	00000000 .stacks
52800278 l    d  .data	00000000 .data
00000000 l    d  .PPC.EMB.apuinfo	00000000 .PPC.EMB.apuinfo
00000000 l    df *ABS*	00000000 build/src/boot.o
00000000 l       *ABS*	00000000 r0
00000001 l       *ABS*	00000000 r1
00000001 l       *ABS*	00000000 rsp
00000002 l       *ABS*	00000000 r2
00000003 l       *ABS*	00000000 r3
00000004 l       *ABS*	00000000 r4
00000005 l       *ABS*	00000000 r5
00000006 l       *ABS*	00000000 r6
00000007 l       *ABS*	00000000 r7
00000008 l       *ABS*	00000000 r8
00000009 l       *ABS*	00000000 r9
0000000a l       *ABS*	00000000 r10
0000000b l       *ABS*	00000000 r11
0000000c l       *ABS*	00000000 r12
0000000d l       *ABS*	00000000 r13
0000000e l       *ABS*	00000000 r14
0000000f l       *ABS*	00000000 r15
00000010 l       *ABS*	00000000 r16
00000011 l       *ABS*	00000000 r17
00000012 l       *ABS*	00000000 r18
00000013 l       *ABS*	00000000 r19
00000014 l       *ABS*	00000000 r20
00000015 l       *ABS*	00000000 r21
00000016 l       *ABS*	00000000 r22
00000017 l       *ABS*	00000000 r23
00000018 l       *ABS*	00000000 r24
00000019 l       *ABS*	00000000 r25
0000001a l       *ABS*	00000000 r26
0000001b l       *ABS*	00000000 r27
0000001c l       *ABS*	00000000 r28
0000001d l       *ABS*	00000000 r29
0000001e l       *ABS*	00000000 r30
0000001f l       *ABS*	00000000 r31
0000f7fc l       *ABS*	00000000 SIUL_BASE
00001300 l       *ABS*	00000000 GPDO0
00001304 l       *ABS*	00000000 GPDO1
00001308 l       *ABS*	00000000 GPDO2
0000130c l       *ABS*	00000000 GPDO3
00001310 l       *ABS*	00000000 GPDO4
00001314 l       *ABS*	00000000 GPDO5
00001318 l       *ABS*	00000000 GPDO6
0000131c l       *ABS*	00000000 GPDO7
00001320 l       *ABS*	00000000 GPDO8
00001324 l       *ABS*	00000000 GPDO9
00001328 l       *ABS*	00000000 GPDO10
0000132c l       *ABS*	00000000 GPDO11
00001330 l       *ABS*	00000000 GPDO12
00001334 l       *ABS*	00000000 GPDO13
00001338 l       *ABS*	00000000 GPDO14
0000133c l       *ABS*	00000000 GPDO15
00001340 l       *ABS*	00000000 GPDO16
00001344 l       *ABS*	00000000 GPDO17
00001348 l       *ABS*	00000000 GPDO18
0000134c l       *ABS*	00000000 GPDO19
00001350 l       *ABS*	00000000 GPDO20
00001354 l       *ABS*	00000000 GPDO21
00001358 l       *ABS*	00000000 GPDO22
0000135c l       *ABS*	00000000 GPDO23
00001360 l       *ABS*	00000000 GPDO24
00001364 l       *ABS*	00000000 GPDO25
00001368 l       *ABS*	00000000 GPDO26
0000136c l       *ABS*	00000000 GPDO27
00001370 l       *ABS*	00000000 GPDO28
00001374 l       *ABS*	00000000 GPDO29
00001378 l       *ABS*	00000000 GPDO30
0000137c l       *ABS*	00000000 GPDO31
00001380 l       *ABS*	00000000 GPDO32
00001384 l       *ABS*	00000000 GPDO33
00001388 l       *ABS*	00000000 GPDO34
0000138c l       *ABS*	00000000 GPDO35
00001390 l       *ABS*	00000000 GPDO36
00001394 l       *ABS*	00000000 GPDO37
00001398 l       *ABS*	00000000 GPDO38
0000139c l       *ABS*	00000000 GPDO39
00001500 l       *ABS*	00000000 GPDI0
00001504 l       *ABS*	00000000 GPDI1
00001508 l       *ABS*	00000000 GPDI2
0000150c l       *ABS*	00000000 GPDI3
00001510 l       *ABS*	00000000 GPDI4
00001514 l       *ABS*	00000000 GPDI5
00001518 l       *ABS*	00000000 GPDI6
0000151c l       *ABS*	00000000 GPDI7
00001520 l       *ABS*	00000000 GPDI8
00001524 l       *ABS*	00000000 GPDI9
00001528 l       *ABS*	00000000 GPDI10
0000152c l       *ABS*	00000000 GPDI11
00001530 l       *ABS*	00000000 GPDI12
00001534 l       *ABS*	00000000 GPDI13
00001538 l       *ABS*	00000000 GPDI14
0000153c l       *ABS*	00000000 GPDI15
00001540 l       *ABS*	00000000 GPDI16
00001544 l       *ABS*	00000000 GPDI17
00001548 l       *ABS*	00000000 GPDI18
0000154c l       *ABS*	00000000 GPDI19
00001550 l       *ABS*	00000000 GPDI20
00001554 l       *ABS*	00000000 GPDI21
00001558 l       *ABS*	00000000 GPDI22
0000155c l       *ABS*	00000000 GPDI23
00001560 l       *ABS*	00000000 GPDI24
00001564 l       *ABS*	00000000 GPDI25
00001568 l       *ABS*	00000000 GPDI26
0000156c l       *ABS*	00000000 GPDI27
00001570 l       *ABS*	00000000 GPDI28
00001574 l       *ABS*	00000000 GPDI29
00001578 l       *ABS*	00000000 GPDI30
0000157c l       *ABS*	00000000 GPDI31
00001580 l       *ABS*	00000000 GPDI32
00001584 l       *ABS*	00000000 GPDI33
00001588 l       *ABS*	00000000 GPDI34
0000158c l       *ABS*	00000000 GPDI35
00001590 l       *ABS*	00000000 GPDI36
00001594 l       *ABS*	00000000 GPDI37
00001598 l       *ABS*	00000000 GPDI38
0000159c l       *ABS*	00000000 GPDI39
00001700 l       *ABS*	00000000 PGPDO0
00001704 l       *ABS*	00000000 PGPDO1
00001708 l       *ABS*	00000000 PGPDO2
0000170c l       *ABS*	00000000 PGPDO3
00001710 l       *ABS*	00000000 PGPDO4
00001700 l       *ABS*	00000000 POUT_A
00001702 l       *ABS*	00000000 POUT_B
00001704 l       *ABS*	00000000 POUT_C
00001706 l       *ABS*	00000000 POUT_D
00001708 l       *ABS*	00000000 POUT_E
0000170a l       *ABS*	00000000 POUT_F
0000170c l       *ABS*	00000000 POUT_G
0000170e l       *ABS*	00000000 POUT_H
00001710 l       *ABS*	00000000 POUT_I
