
rl78-dump-dflash.elf:     file format elf32-rl78
rl78-dump-dflash.elf
architecture: rl78, flags 0x00000112:
EXEC_P, HAS_SYMS, D_PAGED
start address 0x00000000

Program Header:
    LOAD off    0x00001000 vaddr 0x00000000 paddr 0x00000000 align 2**12
         filesz 0x000006ae memsz 0x000006ae flags r-x
    LOAD off    0x00001f00 vaddr 0x000fdf00 paddr 0x000fdf00 align 2**12
         filesz 0x00000000 memsz 0x0000000e flags rw-
private flags = 0x0:

Sections:
Idx Name          Size      VMA       LMA       File off  Algn
  0 .text         000006ae  00000000  00000000  00001000  2**8
                  CONTENTS, ALLOC, LOAD, READONLY, CODE
  1 .plt          00000000  000006ae  000006ae  000016ae  2**1
                  CONTENTS, ALLOC, LOAD, READONLY, CODE
  2 .bss          0000000e  000fdf00  000fdf00  00001f00  2**1
                  ALLOC
SYMBOL TABLE:
00000000 l    d  .text	00000000 .text
000006ae l    d  .plt	00000000 .plt
000fdf00 l    d  .bss	00000000 .bss
00000000 l    df *ABS*	00000000 vectors.o
000fff00 l       *ABS*	00000000 P0
000fff01 l       *ABS*	00000000 P1
000fff03 l       *ABS*	00000000 P3
000fff04 l       *ABS*	00000000 P4
000fff06 l       *ABS*	00000000 P6
000fff07 l       *ABS*	00000000 P7
000fff08 l       *ABS*	00000000 P8
000fff09 l       *ABS*	00000000 P9
000fff0c l       *ABS*	00000000 P12
000fff0d l       *ABS*	00000000 P13
000fff0e l       *ABS*	00000000 P14
000fff10 l       *ABS*	00000000 SDR00
000fff10 l       *ABS*	00000000 SDR00L
000fff12 l       *ABS*	00000000 SDR01
000fff12 l       *ABS*	00000000 SDR01L
000fff18 l       *ABS*	00000000 TDR00
000fff1a l       *ABS*	00000000 TDR01
000fff1a l       *ABS*	00000000 TDR01L
000fff1b l       *ABS*	00000000 TDR01H
000fff1e l       *ABS*	00000000 ADCR
000fff1f l       *ABS*	00000000 ADCRH
000fff20 l       *ABS*	00000000 PM0
000fff21 l       *ABS*	00000000 PM1
000fff23 l       *ABS*	00000000 PM3
000fff24 l       *ABS*	00000000 PM4
000fff26 l       *ABS*	00000000 PM6
000fff27 l       *ABS*	00000000 PM7
000fff28 l       *ABS*	00000000 PM8
000fff29 l       *ABS*	00000000 PM9
000fff2c l       *ABS*	00000000 PM12
000fff2e l       *ABS*	00000000 PM14
000fff30 l       *ABS*	00000000 ADM0
00000000 l       *ABS*	00000000 ADM0_ADCE
00000007 l       *ABS*	00000000 ADM0_ADCS
000fff31 l       *ABS*	00000000 ADS
000fff32 l       *ABS*	00000000 ADM1
000fff37 l       *ABS*	00000000 KRM
000fff38 l       *ABS*	00000000 EGP0
000fff39 l       *ABS*	00000000 EGN0
000fff3a l       *ABS*	00000000 EGP1
000fff3b l       *ABS*	00000000 EGN1
000fff48 l       *ABS*	00000000 SDR10
000fff48 l       *ABS*	00000000 SDR10L
000fff4a l       *ABS*	00000000 SDR11
000fff4a l       *ABS*	00000000 SDR11L
000fff50 l       *ABS*	00000000 IICA0
000fff51 l       *ABS*	00000000 IICS0
00000000 l       *ABS*	00000000 IICS0_SPD0
00000001 l       *ABS*	00000000 IICS0_STD0
00000002 l       *ABS*	00000000 IICS0_ACKD0
00000003 l       *ABS*	00000000 IICS0_TRC0
00000004 l       *ABS*	00000000 IICS0_COI0
00000005 l       *ABS*	00000000 IICS0_EXC0
00000006 l       *ABS*	00000000 IICS0_ALD0
00000007 l       *ABS*	00000000 IICS0_MSTS0
000fff52 l       *ABS*	00000000 IICF0
00000000 l       *ABS*	00000000 IICF0_IICRSV0
00000001 l       *ABS*	00000000 IICF0_STCEN0
00000006 l       *ABS*	00000000 IICF0_IICBSY0
00000007 l       *ABS*	00000000 IICF0_STCF0
000fff54 l       *ABS*	00000000 SUBCUDW
000fff58 l       *ABS*	00000000 TRDGRC0
000fff5a l       *ABS*	00000000 TRDGRD0
000fff5c l       *ABS*	00000000 TRDGRC1
000fff5e l       *ABS*	00000000 TRDGRD1
000fff64 l       *ABS*	00000000 TDR02
000fff66 l       *ABS*	00000000 TDR03
000fff66 l       *ABS*	00000000 TDR03L
000fff67 l       *ABS*	00000000 TDR03H
000fff68 l       *ABS*	00000000 TDR04
000fff6a l       *ABS*	00000000 TDR05
000fff6c l       *ABS*	00000000 TDR06
000fff6e l       *ABS*	00000000 TDR07
000fff70 l       *ABS*	00000000 TDR10
000fff72 l       *ABS*	00000000 TDR11
000fff72 l       *ABS*	00000000 TDR11L
000fff73 l       *ABS*	00000000 TDR11H
000fff74 l       *ABS*	00000000 TDR12
000fff76 l       *ABS*	00000000 TDR13
000fff76 l       *ABS*	00000000 TDR13L
000fff77 l       *ABS*	00000000 TDR13H
000fff80 l       *ABS*	00000000 FLPMC
000fff81 l       *ABS*	00000000 FLARS
000fff82 l       *ABS*	00000000 FLAPL
000fff84 l       *ABS*	00000000 FLAPH
000fff85 l       *ABS*	00000000 FSSQ
00000006 l       *ABS*	00000000 FSSQ_FSSTP
00000007 l       *ABS*	00000000 FSSQ_SQST
000fff86 l       *ABS*	00000000 FLSEDL
000fff88 l       *ABS*	00000000 FLSEDH
000fff89 l       *ABS*	00000000 FLRST
000fff8a l       *ABS*	00000000 FSASTL
000fff8b l       *ABS*	00000000 FSASTH
00000006 l       *ABS*	00000000 FSASTH_SQEND
00000007 l       *ABS*	00000000 FSASTH_ESQEND
000fff8c l       *ABS*	00000000 FLWL
000fff8e l       *ABS*	00000000 FLWH
000fff90 l       *ABS*	00000000 ITMC
000fff92 l       *ABS*	00000000 SEC
000fff93 l       *ABS*	00000000 MIN
000fff94 l       *ABS*	00000000 HOUR
000fff95 l       *ABS*	00000000 WEEK
000fff96 l       *ABS*	00000000 DAY
000fff97 l       *ABS*	00000000 MONTH
000fff98 l       *ABS*	00000000 YEAR
000fff99 l       *ABS*	00000000 SUBCUD
000fff9a l       *ABS*	00000000 ALARMWM
000fff9b l       *ABS*	00000000 ALARMWH
000fff9c l       *ABS*	00000000 ALARMWW
000fff9d l       *ABS*	00000000 RTCC0
00000005 l       *ABS*	00000000 RTCC0_RCLOE1
00000007 l       *ABS*	00000000 RTCC0_RTCE
000fff9e l       *ABS*	00000000 RTCC1
00000000 l       *ABS*	00000000 RTCC1_RWAIT
00000001 l       *ABS*	00000000 RTCC1_RWST
00000003 l       *ABS*	00000000 RTCC1_RIFG
00000004 l       *ABS*	00000000 RTCC1_WAFG
00000006 l       *ABS*	00000000 RTCC1_WALIE
00000007 l       *ABS*	00000000 RTCC1_WALE
000fffa0 l       *ABS*	00000000 CMC
000fffa1 l       *ABS*	00000000 CSC
00000000 l       *ABS*	00000000 CSC_HIOSTOP
00000006 l       *ABS*	00000000 CSC_XTSTOP
00000007 l       *ABS*	00000000 CSC_MSTOP
000fffa2 l       *ABS*	00000000 OSTC
000fffa3 l       *ABS*	00000000 OSTS
000fffa4 l       *ABS*	00000000 CKC
00000003 l       *ABS*	00000000 CKC_SDIV
00000004 l       *ABS*	00000000 CKC_MCM0
00000005 l       *ABS*	00000000 CKC_MCS
00000006 l       *ABS*	00000000 CKC_CSS
00000007 l       *ABS*	00000000 CKC_CLS
000fffa5 l       *ABS*	00000000 CKS0
00000007 l       *ABS*	00000000 CKS0_PCLOE0
000fffa6 l       *ABS*	00000000 CKS1
00000007 l       *ABS*	00000000 CKS1_PCLOE1
000fffa8 l       *ABS*	00000000 RESF
000fffa9 l       *ABS*	00000000 LVIM
00000000 l       *ABS*	00000000 LVIM_LVIF
00000001 l       *ABS*	00000000 LVIM_LVIOMSK
00000007 l       *ABS*	00000000 LVIM_LVISEN
000fffaa l       *ABS*	00000000 LVIS
00000000 l       *ABS*	00000000 LVIS_LVILV
00000007 l       *ABS*	00000000 LVIS_LVIMD
000fffab l       *ABS*	00000000 WDTE
000fffac l       *ABS*	00000000 CRCIN
000fffad l       *ABS*	00000000 RXB
000fffad l       *ABS*	00000000 TXS
000fffae l       *ABS*	00000000 MONSTA0
000fffaf l       *ABS*	00000000 ASIM
000fffd0 l       *ABS*	00000000 IF2
000fffd0 l       *ABS*	00000000 IF2L
00000000 l       *ABS*	00000000 IF2L_TMIF05
00000001 l       *ABS*	00000000 IF2L_TMIF06
00000002 l       *ABS*	00000000 IF2L_TMIF07
00000003 l       *ABS*	00000000 IF2L_LIN0WUPIF
00000004 l       *ABS*	00000000 IF2L_KRIF
000fffd1 l       *ABS*	00000000 IF2H
00000003 l       *ABS*	00000000 IF2H_TMIF10
00000004 l       *ABS*	00000000 IF2H_TMIF11
00000005 l       *ABS*	00000000 IF2H_TMIF12
00000006 l       *ABS*	00000000 IF2H_TMIF13
00000007 l       *ABS*	00000000 IF2H_FLIF
000fffd4 l       *ABS*	00000000 MK2
000fffd4 l       *ABS*	00000000 MK2L
00000000 l       *ABS*	00000000 MK2L_TMMK05
00000001 l       *ABS*	00000000 MK2L_TMMK06
00000002 l       *ABS*	00000000 MK2L_TMMK07
00000003 l       *ABS*	00000000 MK2L_LIN0WUPMK
00000004 l       *ABS*	00000000 MK2L_KRMK
000fffd5 l       *ABS*	00000000 MK2H
00000003 l       *ABS*	00000000 MK2H_TMMK10
00000004 l       *ABS*	00000000 MK2H_TMMK11
00000005 l       *ABS*	00000000 MK2H_TMMK12
00000006 l       *ABS*	00000000 MK2H_TMMK13
00000007 l       *ABS*	00000000 MK2H_FLMK
000fffd8 l       *ABS*	00000000 PR02
000fffd8 l       *ABS*	00000000 PR02L
00000000 l       *ABS*	00000000 PR02L_TMPR005
00000001 l       *ABS*	00000000 PR02L_TMPR006
00000002 l       *ABS*	00000000 PR02L_TMPR007
00000003 l       *ABS*	00000000 PR02L_LIN0WUPPR0
00000004 l       *ABS*	00000000 PR02L_KRPR0
000fffd9 l       *ABS*	00000000 PR02H
00000003 l       *ABS*	00000000 PR02H_TMPR010
00000004 l       *ABS*	00000000 PR02H_TMPR011
00000005 l       *ABS*	00000000 PR02H_TMPR012
00000006 l       *ABS*	00000000 PR02H_TMPR013
00000007 l       *ABS*	00000000 PR02H_FLPR0
000fffdc l       *ABS*	00000000 PR12
000fffdc l       *ABS*	00000000 PR12L
00000000 l       *ABS*	00000000 PR12L_TMPR105
00000001 l       *ABS*	00000000 PR12L_TMPR106
00000002 l       *ABS*	00000000 PR12L_TMPR107
00000003 l       *ABS*	00000000 PR12L_LIN0WUPPR1
00000004 l       *ABS*	00000000 PR12L_KRPR1
000fffdd l       *ABS*	00000000 PR12H
00000003 l       *ABS*	00000000 PR12H_TMPR110
00000004 l       *ABS*	00000000 PR12H_TMPR111
00000005 l       *ABS*	00000000 PR12H_TMPR112
00000006 l       *ABS*	00000000 PR12H_TMPR113
00000007 l       *ABS*	00000000 PR12H_FLPR1
000fffe0 l       *ABS*	00000000 IF0
000fffe0 l       *ABS*	00000000 IF0L
00000000 l       *ABS*	00000000 IF0L_WDTIIF
00000001 l       *ABS*	00000000 IF0L_LVIIF
00000002 l       *ABS*	00000000 IF0L_PIF0
00000003 l       *ABS*	00000000 IF0L_PIF1
00000004 l       *ABS*	00000000 IF0L_PIF2
00000005 l       *ABS*	00000000 IF0L_PIF3
00000006 l       *ABS*	00000000 IF0L_SPMIF
00000007 l       *ABS*	00000000 IF0L_PIF5
000fffe1 l       *ABS*	00000000 IF0H
00000000 l       *ABS*	00000000 IF0H_CLMIF
00000001 l       *ABS*	00000000 IF0H_STIF0
00000002 l       *ABS*	00000000 IF0H_SRIF0
00000003 l       *ABS*	00000000 IF0H_TRDIF0
00000004 l       *ABS*	00000000 IF0H_TRDIF1
00000005 l       *ABS*	00000000 IF0H_TRJIF0
00000006 l       *ABS*	00000000 IF0H_RAMIF
00000007 l       *ABS*	00000000 IF0H_LIN0TRMIF
000fffe2 l       *ABS*	00000000 IF1
000fffe2 l       *ABS*	00000000 IF1L
00000000 l       *ABS*	00000000 IF1L_LIN0RVCIF
00000001 l       *ABS*	00000000 IF1L_LIN0STAIF
00000002 l       *ABS*	00000000 IF1L_IICAIF0
00000003 l       *ABS*	00000000 IF1L_RTCIF
00000004 l       *ABS*	00000000 IF1L_TMIF00
00000005 l       *ABS*	00000000 IF1L_TMIF01
00000006 l       *ABS*	00000000 IF1L_TMIF02
00000007 l       *ABS*	00000000 IF1L_TMIF03
000fffe3 l       *ABS*	00000000 IF1H
00000000 l       *ABS*	00000000 IF1H_ADIF
00000001 l       *ABS*	00000000 IF1H_TMIF11H
00000002 l       *ABS*	00000000 IF1H_TMIF13H
00000003 l       *ABS*	00000000 IF1H_TMIF01H
00000004 l       *ABS*	00000000 IF1H_TMIF03H
00000005 l       *ABS*	00000000 IF1H_STIF1
00000006 l       *ABS*	00000000 IF1H_SRIF1
00000007 l       *ABS*	00000000 IF1H_TMIF04
000fffe4 l       *ABS*	00000000 MK0
000fffe4 l       *ABS*	00000000 MK0L
00000000 l       *ABS*	00000000 MK0L_WDTIMK
00000001 l       *ABS*	00000000 MK0L_LVIMK
00000002 l       *ABS*	00000000 MK0L_PMK0
00000003 l       *ABS*	00000000 MK0L_PMK1
00000004 l       *ABS*	00000000 MK0L_PMK2
00000005 l       *ABS*	00000000 MK0L_PMK3
00000006 l       *ABS*	00000000 MK0L_SPMMK
00000007 l       *ABS*	00000000 MK0L_PMK5
000fffe5 l       *ABS*	00000000 MK0H
00000000 l       *ABS*	00000000 MK0H_CLMMK
00000001 l       *ABS*	00000000 MK0H_STMK0
00000002 l       *ABS*	00000000 MK0H_SRMK0
00000003 l       *ABS*	00000000 MK0H_TRDMK0
00000004 l       *ABS*	00000000 MK0H_TRDMK1
00000005 l       *ABS*	00000000 MK0H_TRJMK0
00000006 l       *ABS*	00000000 MK0H_RAMMK
00000007 l       *ABS*	00000000 MK0H_LIN0TRMMK
000fffe6 l       *ABS*	00000000 MK1
000fffe6 l       *ABS*	00000000 MK1L
00000000 l       *ABS*	00000000 MK1L_LIN0RVCMK
00000001 l       *ABS*	00000000 MK1L_LIN0STAMK
00000002 l       *ABS*	00000000 MK1L_IICAMK0
00000003 l       *ABS*	00000000 MK1L_RTCMK
00000004 l       *ABS*	00000000 MK1L_TMMK00
00000005 l       *ABS*	00000000 MK1L_TMMK01
00000006 l       *ABS*	00000000 MK1L_TMMK02
00000007 l       *ABS*	00000000 MK1L_TMMK03
000fffe7 l       *ABS*	00000000 MK1H
00000000 l       *ABS*	00000000 MK1H_ADMK
00000001 l       *ABS*	00000000 MK1H_TMMK11H
00000002 l       *ABS*	00000000 MK1H_TMMK13H
00000003 l       *ABS*	00000000 MK1H_TMMK01H
00000004 l       *ABS*	00000000 MK1H_TMMK03H
00000005 l       *ABS*	00000000 MK1H_STMK1
00000006 l       *ABS*	00000000 MK1H_SRMK1
00000007 l       *ABS*	00000000 MK1H_TMMK04
000fffe8 l       *ABS*	00000000 PR00
000fffe8 l       *ABS*	00000000 PR00L
00000000 l       *ABS*	00000000 PR00L_WDTIPR0
00000001 l       *ABS*	00000000 PR00L_LVIPR0
00000002 l       *ABS*	00000000 PR00L_PPR00
00000003 l       *ABS*	00000000 PR00L_PPR01
00000004 l       *ABS*	00000000 PR00L_PPR02
00000005 l       *ABS*	00000000 PR00L_PPR03
00000006 l       *ABS*	00000000 PR00L_SPMPR0
00000007 l       *ABS*	00000000 PR00L_PPR05
000fffe9 l       *ABS*	00000000 PR00H
00000000 l       *ABS*	00000000 PR00H_CLMPR0
00000001 l       *ABS*	00000000 PR00H_STPR00
00000002 l       *ABS*	00000000 PR00H_SRPR00
00000003 l       *ABS*	00000000 PR00H_TRDPR00
00000004 l       *ABS*	00000000 PR00H_TRDPR01
00000005 l       *ABS*	00000000 PR00H_TRJPR00
00000006 l       *ABS*	00000000 PR00H_RAMPR0
00000007 l       *ABS*	00000000 PR00H_LIN0TRMPR0
000fffea l       *ABS*	00000000 PR01
000fffea l       *ABS*	00000000 PR01L
00000000 l       *ABS*	00000000 PR01L_LIN0RVCPR0
00000001 l       *ABS*	00000000 PR01L_LIN0STAPR0
00000002 l       *ABS*	00000000 PR01L_IICAPR00
00000003 l       *ABS*	00000000 PR01L_RTCPR0
00000004 l       *ABS*	00000000 PR01L_TMPR000
00000005 l       *ABS*	00000000 PR01L_TMPR001
00000006 l       *ABS*	00000000 PR01L_TMPR002
00000007 l       *ABS*	00000000 PR01L_TMPR003
000fffeb l       *ABS*	00000000 PR01H
00000000 l       *ABS*	00000000 PR01H_ADPR0
00000001 l       *ABS*	00000000 PR01H_TMPR011H
00000002 l       *ABS*	00000000 PR01H_TMPR013H
00000003 l       *ABS*	00000000 PR01H_TMPR001H
00000004 l       *ABS*	00000000 PR01H_TMPR003H
00000005 l       *ABS*	00000000 PR01H_STPR01
00000006 l       *ABS*	00000000 PR01H_SRPR01
00000007 l       *ABS*	00000000 PR01H_TMPR004
000fffec l       *ABS*	00000000 PR10
000fffec l       *ABS*	00000000 PR10L
00000000 l       *ABS*	00000000 PR10L_WDTIPR1
00000001 l       *ABS*	00000000 PR10L_LVIPR1
00000002 l       *ABS*	00000000 PR10L_PPR10
00000003 l       *ABS*	00000000 PR10L_PPR11
00000004 l       *ABS*	00000000 PR10L_PPR12
00000005 l       *ABS*	00000000 PR10L_PPR13
00000006 l       *ABS*	00000000 PR10L_SPMPR1
00000007 l       *ABS*	00000000 PR10L_PPR15
000fffed l       *ABS*	00000000 PR10H
00000000 l       *ABS*	00000000 PR10H_CLMPR1
00000001 l       *ABS*	00000000 PR10H_STPR10
00000002 l       *ABS*	00000000 PR10H_SRPR10
00000003 l       *ABS*	00000000 PR10H_TRDPR10
00000004 l       *ABS*	00000000 PR10H_TRDPR11
00000005 l       *ABS*	00000000 PR10H_TRJPR10
00000006 l       *ABS*	00000000 PR10H_RAMPR1
00000007 l       *ABS*	00000000 PR10H_LIN0TRMPR1
000fffee l       *ABS*	00000000 PR11
000fffee l       *ABS*	00000000 PR11L
00000000 l       *ABS*	00000000 PR11L_LIN0RVCPR1
00000001 l       *ABS*	00000000 PR11L_LIN0STAPR1
00000002 l       *ABS*	00000000 PR11L_IICAPR10
00000003 l       *ABS*	00000000 PR11L_RTCPR1
00000004 l       *ABS*	00000000 PR11L_TMPR100
00000005 l       *ABS*	00000000 PR11L_TMPR101
00000006 l       *ABS*	00000000 PR11L_TMPR102
00000007 l       *ABS*	00000000 PR11L_TMPR103
000fffef l       *ABS*	00000000 PR11H
00000000 l       *ABS*	00000000 PR11H_ADPR1
00000001 l       *ABS*	00000000 PR11H_TMPR111H
00000002 l       *ABS*	00000000 PR11H_TMPR113H
00000003 l       *ABS*	00000000 PR11H_TMPR101H
00000004 l       *ABS*	00000000 PR11H_TMPR103H
00000005 l       *ABS*	00000000 PR11H_STPR11
00000006 l       *ABS*	00000000 PR11H_SRPR11
00000007 l       *ABS*	00000000 PR11H_TMPR104
000ffff0 l       *ABS*	00000000 MACRL
000ffff2 l       *ABS*	00000000 MACRH
00000001 l       *ABS*	00000000 MACRH_ISP0
00000002 l       *ABS*	00000000 MACRH_ISP1
00000003 l       *ABS*	00000000 MACRH_RBS0
00000004 l       *ABS*	00000000 MACRH_AC
00000005 l       *ABS*	00000000 MACRH_RBS1
00000006 l       *ABS*	00000000 MACRH_Z
00000007 l       *ABS*	00000000 MACRH_IE
000ffffb l       *ABS*	00000000 MDUC
000ffffe l       *ABS*	00000000 PMC
00000000 l       *ABS*	00000000 PMC_MAA
000f0000 l       *ABS*	00000000 HDTCDUM
000f0010 l       *ABS*	00000000 ADM2
00000000 l       *ABS*	00000000 ADM2_ADTYP
00000002 l       *ABS*	00000000 ADM2_AWC
00000003 l       *ABS*	00000000 ADM2_ADRCK
000f0011 l       *ABS*	00000000 ADUL
000f0012 l       *ABS*	00000000 ADLL
000f0013 l       *ABS*	00000000 ADTES
000f0016 l       *ABS*	00000000 PIOR0
000f0017 l       *ABS*	00000000 PIOR1
000f001a l       *ABS*	00000000 PIOR4
000f001b l       *ABS*	00000000 PIOR5
000f001d l       *ABS*	00000000 PIOR7
000f0021 l       *ABS*	00000000 PITHL1
000f0023 l       *ABS*	00000000 PITHL3
000f0026 l       *ABS*	00000000 PITHL6
000f0027 l       *ABS*	00000000 PITHL7
000f002c l       *ABS*	00000000 PITHL12
000f0030 l       *ABS*	00000000 PU0
000f0031 l       *ABS*	00000000 PU1
000f0033 l       *ABS*	00000000 PU3
000f0034 l       *ABS*	00000000 PU4
000f0036 l       *ABS*	00000000 PU6
000f0037 l       *ABS*	00000000 PU7
000f003c l       *ABS*	00000000 PU12
000f003e l       *ABS*	00000000 PU14
000f0041 l       *ABS*	00000000 PIM1
000f0043 l       *ABS*	00000000 PIM3
000f0046 l       *ABS*	00000000 PIM6
000f0047 l       *ABS*	00000000 PIM7
000f004c l       *ABS*	00000000 PIM12
000f0051 l       *ABS*	00000000 POM1
000f0056 l       *ABS*	00000000 POM6
000f0057 l       *ABS*	00000000 POM7
000f005c l       *ABS*	00000000 POM12
000f006c l       *ABS*	00000000 PMC12
000f0070 l       *ABS*	00000000 NFEN0
000f0071 l       *ABS*	00000000 NFEN1
000f0072 l       *ABS*	00000000 NFEN2
000f0073 l       *ABS*	00000000 ISC
000f0074 l       *ABS*	00000000 TIS0
000f0075 l       *ABS*	00000000 TIS1
000f0076 l       *ABS*	00000000 ADPC
000f0077 l       *ABS*	00000000 PMS
000f0078 l       *ABS*	00000000 IAWCTL
000f0079 l       *ABS*	00000000 INTFLG0
000f007b l       *ABS*	00000000 LCHSEL
000f007c l       *ABS*	00000000 INTMSK
000f007e l       *ABS*	00000000 PRDSEL
000f0080 l       *ABS*	00000000 TOOLEN
000f0081 l       *ABS*	00000000 BPAL0
000f0082 l       *ABS*	00000000 BPAH0
000f0083 l       *ABS*	00000000 BPAS0
000f0084 l       *ABS*	00000000 BACDVL0
000f0085 l       *ABS*	00000000 BACDVH0
000f0086 l       *ABS*	00000000 BACDML0
000f0087 l       *ABS*	00000000 BACDMH0
000f0088 l       *ABS*	00000000 MONMOD
000f0089 l       *ABS*	00000000 BPAL1
000f008a l       *ABS*	00000000 BPAH1
000f008b l       *ABS*	00000000 BPAS1
000f008c l       *ABS*	00000000 BACDVL1
000f008d l       *ABS*	00000000 BACDVH1
000f008e l       *ABS*	00000000 BACDML1
000f008f l       *ABS*	00000000 BACDMH1
000f0090 l       *ABS*	00000000 DFLCTL
00000000 l       *ABS*	00000000 DFLCTL_DFLEN
000f00a0 l       *ABS*	00000000 HIOTRM
000f00a1 l       *ABS*	00000000 BECTL
00000000 l       *ABS*	00000000 BECTL_BRSAM
000f00a8 l       *ABS*	00000000 HOCODIV
000f00ac l       *ABS*	00000000 TEMPCAL0
000f00ad l       *ABS*	00000000 TEMPCAL1
000f00ae l       *ABS*	00000000 TEMPCAL2
000f00af l       *ABS*	00000000 TEMPCAL3
000f00b0 l       *ABS*	00000000 FLSEC
000f00b2 l       *ABS*	00000000 FLFSWS
000f00b4 l       *ABS*	00000000 FLFSWE
000f00b6 l       *ABS*	00000000 FSSET
000f00b7 l       *ABS*	00000000 FSSE
00000007 l       *ABS*	00000000 FSSE_ESQST
000f00b8 l       *ABS*	00000000 FLFADL
000f00ba l       *ABS*	00000000 FLFADH
000f00c0 l       *ABS*	00000000 PFCMD
000f00c1 l       *ABS*	00000000 PFS
000f00c2 l       *ABS*	00000000 FLRL
000f00c4 l       *ABS*	00000000 FLRH
000f00c6 l       *ABS*	00000000 FLWE
000f00c7 l       *ABS*	00000000 FLRE
000f00c8 l       *ABS*	00000000 FLTMS
000f00ca l       *ABS*	00000000 DFLMC
000f00cc l       *ABS*	00000000 FLMCL
000f00ce l       *ABS*	00000000 FLMCH
000f00cf l       *ABS*	00000000 FSCTL
000f00d0 l       *ABS*	00000000 ICEADR
000f00d2 l       *ABS*	00000000 ICEDAT
000f00d8 l       *ABS*	00000000 SPMCTRL
000f00da l       *ABS*	00000000 SPOFR
000f00dc l       *ABS*	00000000 SPUFR
000f00f0 l       *ABS*	00000000 PER0
00000000 l       *ABS*	00000000 PER0_TAU0EN
00000001 l       *ABS*	00000000 PER0_TAU1EN
00000002 l       *ABS*	00000000 PER0_SAU0EN
00000003 l       *ABS*	00000000 PER0_SAU1EN
00000004 l       *ABS*	00000000 PER0_IICA0EN
00000005 l       *ABS*	00000000 PER0_ADCEN
00000007 l       *ABS*	00000000 PER0_RTCEN
000f00f3 l       *ABS*	00000000 OSMC
000f00f4 l       *ABS*	00000000 RMC
00000000 l       *ABS*	00000000 RMC_PAENB
00000007 l       *ABS*	00000000 RMC_WDVOL
000f00f5 l       *ABS*	00000000 RPECTL
00000000 l       *ABS*	00000000 RPECTL_RPEF
00000007 l       *ABS*	00000000 RPECTL_RPERDIS
000f00fe l       *ABS*	00000000 BCDADJ
000f00ff l       *ABS*	00000000 VECTCTRL
000f0100 l       *ABS*	00000000 SSR00
000f0100 l       *ABS*	00000000 SSR00L
000f0102 l       *ABS*	00000000 SSR01
000f0102 l       *ABS*	00000000 SSR01L
000f0104 l       *ABS*	00000000 SIR00
000f0104 l       *ABS*	00000000 SIR00L
000f0106 l       *ABS*	00000000 SIR01
000f0106 l       *ABS*	00000000 SIR01L
000f0108 l       *ABS*	00000000 SMR00
000f010a l       *ABS*	00000000 SMR01
000f010c l       *ABS*	00000000 SCR00
000f010e l       *ABS*	00000000 SCR01
000f0110 l       *ABS*	00000000 SE0
000f0110 l       *ABS*	00000000 SE0L
000f0112 l       *ABS*	00000000 SS0
000f0112 l       *ABS*	00000000 SS0L
000f0114 l       *ABS*	00000000 ST0
000f0114 l       *ABS*	00000000 ST0L
000f0116 l       *ABS*	00000000 SPS0
000f0116 l       *ABS*	00000000 SPS0L
000f0118 l       *ABS*	00000000 SO0
000f011a l       *ABS*	00000000 SOE0
000f011a l       *ABS*	00000000 SOE0L
000f011c l       *ABS*	00000000 EDR00
000f011c l       *ABS*	00000000 EDR00L
000f011e l       *ABS*	00000000 EDR01
000f011e l       *ABS*	00000000 EDR01L
000f0120 l       *ABS*	00000000 SOL0
000f0120 l       *ABS*	00000000 SOL0L
000f0122 l       *ABS*	00000000 SSE0
000f0122 l       *ABS*	00000000 SSE0L
000f0140 l       *ABS*	00000000 SSR10
000f0140 l       *ABS*	00000000 SSR10L
000f0142 l       *ABS*	00000000 SSR11
000f0142 l       *ABS*	00000000 SSR11L
000f0144 l       *ABS*	00000000 SIR10
000f0144 l       *ABS*	00000000 SIR10L
000f0146 l       *ABS*	00000000 SIR11
000f0146 l       *ABS*	00000000 SIR11L
000f0148 l       *ABS*	00000000 SMR10
000f014a l       *ABS*	00000000 SMR11
000f014c l       *ABS*	00000000 SCR10
000f014e l       *ABS*	00000000 SCR11
000f0150 l       *ABS*	00000000 SE1
000f0150 l       *ABS*	00000000 SE1L
000f0152 l       *ABS*	00000000 SS1
000f0152 l       *ABS*	00000000 SS1L
000f0154 l       *ABS*	00000000 ST1
000f0154 l       *ABS*	00000000 ST1L
000f0156 l       *ABS*	00000000 SPS1
000f0156 l       *ABS*	00000000 SPS1L
000f0158 l       *ABS*	00000000 SO1
000f015a l       *ABS*	00000000 SOE1
000f015a l       *ABS*	00000000 SOE1L
000f015c l       *ABS*	00000000 EDR10
000f015c l       *ABS*	00000000 EDR10L
000f015e l       *ABS*	00000000 EDR11
000f015e l       *ABS*	00000000 EDR11L
000f0160 l       *ABS*	00000000 SOL1
000f0160 l       *ABS*	00000000 SOL1L
000f0162 l       *ABS*	00000000 SSE1
000f0162 l       *ABS*	00000000 SSE1L
000f0180 l       *ABS*	00000000 TCR00
000f0182 l       *ABS*	00000000 TCR01
000f0184 l       *ABS*	00000000 TCR02
000f0186 l       *ABS*	00000000 TCR03
000f0188 l       *ABS*	00000000 TCR04
000f018a l       *ABS*	00000000 TCR05
000f018c l       *ABS*	00000000 TCR06
000f018e l       *ABS*	00000000 TCR07
000f0190 l       *ABS*	00000000 TMR00
000f0192 l       *ABS*	00000000 TMR01
000f0194 l       *ABS*	00000000 TMR02
000f0196 l       *ABS*	00000000 TMR03
000f0198 l       *ABS*	00000000 TMR04
000f019a l       *ABS*	00000000 TMR05
000f019c l       *ABS*	00000000 TMR06
000f019e l       *ABS*	00000000 TMR07
000f01a0 l       *ABS*	00000000 TSR00
000f01a0 l       *ABS*	00000000 TSR00L
000f01a2 l       *ABS*	00000000 TSR01
000f01a2 l       *ABS*	00000000 TSR01L
000f01a4 l       *ABS*	00000000 TSR02
000f01a4 l       *ABS*	00000000 TSR02L
000f01a6 l       *ABS*	00000000 TSR03
000f01a6 l       *ABS*	00000000 TSR03L
000f01a8 l       *ABS*	00000000 TSR04
000f01a8 l       *ABS*	00000000 TSR04L
000f01aa l       *ABS*	00000000 TSR05
000f01aa l       *ABS*	00000000 TSR05L
000f01ac l       *ABS*	00000000 TSR06
000f01ac l       *ABS*	00000000 TSR06L
000f01ae l       *ABS*	00000000 TSR07
000f01ae l       *ABS*	00000000 TSR07L
000f01b0 l       *ABS*	00000000 TE0
000f01b0 l       *ABS*	00000000 TE0L
000f01b2 l       *ABS*	00000000 TS0
000f01b2 l       *ABS*	00000000 TS0L
000f01b4 l       *ABS*	00000000 TT0
000f01b4 l       *ABS*	00000000 TT0L
000f01b6 l       *ABS*	00000000 TPS0
000f01b8 l       *ABS*	00000000 TO0
000f01b8 l       *ABS*	00000000 TO0L
000f01ba l       *ABS*	00000000 TOE0
000f01ba l       *ABS*	00000000 TOE0L
00000000 l       *ABS*	00000000 TOE0L_TOE0_0
00000001 l       *ABS*	00000000 TOE0L_TOE0_1
00000002 l       *ABS*	00000000 TOE0L_TOE0_2
00000003 l       *ABS*	00000000 TOE0L_TOE0_3
00000004 l       *ABS*	00000000 TOE0L_TOE0_4
00000005 l       *ABS*	00000000 TOE0L_TOE0_5
00000006 l       *ABS*	00000000 TOE0L_TOE0_6
00000007 l       *ABS*	00000000 TOE0L_TOE0_7
000f01bc l       *ABS*	00000000 TOL0
000f01bc l       *ABS*	00000000 TOL0L
000f01be l       *ABS*	00000000 TOM0
000f01be l       *ABS*	00000000 TOM0L
000f01c0 l       *ABS*	00000000 TCR10
000f01c2 l       *ABS*	00000000 TCR11
000f01c4 l       *ABS*	00000000 TCR12
000f01c6 l       *ABS*	00000000 TCR13
000f01d0 l       *ABS*	00000000 TMR10
000f01d2 l       *ABS*	00000000 TMR11
000f01d4 l       *ABS*	00000000 TMR12
000f01d6 l       *ABS*	00000000 TMR13
000f01e0 l       *ABS*	00000000 TSR10
000f01e0 l       *ABS*	00000000 TSR10L
000f01e2 l       *ABS*	00000000 TSR11
000f01e2 l       *ABS*	00000000 TSR11L
000f01e4 l       *ABS*	00000000 TSR12
000f01e4 l       *ABS*	00000000 TSR12L
000f01e6 l       *ABS*	00000000 TSR13
000f01e6 l       *ABS*	00000000 TSR13L
000f01f0 l       *ABS*	00000000 TE1
000f01f0 l       *ABS*	00000000 TE1L
000f01f2 l       *ABS*	00000000 TS1
000f01f2 l       *ABS*	00000000 TS1L
000f01f4 l       *ABS*	00000000 TT1
000f01f4 l       *ABS*	00000000 TT1L
000f01f6 l       *ABS*	00000000 TPS1
000f01f8 l       *ABS*	00000000 TO1
000f01f8 l       *ABS*	00000000 TO1L
000f01fa l       *ABS*	00000000 TOE1
000f01fa l       *ABS*	00000000 TOE1L
000f01fc l       *ABS*	00000000 TOL1
000f01fc l       *ABS*	00000000 TOL1L
000f01fe l       *ABS*	00000000 TOM1
000f01fe l       *ABS*	00000000 TOM1L
000f0200 l       *ABS*	00000000 ERADR
000f0202 l       *ABS*	00000000 ECCIER
000f0203 l       *ABS*	00000000 ECCER
000f0204 l       *ABS*	00000000 ECCTPR
000f0205 l       *ABS*	00000000 ECCTMDR
000f0206 l       *ABS*	00000000 ECCDWRVR
000f0208 l       *ABS*	00000000 RMODR
000f0209 l       *ABS*	00000000 RTSTR
000f020c l       *ABS*	00000000 WDTLIOTRM
000f020d l       *ABS*	00000000 PRDCTL
00000000 l       *ABS*	00000000 PRDCTL_PCANEN
000f0220 l       *ABS*	00000000 PSRSEL
000f0222 l       *ABS*	00000000 PSNZCNT0
000f0223 l       *ABS*	00000000 PSNZCNT1
000f0224 l       *ABS*	00000000 PSNZCNT2
000f0225 l       *ABS*	00000000 PSNZCNT3
000f0228 l       *ABS*	00000000 PWMDLY0
000f022a l       *ABS*	00000000 PWMDLY1
000f022c l       *ABS*	00000000 PWMDLY2
000f0230 l       *ABS*	00000000 IICCTL00
00000000 l       *ABS*	00000000 IICCTL00_SPT0
00000001 l       *ABS*	00000000 IICCTL00_STT0
00000002 l       *ABS*	00000000 IICCTL00_ACKE0
00000003 l       *ABS*	00000000 IICCTL00_WTIM0
00000004 l       *ABS*	00000000 IICCTL00_SPIE0
00000005 l       *ABS*	00000000 IICCTL00_WREL0
00000006 l       *ABS*	00000000 IICCTL00_LREL0
00000007 l       *ABS*	00000000 IICCTL00_IICE0
000f0231 l       *ABS*	00000000 IICCTL01
00000000 l       *ABS*	00000000 IICCTL01_PRS0
00000002 l       *ABS*	00000000 IICCTL01_DFC0
00000003 l       *ABS*	00000000 IICCTL01_SMC0
00000004 l       *ABS*	00000000 IICCTL01_DAD0
00000005 l       *ABS*	00000000 IICCTL01_CLD0
00000007 l       *ABS*	00000000 IICCTL01_WUP0
000f0232 l       *ABS*	00000000 IICWL0
000f0233 l       *ABS*	00000000 IICWH0
000f0234 l       *ABS*	00000000 SVA0
000f0235 l       *ABS*	00000000 IICSE0
000f0240 l       *ABS*	00000000 TRJCR0
000f0241 l       *ABS*	00000000 TRJIOC0
000f0242 l       *ABS*	00000000 TRJMR0
000f0243 l       *ABS*	00000000 TRJISR0
000f0263 l       *ABS*	00000000 TRDSTR
000f0264 l       *ABS*	00000000 TRDMR
00000000 l       *ABS*	00000000 TRDMR_TRDSYNC
00000004 l       *ABS*	00000000 TRDMR_TRDBFC0
00000005 l       *ABS*	00000000 TRDMR_TRDBFD0
00000006 l       *ABS*	00000000 TRDMR_TRDBFC1
00000007 l       *ABS*	00000000 TRDMR_TRDBFD1
000f0265 l       *ABS*	00000000 TRDPMR
00000000 l       *ABS*	00000000 TRDPMR_TRDPWMB0
00000001 l       *ABS*	00000000 TRDPMR_TRDPWMC0
00000002 l       *ABS*	00000000 TRDPMR_TRDPWMD0
00000004 l       *ABS*	00000000 TRDPMR_TRDPWMB1
00000005 l       *ABS*	00000000 TRDPMR_TRDPWMC1
00000006 l       *ABS*	00000000 TRDPMR_TRDPWMD1
000f0266 l       *ABS*	00000000 TRDFCR
000f0267 l       *ABS*	00000000 TRDOER1
000f0268 l       *ABS*	00000000 TRDOER2
00000000 l       *ABS*	00000000 TRDOER2_TRDSHUTS
00000007 l       *ABS*	00000000 TRDOER2_TRDPTO
000f0269 l       *ABS*	00000000 TRDOCR
000f026a l       *ABS*	00000000 TRDDF0
000f026b l       *ABS*	00000000 TRDDF1
000f0270 l       *ABS*	00000000 TRDCR0
000f0271 l       *ABS*	00000000 TRDIORA0
000f0272 l       *ABS*	00000000 TRDIORC0
000f0273 l       *ABS*	00000000 TRDSR0
000f0274 l       *ABS*	00000000 TRDIER0
000f0275 l       *ABS*	00000000 TRDPOCR0
000f0276 l       *ABS*	00000000 TRD0
000f0278 l       *ABS*	00000000 TRDGRA0
000f027a l       *ABS*	00000000 TRDGRB0
000f027c l       *ABS*	00000000 TRDGRC0M
000f027e l       *ABS*	00000000 TRDGRD0M
000f0280 l       *ABS*	00000000 TRDCR1
000f0281 l       *ABS*	00000000 TRDIORA1
000f0282 l       *ABS*	00000000 TRDIORC1
000f0283 l       *ABS*	00000000 TRDSR1
000f0284 l       *ABS*	00000000 TRDIER1
000f0285 l       *ABS*	00000000 TRDPOCR1
000f0286 l       *ABS*	00000000 TRD1
000f0288 l       *ABS*	00000000 TRDGRA1
000f028a l       *ABS*	00000000 TRDGRB1
000f028c l       *ABS*	00000000 TRDGRC1M
000f028e l       *ABS*	00000000 TRDGRD1M
000f02b0 l       *ABS*	00000000 C2CCNT
00000000 l       *ABS*	00000000 C2CCNT_C2CMODE
00000001 l       *ABS*	00000000 C2CCNT_C2CDIR
00000002 l       *ABS*	00000000 C2CCNT_C2CCYCLE0
00000003 l       *ABS*	00000000 C2CCNT_C2CCYCLE1
00000004 l       *ABS*	00000000 C2CCNT_E2CEXCK0
00000005 l       *ABS*	00000000 C2CCNT_E2CEXCK1
00000006 l       *ABS*	00000000 C2CCNT_C2CCSICH
00000007 l       *ABS*	00000000 C2CCNT_C2CON
000f02c0 l       *ABS*	00000000 PER1
00000000 l       *ABS*	00000000 PER1_TRJ0EN
00000003 l       *ABS*	00000000 PER1_DTCEN
00000004 l       *ABS*	00000000 PER1_TRD0EN
000f02c1 l       *ABS*	00000000 PER2
00000002 l       *ABS*	00000000 PER2_LIN0EN
00000007 l       *ABS*	00000000 PER2_C2CEN
000f02c3 l       *ABS*	00000000 LINCKSEL
00000000 l       *ABS*	00000000 LINCKSEL_LIN0MCK
00000004 l       *ABS*	00000000 LINCKSEL_LIN0MCKE
000f02c4 l       *ABS*	00000000 CKSEL
00000000 l       *ABS*	00000000 CKSEL_SELLOSC
00000002 l       *ABS*	00000000 CKSEL_TRD_CKSEL
00000006 l       *ABS*	00000000 CKSEL_FMAINDIV
000f02c5 l       *ABS*	00000000 PLLCTL
00000000 l       *ABS*	00000000 PLLCTL_PLLON
00000001 l       *ABS*	00000000 PLLCTL_PLLMUL
00000002 l       *ABS*	00000000 PLLCTL_SELPLL
00000004 l       *ABS*	00000000 PLLCTL_PLLDIV0
00000005 l       *ABS*	00000000 PLLCTL_PLLDIV1
00000006 l       *ABS*	00000000 PLLCTL_LCKSEL0
00000007 l       *ABS*	00000000 PLLCTL_LCKSEL1
000f02c6 l       *ABS*	00000000 PLLSTS
00000003 l       *ABS*	00000000 PLLSTS_SELPLLS
00000007 l       *ABS*	00000000 PLLSTS_LOCK
000f02c7 l       *ABS*	00000000 MDIV
000f02c8 l       *ABS*	00000000 RTCCL
000f02c9 l       *ABS*	00000000 POCRES
00000000 l       *ABS*	00000000 POCRES_POCRES0
00000004 l       *ABS*	00000000 POCRES_CLKRF
000f02ca l       *ABS*	00000000 STPSTC
00000004 l       *ABS*	00000000 STPSTC_STPLV
00000007 l       *ABS*	00000000 STPSTC_STPOEN
000f02cb l       *ABS*	00000000 TPGCSC
00000005 l       *ABS*	00000000 TPGCSC_TWWDTSTP
00000006 l       *ABS*	00000000 TPGCSC_TWDTLOSC
00000007 l       *ABS*	00000000 TPGCSC_TCKSPLL
000f02cc l       *ABS*	00000000 CLMTES
00000000 l       *ABS*	00000000 CLMTES_CK1MSK
00000001 l       *ABS*	00000000 CLMTES_CK2MSK
00000002 l       *ABS*	00000000 CLMTES_TCLKMB
00000003 l       *ABS*	00000000 CLMTES_TLIOUSE
00000007 l       *ABS*	00000000 CLMTES_TESEN
000f02d0 l       *ABS*	00000000 HDTCCR0
00000000 l       *ABS*	00000000 HDTCCR0_HMODE0
00000001 l       *ABS*	00000000 HDTCCR0_HRPTSEL0
00000002 l       *ABS*	00000000 HDTCCR0_HSAMOD0
00000003 l       *ABS*	00000000 HDTCCR0_HDAMOD0
00000004 l       *ABS*	00000000 HDTCCR0_HCHNE0
00000005 l       *ABS*	00000000 HDTCCR0_HRPTINT0
00000006 l       *ABS*	00000000 HDTCCR0_HSZ0
000f02d2 l       *ABS*	00000000 HDTCCT0
000f02d3 l       *ABS*	00000000 HDTRLD0
000f02d4 l       *ABS*	00000000 HDTSAR0
000f02d6 l       *ABS*	00000000 HDTDAR0
000f02d8 l       *ABS*	00000000 HDTCCR1
00000000 l       *ABS*	00000000 HDTCCR1_HMODE1
00000001 l       *ABS*	00000000 HDTCCR1_HRPTSEL1
00000002 l       *ABS*	00000000 HDTCCR1_HSAMOD1
00000003 l       *ABS*	00000000 HDTCCR1_HDAMOD1
00000004 l       *ABS*	00000000 HDTCCR1_HCHNE1
00000005 l       *ABS*	00000000 HDTCCR1_HRPTINT1
00000006 l       *ABS*	00000000 HDTCCR1_HSZ1
000f02da l       *ABS*	00000000 HDTCCT1
000f02db l       *ABS*	00000000 HDTRLD1
000f02dc l       *ABS*	00000000 HDTSAR1
000f02de l       *ABS*	00000000 HDTDAR1
000f02e0 l       *ABS*	00000000 DTCBAR
000f02e1 l       *ABS*	00000000 SELHS0
000f02e2 l       *ABS*	00000000 SELHS1
000f02e8 l       *ABS*	00000000 DTCEN0
00000000 l       *ABS*	00000000 DTCEN0_DTCEN00
00000001 l       *ABS*	00000000 DTCEN0_DTCEN01
00000002 l       *ABS*	00000000 DTCEN0_DTCEN02
00000003 l       *ABS*	00000000 DTCEN0_DTCEN03
00000004 l       *ABS*	00000000 DTCEN0_DTCEN04
00000005 l       *ABS*	00000000 DTCEN0_DTCEN05
00000006 l       *ABS*	00000000 DTCEN0_DTCEN06
00000007 l       *ABS*	00000000 DTCEN0_DTCEN07
000f02e9 l       *ABS*	00000000 DTCEN1
00000000 l       *ABS*	00000000 DTCEN1_DTCEN10
00000001 l       *ABS*	00000000 DTCEN1_DTCEN11
00000002 l       *ABS*	00000000 DTCEN1_DTCEN12
00000003 l       *ABS*	00000000 DTCEN1_DTCEN13
00000004 l       *ABS*	00000000 DTCEN1_DTCEN14
00000005 l       *ABS*	00000000 DTCEN1_DTCEN15
00000006 l       *ABS*	00000000 DTCEN1_DTCEN16
00000007 l       *ABS*	00000000 DTCEN1_DTCEN17
000f02ea l       *ABS*	00000000 DTCEN2
00000000 l       *ABS*	00000000 DTCEN2_DTCEN20
00000001 l       *ABS*	00000000 DTCEN2_DTCEN21
00000002 l       *ABS*	00000000 DTCEN2_DTCEN22
00000003 l       *ABS*	00000000 DTCEN2_DTCEN23
00000004 l       *ABS*	00000000 DTCEN2_DTCEN24
00000005 l       *ABS*	00000000 DTCEN2_DTCEN25
000f02eb l       *ABS*	00000000 DTCEN3
00000000 l       *ABS*	00000000 DTCEN3_DTCEN30
00000001 l       *ABS*	00000000 DTCEN3_DTCEN31
00000002 l       *ABS*	00000000 DTCEN3_DTCEN32
00000003 l       *ABS*	00000000 DTCEN3_DTCEN33
00000004 l       *ABS*	00000000 DTCEN3_DTCEN34
00000005 l       *ABS*	00000000 DTCEN3_DTCEN35
00000006 l       *ABS*	00000000 DTCEN3_DTCEN36
00000007 l       *ABS*	00000000 DTCEN3_DTCEN37
000f02ec l       *ABS*	00000000 DTCEN4
00000000 l       *ABS*	00000000 DTCEN4_DTCEN40
00000001 l       *ABS*	00000000 DTCEN4_DTCEN41
00000002 l       *ABS*	00000000 DTCEN4_DTCEN42
00000003 l       *ABS*	00000000 DTCEN4_DTCEN43
00000005 l       *ABS*	00000000 DTCEN4_DTCEN45
00000006 l       *ABS*	00000000 DTCEN4_DTCEN46
00000007 l       *ABS*	00000000 DTCEN4_DTCEN47
000f02f0 l       *ABS*	00000000 CRC0CTL
00000007 l       *ABS*	00000000 CRC0CTL_CRC0EN
000f02f2 l       *ABS*	00000000 PGCRCL
000f02f9 l       *ABS*	00000000 CRCMD
000f02fa l       *ABS*	00000000 CRCD
000f0500 l       *ABS*	00000000 C2CREG00
000f0501 l       *ABS*	00000000 C2CREG01
000f0502 l       *ABS*	00000000 C2CREG02
000f0503 l       *ABS*	00000000 C2CREG03
000f0504 l       *ABS*	00000000 C2CREG04
000f0505 l       *ABS*	00000000 C2CREG05
000f0506 l       *ABS*	00000000 C2CREG06
000f0507 l       *ABS*	00000000 C2CREG07
000f0508 l       *ABS*	00000000 C2CREG08
000f0509 l       *ABS*	00000000 C2CREG09
000f050a l       *ABS*	00000000 C2CREG0A
000f050b l       *ABS*	00000000 C2CREG0B
000f050c l       *ABS*	00000000 C2CREG0C
000f050d l       *ABS*	00000000 C2CREG0D
000f050e l       *ABS*	00000000 C2CREG0E
000f050f l       *ABS*	00000000 C2CREG0F
000f0510 l       *ABS*	00000000 C2CREG10
000f0511 l       *ABS*	00000000 C2CREG11
000f0512 l       *ABS*	00000000 C2CREG12
000f0513 l       *ABS*	00000000 C2CREG13
000f0514 l       *ABS*	00000000 C2CREG14
000f0515 l       *ABS*	00000000 C2CREG15
000f0516 l       *ABS*	00000000 C2CREG16
000f0517 l       *ABS*	00000000 C2CREG17
000f0518 l       *ABS*	00000000 C2CREG18
000f0519 l       *ABS*	00000000 C2CREG19
000f051a l       *ABS*	00000000 C2CREG1A
000f051b l       *ABS*	00000000 C2CREG1B
000f051c l       *ABS*	00000000 C2CREG1C
000f051d l       *ABS*	00000000 C2CREG1D
000f051e l       *ABS*	00000000 C2CREG1E
000f051f l       *ABS*	00000000 C2CREG1F
000f0520 l       *ABS*	00000000 C2CREG20
000f0521 l       *ABS*	00000000 C2CREG21
000f0522 l       *ABS*	00000000 C2CREG22
000f0523 l       *ABS*	00000000 C2CREG23
000f0524 l       *ABS*	00000000 C2CREG24
000f0525 l       *ABS*	00000000 C2CREG25
000f0526 l       *ABS*	00000000 C2CREG26
000f0527 l       *ABS*	00000000 C2CREG27
000f0528 l       *ABS*	00000000 C2CREG28
000f0529 l       *ABS*	00000000 C2CREG29
000f052a l       *ABS*	00000000 C2CREG2A
000f052b l       *ABS*	00000000 C2CREG2B
000f052c l       *ABS*	00000000 C2CREG2C
000f052d l       *ABS*	00000000 C2CREG2D
000f052e l       *ABS*	00000000 C2CREG2E
000f052f l       *ABS*	00000000 C2CREG2F
000f0530 l       *ABS*	00000000 C2CREG30
000f0531 l       *ABS*	00000000 C2CREG31
000f0532 l       *ABS*	00000000 C2CREG32
000f0533 l       *ABS*	00000000 C2CREG33
000f0534 l       *ABS*	00000000 C2CREG34
000f0535 l       *ABS*	00000000 C2CREG35
000f0536 l       *ABS*	00000000 C2CREG36
000f0537 l       *ABS*	00000000 C2CREG37
000f0538 l       *ABS*	00000000 C2CREG38
000f0539 l       *ABS*	00000000 C2CREG39
000f053a l       *ABS*	00000000 C2CREG3A
000f053b l       *ABS*	00000000 C2CREG3B
000f053c l       *ABS*	00000000 C2CREG3C
000f053d l       *ABS*	00000000 C2CREG3D
000f053e l       *ABS*	00000000 C2CREG3E
000f053f l       *ABS*	00000000 C2CREG3F
000f0540 l       *ABS*	00000000 C2CREG40
000f0541 l       *ABS*	00000000 C2CREG41
000f0542 l       *ABS*	00000000 C2CREG42
000f0543 l       *ABS*	00000000 C2CREG43
000f0544 l       *ABS*	00000000 C2CREG44
000f0545 l       *ABS*	00000000 C2CREG45
000f0546 l       *ABS*	00000000 C2CREG46
000f0547 l       *ABS*	00000000 C2CREG47
000f0548 l       *ABS*	00000000 C2CREG48
000f0549 l       *ABS*	00000000 C2CREG49
000f054a l       *ABS*	00000000 C2CREG4A
000f054b l       *ABS*	00000000 C2CREG4B
000f054c l       *ABS*	00000000 C2CREG4C
000f054d l       *ABS*	00000000 C2CREG4D
000f054e l       *ABS*	00000000 C2CREG4E
000f054f l       *ABS*	00000000 C2CREG4F
000f0550 l       *ABS*	00000000 C2CREG50
000f0551 l       *ABS*	00000000 C2CREG51
000f0552 l       *ABS*	00000000 C2CREG52
000f0553 l       *ABS*	00000000 C2CREG53
000f0554 l       *ABS*	00000000 C2CREG54
000f0555 l       *ABS*	00000000 C2CREG55
000f0556 l       *ABS*	00000000 C2CREG56
000f0557 l       *ABS*	00000000 C2CREG57
000f0558 l       *ABS*	00000000 C2CREG58
000f0559 l       *ABS*	00000000 C2CREG59
000f055a l       *ABS*	00000000 C2CREG5A
000f055b l       *ABS*	00000000 C2CREG5B
000f055c l       *ABS*	00000000 C2CREG5C
000f055d l       *ABS*	00000000 C2CREG5D
000f055e l       *ABS*	00000000 C2CREG5E
000f055f l       *ABS*	00000000 C2CREG5F
000f0560 l       *ABS*	00000000 C2CREG60
000f0561 l       *ABS*	00000000 C2CREG61
000f0562 l       *ABS*	00000000 C2CREG62
000f0563 l       *ABS*	00000000 C2CREG63
000f0564 l       *ABS*	00000000 C2CREG64
000f0565 l       *ABS*	00000000 C2CREG65
000f0566 l       *ABS*	00000000 C2CREG66
000f0567 l       *ABS*	00000000 C2CREG67
000f0568 l       *ABS*	00000000 C2CREG68
000f0569 l       *ABS*	00000000 C2CREG69
000f056a l       *ABS*	00000000 C2CREG6A
000f056b l       *ABS*	00000000 C2CREG6B
000f056c l       *ABS*	00000000 C2CREG6C
000f056d l       *ABS*	00000000 C2CREG6D
000f056e l       *ABS*	00000000 C2CREG6E
000f056f l       *ABS*	00000000 C2CREG6F
000f0570 l       *ABS*	00000000 C2CREG70
000f0571 l       *ABS*	00000000 C2CREG71
000f0572 l       *ABS*	00000000 C2CREG72
000f0573 l       *ABS*	00000000 C2CREG73
000f0574 l       *ABS*	00000000 C2CREG74
000f0575 l       *ABS*	00000000 C2CREG75
000f0576 l       *ABS*	00000000 C2CREG76
000f0577 l       *ABS*	00000000 C2CREG77
000f0578 l       *ABS*	00000000 C2CREG78
000f0579 l       *ABS*	00000000 C2CREG79
000f057a l       *ABS*	00000000 C2CREG7A
000f057b l       *ABS*	00000000 C2CREG7B
000f057c l       *ABS*	00000000 C2CREG7C
000f057d l       *ABS*	00000000 C2CREG7D
000f057e l       *ABS*	00000000 C2CREG7E
000f057f l       *ABS*	00000000 C2CREG7F
000f06c1 l       *ABS*	00000000 LWBR0
000f06c2 l       *ABS*	00000000 LBRP0
000f06c2 l       *ABS*	00000000 LBRP00
000f06c3 l       *ABS*	00000000 LBRP01
000f06c4 l       *ABS*	00000000 LSTC0
000f06c5 l       *ABS*	00000000 LUSC0
000f06c8 l       *ABS*	00000000 LMD0
000f06c9 l       *ABS*	00000000 LBFC0
000f06ca l       *ABS*	00000000 LSC0
000f06cb l       *ABS*	00000000 LWUP0
000f06cc l       *ABS*	00000000 LIE0
000f06cd l       *ABS*	00000000 LEDE0
000f06ce l       *ABS*	00000000 LCUC0
000f06d0 l       *ABS*	00000000 LTRC0
000f06d1 l       *ABS*	00000000 LMST0
000f06d2 l       *ABS*	00000000 LST0
000f06d3 l       *ABS*	00000000 LEST0
000f06d4 l       *ABS*	00000000 LDFC0
000f06d5 l       *ABS*	00000000 LIDB0
000f06d6 l       *ABS*	00000000 LCBR0
000f06d7 l       *ABS*	00000000 LUDB00
000f06d8 l       *ABS*	00000000 LDB01
000f06d9 l       *ABS*	00000000 LDB02
000f06da l       *ABS*	00000000 LDB03
000f06db l       *ABS*	00000000 LDB04
000f06dc l       *ABS*	00000000 LDB05
000f06dd l       *ABS*	00000000 LDB06
000f06de l       *ABS*	00000000 LDB07
000f06df l       *ABS*	00000000 LDB08
000f06e0 l       *ABS*	00000000 LUOER0
000f06e1 l       *ABS*	00000000 LUOR01
000f06e4 l       *ABS*	00000000 LUTDR0
000f06e4 l       *ABS*	00000000 LUTDR0L
000f06e5 l       *ABS*	00000000 LUTDR0H
000f06e6 l       *ABS*	00000000 LURDR0
000f06e6 l       *ABS*	00000000 LURDR0L
000f06e7 l       *ABS*	00000000 LURDR0H
000f06e8 l       *ABS*	00000000 LUWTDR0
000f06e8 l       *ABS*	00000000 LUWTDR0L
000f06e9 l       *ABS*	00000000 LUWTDR0H
000f06ea l       *ABS*	00000000 LURDE0
000f06ea l       *ABS*	00000000 LURDE0L
000f06eb l       *ABS*	00000000 LURDE0H
000f06f0 l       *ABS*	00000000 TRJ0
000f0720 l       *ABS*	00000000 MONMOD1
000f0721 l       *ABS*	00000000 TRCMA
000f0722 l       *ABS*	00000000 BRKMOD
000f0723 l       *ABS*	00000000 LDSTA
000f0723 l       *ABS*	00000000 SECCHK
000f0789 l       *ABS*	00000000 ADTRGS0
000f078d l       *ABS*	00000000 ADTRGS1
0000ff00 l       *ABS*	00000000 P0_PIO
0000ff20 l       *ABS*	00000000 P0_DIR
00000030 l       *ABS*	00000000 P0_PEN
0000ff01 l       *ABS*	00000000 P1_PIO
0000ff21 l       *ABS*	00000000 P1_DIR
00000031 l       *ABS*	00000000 P1_PEN
0000ffff l       *ABS*	00000000 P2_PIO
0000ffff l       *ABS*	00000000 P2_DIR
0000ffff l       *ABS*	00000000 P2_PEN
0000ff03 l       *ABS*	00000000 P3_PIO
0000ff23 l       *ABS*	00000000 P3_DIR
00000033 l       *ABS*	00000000 P3_PEN
0000ff04 l       *ABS*	00000000 P4_PIO
0000ff24 l       *ABS*	00000000 P4_DIR
00000034 l       *ABS*	00000000 P4_PEN
0000ffff l       *ABS*	00000000 P5_PIO
0000ffff l       *ABS*	00000000 P5_DIR
0000ffff l       *ABS*	00000000 P5_PEN
0000ff06 l       *ABS*	00000000 P6_PIO
0000ff26 l       *ABS*	00000000 P6_DIR
00000036 l       *ABS*	00000000 P6_PEN
0000ff07 l       *ABS*	00000000 P7_PIO
0000ff27 l       *ABS*	00000000 P7_DIR
00000037 l       *ABS*	00000000 P7_PEN
0000ff08 l       *ABS*	00000000 P8_PIO
0000ff28 l       *ABS*	00000000 P8_DIR
0000ffff l       *ABS*	00000000 P8_PEN
0000ff09 l       *ABS*	00000000 P9_PIO
0000ff29 l       *ABS*	00000000 P9_DIR
0000ffff l       *ABS*	00000000 P9_PEN
0000ffff l       *ABS*	00000000 P10_PIO
0000ffff l       *ABS*	00000000 P10_DIR
0000ffff l       *ABS*	00000000 P10_PEN
0000ffff l       *ABS*	00000000 P11_PIO
0000ffff l       *ABS*	00000000 P11_DIR
0000ffff l       *ABS*	00000000 P11_PEN
0000ff0c l       *ABS*	00000000 P12_PIO
0000ff2c l       *ABS*	00000000 P12_DIR
0000003c l       *ABS*	00000000 P12_PEN
0000ff0d l       *ABS*	00000000 P13_PIO
0000ffff l       *ABS*	00000000 P13_DIR
0000ffff l       *ABS*	00000000 P13_PEN
0000ff0e l       *ABS*	00000000 P14_PIO
0000ff2e l       *ABS*	00000000 P14_DIR
0000003e l       *ABS*	00000000 P14_PEN
0000ffff l       *ABS*	00000000 P15_PIO
0000ffff l       *ABS*	00000000 P15_DIR
0000ffff l       *ABS*	00000000 P15_PEN
00000000 l       *ABS*	00000000 PORT_0
00000006 l       *ABS*	00000000 PORT_1
0000000c l       *ABS*	00000000 PORT_3
00000012 l       *ABS*	00000000 PORT_4
00000018 l       *ABS*	00000000 PORT_6
0000001e l       *ABS*	00000000 PORT_7
00000024 l       *ABS*	00000000 PORT_8
0000002a l       *ABS*	00000000 PORT_9
00000030 l       *ABS*	00000000 PORT_12
00000036 l       *ABS*	00000000 PORT_13
0000003c l       *ABS*	00000000 PORT_14
00000152 l       .text	00000000 mystart
0000015d l       .text	00000000 default_handler
00000000 l    df *ABS*	00000000 build/src/main.o
000ffef0 l       *ABS*	00000000 r8
000ffee8 l       *ABS*	00000000 r16
000ffee0 l       *ABS*	00000000 r24
000ffef1 l       *ABS*	00000000 r9
000ffee9 l       *ABS*	00000000 r17
000ffee1 l       *ABS*	00000000 r25
000ffef2 l       *ABS*	00000000 r10
000ffeea l       *ABS*	00000000 r18
000ffee2 l       *ABS*	00000000 r26
000ffef3 l       *ABS*	00000000 r11
000ffeeb l       *ABS*	00000000 r19
000ffee3 l       *ABS*	00000000 r27
000ffef4 l       *ABS*	00000000 r12
000ffeec l       *ABS*	00000000 r20
000ffee4 l       *ABS*	00000000 r28
000ffef5 l       *ABS*	00000000 r13
000ffeed l       *ABS*	00000000 r21
000ffee5 l       *ABS*	00000000 r29
000ffef6 l       *ABS*	00000000 r14
000ffeee l       *ABS*	00000000 r22
000ffee6 l       *ABS*	00000000 r30
000ffef7 l       *ABS*	00000000 r15
000ffeef l       *ABS*	00000000 r23
000ffee7 l       *ABS*	00000000 r31
00000275 l       .text	00000000 .L2
00000225 l       .text	00000000 .L4
00000257 l       .text	00000000 .L8
00000643 l       .text	00000000 .L10
00000653 l       .text	00000000 .L11
00000639 l       .text	00000000 .L13
00000688 l       .text	00000000 .L12
00000000 l    df *ABS*	00000000 build/src/interrupts.o
000ffef0 l       *ABS*	00000000 r8
000ffee8 l       *ABS*	00000000 r16
000ffee0 l       *ABS*	00000000 r24
000ffef1 l       *ABS*	00000000 r9
000ffee9 l       *ABS*	00000000 r17
000ffee1 l       *ABS*	00000000 r25
000ffef2 l       *ABS*	00000000 r10
000ffeea l       *ABS*	00000000 r18
000ffee2 l       *ABS*	00000000 r26
000ffef3 l       *ABS*	00000000 r11
000ffeeb l       *ABS*	00000000 r19
000ffee3 l       *ABS*	00000000 r27
000ffef4 l       *ABS*	00000000 r12
000ffeec l       *ABS*	00000000 r20
000ffee4 l       *ABS*	00000000 r28
000ffef5 l       *ABS*	00000000 r13
000ffeed l       *ABS*	00000000 r21
000ffee5 l       *ABS*	00000000 r29
000ffef6 l       *ABS*	00000000 r14
000ffeee l       *ABS*	00000000 r22
000ffee6 l       *ABS*	00000000 r30
000ffef7 l       *ABS*	00000000 r15
000ffeef l       *ABS*	00000000 r23
000ffee7 l       *ABS*	00000000 r31
00000000 l    df *ABS*	00000000 unilib.o
000ffef0 l       *ABS*	00000000 r8
000ffee8 l       *ABS*	00000000 r16
000ffee0 l       *ABS*	00000000 r24
000ffef1 l       *ABS*	00000000 r9
000ffee9 l       *ABS*	00000000 r17
000ffee1 l       *ABS*	00000000 r25
000ffef2 l       *ABS*	00000000 r10
000ffeea l       *ABS*	00000000 r18
000ffee2 l       *ABS*	00000000 r26
000ffef3 l       *ABS*	00000000 r11
000ffeeb l       *ABS*	00000000 r19
000ffee3 l       *ABS*	00000000 r27
000ffef4 l       *ABS*	00000000 r12
000ffeec l       *ABS*	00000000 r20
000ffee4 l       *ABS*	00000000 r28
000ffef5 l       *ABS*	00000000 r13
000ffeed l       *ABS*	00000000 r21
000ffee5 l       *ABS*	00000000 r29
000ffef6 l       *ABS*	00000000 r14
000ffeee l       *ABS*	00000000 r22
000ffee6 l       *ABS*	00000000 r30
000ffef7 l       *ABS*	00000000 r15
000ffeef l       *ABS*	00000000 r23
000ffee7 l       *ABS*	00000000 r31
000002d4 l       .text	00000000 .L6
000002b0 l       .text	00000000 .L3
0000030b l       .text	00000000 .L8
00000318 l       .text	00000000 .L28
00000369 l       .text	00000000 .L10
00000351 l       .text	00000000 .L11
00000353 l       .text	00000000 .L29
00000356 l       .text	00000000 .L13
000003ab l       .text	00000000 .L14
00000395 l       .text	00000000 .L15
00000398 l       .text	00000000 .L17
000003c9 l       .text	00000000 .L18
000003d3 l       .text	00000000 .L7
00000414 l       .text	00000000 .L37
00000410 l       .text	00000000 .L38
00000402 l       .text	00000000 .L33
000003e0 l       .text	00000000 .L32
00000000 l    df *ABS*	00000000 outchar.o
000ffef0 l       *ABS*	00000000 r8
000ffee8 l       *ABS*	00000000 r16
000ffee0 l       *ABS*	00000000 r24
000ffef1 l       *ABS*	00000000 r9
000ffee9 l       *ABS*	00000000 r17
000ffee1 l       *ABS*	00000000 r25
000ffef2 l       *ABS*	00000000 r10
000ffeea l       *ABS*	00000000 r18
000ffee2 l       *ABS*	00000000 r26
000ffef3 l       *ABS*	00000000 r11
000ffeeb l       *ABS*	00000000 r19
000ffee3 l       *ABS*	00000000 r27
000ffef4 l       *ABS*	00000000 r12
000ffeec l       *ABS*	00000000 r20
000ffee4 l       *ABS*	00000000 r28
000ffef5 l       *ABS*	00000000 r13
000ffeed l       *ABS*	00000000 r21
000ffee5 l       *ABS*	00000000 r29
000ffef6 l       *ABS*	00000000 r14
000ffeee l       *ABS*	00000000 r22
000ffee6 l       *ABS*	00000000 r30
000ffef7 l       *ABS*	00000000 r15
000ffeef l       *ABS*	00000000 r23
000ffee7 l       *ABS*	00000000 r31
00000000 l    df *ABS*	00000000 unilib_portio_asm.o
000004b3 l       .text	00000000 set_pin_done
000004de l       .text	00000000 set_pip_done
000004ff l       .text	00000000 portpin_set_low
00000557 l       .text	00000000 port_set_high
00000568 l       .text	00000000 port_set_low
000005a6 l       .text	00000000 gpl_return0
0000059f l       .text	00000000 gpl_return1
00000000 l    df *ABS*	00000000 unilib_interrupts.o
000ffef0 l       *ABS*	00000000 r8
000ffee8 l       *ABS*	00000000 r16
000ffee0 l       *ABS*	00000000 r24
000ffef1 l       *ABS*	00000000 r9
000ffee9 l       *ABS*	00000000 r17
000ffee1 l       *ABS*	00000000 r25
000ffef2 l       *ABS*	00000000 r10
000ffeea l       *ABS*	00000000 r18
000ffee2 l       *ABS*	00000000 r26
000ffef3 l       *ABS*	00000000 r11
000ffeeb l       *ABS*	00000000 r19
000ffee3 l       *ABS*	00000000 r27
000ffef4 l       *ABS*	00000000 r12
000ffeec l       *ABS*	00000000 r20
000ffee4 l       *ABS*	00000000 r28
000ffef5 l       *ABS*	00000000 r13
000ffeed l       *ABS*	00000000 r21
000ffee5 l       *ABS*	00000000 r29
000ffef6 l       *ABS*	00000000 r14
000ffeee l       *ABS*	00000000 r22
000ffee6 l       *ABS*	00000000 r30
000ffef7 l       *ABS*	00000000 r15
000ffeef l       *ABS*	00000000 r23
000ffee7 l       *ABS*	00000000 r31
000005f7 l       .text	00000000 .L12
00000556 g       .text	00000000 port_set_nibble2
00000421 g     F .text	0000000c disable_interrupts
000004e7 g       .text	00000000 portpin_set_high
000fdf08 g     O .bss	00000002 printf_output
000fdf0c g     O .bss	00000002 unilib_tick_counter
0000045c g     F .text	00000002 OUTPUT_NONE
000006ae g       .text	00000000 etext
000fdf06 g     O .bss	00000002 memptr
00000447 g     F .text	00000006 set_outchar_routine
0000000e g       *ABS*	00000000 _bss_size
00000473 g       .text	00000000 portpin_set_output
000002a8 g     F .text	0000002d unilib_pause
00000489 g       .text	00000000 portpin_set_input_nopull
000fdf02 g     O .bss	00000001 unilib_ints_enabled
000006ae g       .plt	00000000 _data_image
00000108 g       .text	00000000 unilib_and_table
000fdf00 g       .plt	00000000 _data_section_start
000005b6  w    F .text	00000003 isr_pwm3
000003dc g     F .text	00000039 unilib_pause_ms
00000527 g       .text	00000000 port_set_nibble0
000fdf03 g     O .bss	00000001 unilib_cpu_prescaler
00000556 g       .text	00000000 port_set_nibble3
000fdf00 g     O .bss	00000002 unilib_lastclockmode
000002d5 g     F .text	00000107 clock_config
00000589 g       .text	00000000 portpin_get
000005c2  w    F .text	00000003 isr_recv_uart1
00000000 g       *ABS*	00000000 _data_section_size
000005bc  w    F .text	00000003 isr_recv_uart0
00000000 g       .text	00000000 start
0000057b g       .text	00000000 port_get
00000110 g       .text	00000000 unilib_port_table
0000053e g       .text	00000000 port_set_nibble1
000004ff g       .text	00000000 portpin_set_low
000005b3  w    F .text	00000003 isr_pwm2
000004b6 g       .text	00000000 portpin_set_input_pullup
0000042d g     F .text	0000001a OUTPUT_MEMORY
000fdf00 g       .bss	00000000 _bss_start
00000100 g       .text	00000000 unilib_or_table
0000029b g     F .text	0000000d unilib_init
000006ae g       *ABS*	00000000 _data_image_end
000005c8  w    F .text	00000003 isr_ext1
000005cb g     F .text	00000043 _tick_handler
0000045e g     F .text	00000015 set_outchar_memory
0000044d g     F .text	0000000f unilib_outchar
000005ad  w    F .text	00000003 isr_pwm0
00000200 g     F .text	000000aa out_byte
00000517 g       .text	00000000 port_set
000005c5  w    F .text	00000003 isr_ext0
000005b0  w    F .text	00000003 isr_pwm1
000005b9  w    F .text	00000003 isr_uart0_send
000005bf  w    F .text	00000003 isr_uart1_send
00000415 g     F .text	0000000c enable_interrupts
000fdf00 g       .plt	00000000 edata
000fdf04 g     O .bss	00000001 unilib_cpu_freq
000004e1 g       .text	00000000 portpin_set
0000029a g     F .text	00000001 user_tick
0000060b g     F .text	000000b9 main
000fdf0a g     O .bss	00000002 unilib_tick_scale



Disassembly of section .text:

00000000 <start>:
   0:	52 01                         	mov	c, #1
   2:	5d                            	and	a, [hl]
   3:	01                            	addw	ax, ax
   4:	5d                            	and	a, [hl]
   5:	01                            	addw	ax, ax
   6:	5d                            	and	a, [hl]
   7:	01                            	addw	ax, ax
   8:	5d                            	and	a, [hl]
   9:	01                            	addw	ax, ax
   a:	5d                            	and	a, [hl]
   b:	01                            	addw	ax, ax
   c:	5d                            	and	a, [hl]
   d:	01                            	addw	ax, ax
   e:	5d                            	and	a, [hl]
   f:	01                            	addw	ax, ax
  10:	5d                            	and	a, [hl]
  11:	01                            	addw	ax, ax
  12:	c5                            	push	de
  13:	05                            	addw	ax, de
  14:	5d                            	and	a, [hl]
  15:	01                            	addw	ax, ax
  16:	5d                            	and	a, [hl]
  17:	01                            	addw	ax, ax
  18:	5d                            	and	a, [hl]
  19:	01                            	addw	ax, ax
  1a:	5d                            	and	a, [hl]
  1b:	01                            	addw	ax, ax
  1c:	5d                            	and	a, [hl]
  1d:	01                            	addw	ax, ax
  1e:	cb 05 5d 01                   	movw	0xfff05, #349
  22:	b9                            	movw	[de], ax
  23:	05                            	addw	ax, de
  24:	bc 05                         	movw	[hl+5], ax
  26:	5d                            	and	a, [hl]
  27:	01                            	addw	ax, ax
  28:	5d                            	and	a, [hl]
  29:	01                            	addw	ax, ax
  2a:	5d                            	and	a, [hl]
  2b:	01                            	addw	ax, ax
  2c:	ad 05                         	movw	ax, 0xfff05
  2e:	5d                            	and	a, [hl]
  2f:	01                            	addw	ax, ax
  30:	b0 05 5d                      	dec	!f5d05 <ADTRGS1+0x5578>
  33:	01                            	addw	ax, ax
  34:	5d                            	and	a, [hl]
  35:	01                            	addw	ax, ax
  36:	bf 05 c2                      	movw	!fc205 <ADTRGS1+0xba78>, ax
  39:	05                            	addw	ax, de
  3a:	5d                            	and	a, [hl]
  3b:	01                            	addw	ax, ax
  3c:	5d                            	and	a, [hl]
  3d:	01                            	addw	ax, ax
  3e:	5d                            	and	a, [hl]
  3f:	01                            	addw	ax, ax
  40:	5d                            	and	a, [hl]
  41:	01                            	addw	ax, ax
  42:	5d                            	and	a, [hl]
  43:	01                            	addw	ax, ax
  44:	5d                            	and	a, [hl]
  45:	01                            	addw	ax, ax
  46:	5d                            	and	a, [hl]
  47:	01                            	addw	ax, ax
  48:	5d                            	and	a, [hl]
  49:	01                            	addw	ax, ax
  4a:	c8 05 5d                      	mov	[sp+5], #93
  4d:	01                            	addw	ax, ax
  4e:	5d                            	and	a, [hl]
  4f:	01                            	addw	ax, ax
  50:	5d                            	and	a, [hl]
  51:	01                            	addw	ax, ax
  52:	5d                            	and	a, [hl]
  53:	01                            	addw	ax, ax
  54:	5d                            	and	a, [hl]
  55:	01                            	addw	ax, ax
  56:	b3                            	decw	bc
  57:	05                            	addw	ax, de
  58:	5d                            	and	a, [hl]
  59:	01                            	addw	ax, ax
  5a:	b6 05                         	decw	0xfff05
  5c:	5d                            	and	a, [hl]
  5d:	01                            	addw	ax, ax
  5e:	5d                            	and	a, [hl]
  5f:	01                            	addw	ax, ax
  60:	5d                            	and	a, [hl]
  61:	01                            	addw	ax, ax
  62:	5d                            	and	a, [hl]
  63:	01                            	addw	ax, ax
  64:	5d                            	and	a, [hl]
  65:	01                            	addw	ax, ax
  66:	5d                            	and	a, [hl]
  67:	01                            	addw	ax, ax
  68:	5d                            	and	a, [hl]
  69:	01                            	addw	ax, ax
  6a:	5d                            	and	a, [hl]
  6b:	01                            	addw	ax, ax
  6c:	5d                            	and	a, [hl]
  6d:	01                            	addw	ax, ax
  6e:	5d                            	and	a, [hl]
  6f:	01                            	addw	ax, ax
  70:	5d                            	and	a, [hl]
  71:	01                            	addw	ax, ax
  72:	5d                            	and	a, [hl]
  73:	01                            	addw	ax, ax
  74:	5d                            	and	a, [hl]
  75:	01                            	addw	ax, ax
  76:	5d                            	and	a, [hl]
  77:	01                            	addw	ax, ax
  78:	5d                            	and	a, [hl]
  79:	01                            	addw	ax, ax
  7a:	5d                            	and	a, [hl]
  7b:	01                            	addw	ax, ax
  7c:	5d                            	and	a, [hl]
  7d:	01                            	addw	ax, ax
  7e:	5d                            	and	a, [hl]
  7f:	01                            	addw	ax, ax
  80:	5d                            	and	a, [hl]
  81:	01                            	addw	ax, ax
  82:	5d                            	and	a, [hl]
  83:	01                            	addw	ax, ax
  84:	5d                            	and	a, [hl]
  85:	01                            	addw	ax, ax
  86:	5d                            	and	a, [hl]
  87:	01                            	addw	ax, ax
  88:	5d                            	and	a, [hl]
  89:	01                            	addw	ax, ax
  8a:	5d                            	and	a, [hl]
  8b:	01                            	addw	ax, ax
  8c:	5d                            	and	a, [hl]
  8d:	01                            	addw	ax, ax
  8e:	5d                            	and	a, [hl]
  8f:	01                            	addw	ax, ax
  90:	5d                            	and	a, [hl]
  91:	01                            	addw	ax, ax
  92:	5d                            	and	a, [hl]
  93:	01                            	addw	ax, ax
  94:	5d                            	and	a, [hl]
  95:	01                            	addw	ax, ax
  96:	5d                            	and	a, [hl]
  97:	01                            	addw	ax, ax
  98:	5d                            	and	a, [hl]
  99:	01                            	addw	ax, ax
  9a:	5d                            	and	a, [hl]
  9b:	01                            	addw	ax, ax
  9c:	5d                            	and	a, [hl]
  9d:	01                            	addw	ax, ax
  9e:	5d                            	and	a, [hl]
  9f:	01                            	addw	ax, ax
  a0:	5d                            	and	a, [hl]
  a1:	01                            	addw	ax, ax
  a2:	5d                            	and	a, [hl]
  a3:	01                            	addw	ax, ax
  a4:	5d                            	and	a, [hl]
  a5:	01                            	addw	ax, ax
  a6:	5d                            	and	a, [hl]
  a7:	01                            	addw	ax, ax
  a8:	5d                            	and	a, [hl]
  a9:	01                            	addw	ax, ax
  aa:	5d                            	and	a, [hl]
  ab:	01                            	addw	ax, ax
  ac:	5d                            	and	a, [hl]
  ad:	01                            	addw	ax, ax
  ae:	5d                            	and	a, [hl]
  af:	01                            	addw	ax, ax
  b0:	5d                            	and	a, [hl]
  b1:	01                            	addw	ax, ax
  b2:	5d                            	and	a, [hl]
  b3:	01                            	addw	ax, ax
  b4:	5d                            	and	a, [hl]
  b5:	01                            	addw	ax, ax
  b6:	5d                            	and	a, [hl]
  b7:	01                            	addw	ax, ax
  b8:	5d                            	and	a, [hl]
  b9:	01                            	addw	ax, ax
  ba:	5d                            	and	a, [hl]
  bb:	01                            	addw	ax, ax
  bc:	5d                            	and	a, [hl]
  bd:	01                            	addw	ax, ax
  be:	5d                            	and	a, [hl]
  bf:	01                            	addw	ax, ax
  c0:	00                            	nop
  c1:	81                            	inc	a
  c2:	c8 04 00                      	mov	[sp+4], #0
	...

00000100 <unilib_or_table>:
 100:	01                            	addw	ax, ax
 101:	02 04 08                      	addw	ax, !f0804 <ADTRGS1+0x77>
 104:	10 20                         	addw	sp, #32
 106:	40 80 fe fd                   	cmp	!ffe80 <unilib_tick_counter+0x1f74>, #253

00000108 <unilib_and_table>:
 108:	fe fd fb                      	call	$!fffffd08 <PMC+0xffeffd0a>
 10b:	f7                            	clrw	bc
 10c:	ef df                         	br	$ed <P14_PEN+0xaf>
 10e:	bf 7f 00                      	movw	!f007f <PRDSEL+0x1>, ax

00000110 <unilib_port_table>:
 110:	00                            	nop
 111:	ff                            	brk1
 112:	20 ff                         	subw	sp, #255
 114:	30 00 01                      	movw	ax, #256
 117:	ff                            	brk1
 118:	21                            	subw	ax, ax
 119:	ff                            	brk1
 11a:	31 00 03 ff                   	btclr	0xfff03.0, $11d <unilib_port_table+0xd>
 11e:	23                            	subw	ax, bc
 11f:	ff                            	brk1
 120:	33                            	xchw	ax, bc
 121:	00                            	nop
 122:	04 ff 24                      	addw	ax, #0x24ff
 125:	ff                            	brk1
 126:	34 00 06                      	movw	de, #0x600
 129:	ff                            	brk1
 12a:	26 ff                         	subw	ax, 0xffeff
 12c:	36 00 07                      	movw	hl, #0x700
 12f:	ff                            	brk1
 130:	27                            	subw	ax, hl
 131:	ff                            	brk1
 132:	37                            	xchw	ax, hl
 133:	00                            	nop
 134:	08                            	xch	a, x
 135:	ff                            	brk1
 136:	28 ff ff                      	mov	65535[c], a
 139:	ff                            	brk1
 13a:	09 ff 29                      	mov	a, 10751[b]
 13d:	ff                            	brk1
 13e:	ff                            	brk1
 13f:	ff                            	brk1
 140:	0c ff                         	add	a, #255
 142:	2c ff                         	sub	a, #255
 144:	3c 00                         	subc	a, #0
 146:	0d                            	add	a, [hl]
 147:	ff                            	brk1
 148:	ff                            	brk1
 149:	ff                            	brk1
 14a:	ff                            	brk1
 14b:	ff                            	brk1
 14c:	0e ff                         	add	a, [hl+255]
 14e:	2e ff                         	sub	a, [hl+255]
 150:	3e 00                         	subc	a, [hl+0]

00000152 <mystart>:
 152:	cb f8 e0 fe                   	movw	sp, #0xfee0
 156:	61 cf                         	sel	rb0
 158:	41 00                         	mov	es, #0
 15a:	ee ae 04                      	br	$!60b <main>

0000015d <default_handler>:
 15d:	61 fc                         	reti
	...

00000200 <out_byte>:
 200:	61 ef                         	sel	rb2
 202:	c1                            	push	ax
 203:	c3                            	push	bc
 204:	61 cf                         	sel	rb0
 206:	20 04                         	subw	sp, #4
 208:	88 0c                         	mov	a, [sp+12]
 20a:	9d ea                         	mov	0xffeea, a
 20c:	51 12                         	mov	a, #18
 20e:	98 00                         	mov	[sp+0], a
 210:	f1                            	clrb	a
 211:	98 02                         	mov	[sp+2], a
 213:	fd ff 04                      	call	!4ff <portpin_set_low>
 216:	30 12 00                      	movw	ax, #18
 219:	b8 00                         	movw	[sp+0], ax
 21b:	f6                            	clrw	ax
 21c:	b8 02                         	movw	[sp+2], ax
 21e:	fd a8 02                      	call	!2a8 <unilib_pause>
 221:	c9 e8 08 00                   	movw	0xffee8, #8

00000225 <.L4>:
 225:	8d ea                         	mov	a, 0xffeea
 227:	5c 01                         	and	a, #1
 229:	9d f0                         	mov	0xffef0, a
 22b:	51 12                         	mov	a, #18
 22d:	98 00                         	mov	[sp+0], a
 22f:	d4 f0                         	cmp0	0xffef0
 231:	61 f8                         	sknz
 233:	ef 40                         	br	$275 <.L2>
 235:	f1                            	clrb	a
 236:	98 02                         	mov	[sp+2], a
 238:	fd e7 04                      	call	!4e7 <portpin_set_high>
 23b:	8d ea                         	mov	a, 0xffeea
 23d:	31 1a                         	shr	a, 1
 23f:	9d ea                         	mov	0xffeea, a
 241:	30 12 00                      	movw	ax, #18
 244:	b8 00                         	movw	[sp+0], ax
 246:	f6                            	clrw	ax
 247:	b8 02                         	movw	[sp+2], ax
 249:	fd a8 02                      	call	!2a8 <unilib_pause>
 24c:	b6 e8                         	decw	0xffee8
 24e:	ad e8                         	movw	ax, 0xffee8
 250:	44 00 00                      	cmpw	ax, #0
 253:	61 e8                         	skz
 255:	ef ce                         	br	$225 <.L4>

00000257 <.L8>:
 257:	51 12                         	mov	a, #18
 259:	98 00                         	mov	[sp+0], a
 25b:	f1                            	clrb	a
 25c:	98 02                         	mov	[sp+2], a
 25e:	fd e7 04                      	call	!4e7 <portpin_set_high>
 261:	30 64 00                      	movw	ax, #100
 264:	b8 00                         	movw	[sp+0], ax
 266:	f6                            	clrw	ax
 267:	b8 02                         	movw	[sp+2], ax
 269:	fd a8 02                      	call	!2a8 <unilib_pause>
 26c:	10 04                         	addw	sp, #4
 26e:	61 ef                         	sel	rb2
 270:	c2                            	pop	bc
 271:	c0                            	pop	ax
 272:	61 cf                         	sel	rb0
 274:	d7                            	ret

00000275 <.L2>:
 275:	8d f0                         	mov	a, 0xffef0
 277:	98 02                         	mov	[sp+2], a
 279:	fd ff 04                      	call	!4ff <portpin_set_low>
 27c:	8d ea                         	mov	a, 0xffeea
 27e:	31 1a                         	shr	a, 1
 280:	9d ea                         	mov	0xffeea, a
 282:	30 12 00                      	movw	ax, #18
 285:	b8 00                         	movw	[sp+0], ax
 287:	f6                            	clrw	ax
 288:	b8 02                         	movw	[sp+2], ax
 28a:	fd a8 02                      	call	!2a8 <unilib_pause>
 28d:	b6 e8                         	decw	0xffee8
 28f:	ad e8                         	movw	ax, 0xffee8
 291:	44 00 00                      	cmpw	ax, #0
 294:	61 e8                         	skz
 296:	ef 8d                         	br	$225 <.L4>
 298:	ef bd                         	br	$257 <.L8>

0000029a <user_tick>:
 29a:	d7                            	ret

0000029b <unilib_init>:
 29b:	f5 02 df                      	clrb	!fdf02 <unilib_ints_enabled>
 29e:	e5 03 df                      	oneb	!fdf03 <unilib_cpu_prescaler>
 2a1:	30 5c 04                      	movw	ax, #0x45c
 2a4:	bf 08 df                      	movw	!fdf08 <printf_output>, ax
 2a7:	d7                            	ret

000002a8 <unilib_pause>:
 2a8:	a8 04                         	movw	ax, [sp+4]
 2aa:	bd f0                         	movw	0xffef0, ax
 2ac:	a8 06                         	movw	ax, [sp+6]
 2ae:	bd f2                         	movw	0xffef2, ax

000002b0 <.L3>:
 2b0:	ad f2                         	movw	ax, 0xffef2
 2b2:	44 00 00                      	cmpw	ax, #0
 2b5:	ad f0                         	movw	ax, 0xffef0
 2b7:	61 f8                         	sknz
 2b9:	44 00 00                      	cmpw	ax, #0
 2bc:	61 f8                         	sknz
 2be:	ef 14                         	br	$2d4 <.L6>
 2c0:	00                            	nop
 2c1:	ad f0                         	movw	ax, 0xffef0
 2c3:	04 ff ff                      	addw	ax, #0xffff
 2c6:	bd f0                         	movw	0xffef0, ax
 2c8:	ad f2                         	movw	ax, 0xffef2
 2ca:	61 d8                         	sknc
 2cc:	a1                            	incw	ax
 2cd:	04 ff ff                      	addw	ax, #0xffff
 2d0:	bd f2                         	movw	0xffef2, ax
 2d2:	ef dc                         	br	$2b0 <.L3>

000002d4 <.L6>:
 2d4:	d7                            	ret

000002d5 <clock_config>:
 2d5:	61 ef                         	sel	rb2
 2d7:	c1                            	push	ax
 2d8:	c3                            	push	bc
 2d9:	61 cf                         	sel	rb0
 2db:	20 04                         	subw	sp, #4
 2dd:	a8 0c                         	movw	ax, [sp+12]
 2df:	bd e8                         	movw	0xffee8, ax
 2e1:	8f 04 df                      	mov	a, !fdf04 <unilib_cpu_freq>
 2e4:	8f c5 02                      	mov	a, !f02c5 <PLLCTL>
 2e7:	5c fb                         	and	a, #251
 2e9:	9f c5 02                      	mov	!f02c5 <PLLCTL>, a
 2ec:	f5 a4 ff                      	clrb	!fffa4 <CKC>
 2ef:	8d e8                         	mov	a, 0xffee8
 2f1:	5c 20                         	and	a, #32
 2f3:	9d ea                         	mov	0xffeea, a
 2f5:	f1                            	clrb	a
 2f6:	9d eb                         	mov	0xffeeb, a
 2f8:	ad ea                         	movw	ax, 0xffeea
 2fa:	44 00 00                      	cmpw	ax, #0
 2fd:	61 f8                         	sknz
 2ff:	ef 0a                         	br	$30b <.L8>
 301:	8f a1 ff                      	mov	a, !fffa1 <CSC>
 304:	9d f0                         	mov	0xffef0, a
 306:	5a f0 fe                      	and	0xffef0, #254
 309:	ef 0d                         	br	$318 <.L28>

0000030b <.L8>:
 30b:	51 40                         	mov	a, #64
 30d:	9f a0 ff                      	mov	!fffa0 <CMC>, a
 310:	8f a1 ff                      	mov	a, !fffa1 <CSC>
 313:	9d f0                         	mov	0xffef0, a
 315:	5a f0 7f                      	and	0xffef0, #127

00000318 <.L28>:
 318:	8d f0                         	mov	a, 0xffef0
 31a:	9f a1 ff                      	mov	!fffa1 <CSC>, a
 31d:	30 e8 03                      	movw	ax, #0x3e8
 320:	b8 00                         	movw	[sp+0], ax
 322:	f6                            	clrw	ax
 323:	b8 02                         	movw	[sp+2], ax
 325:	fd a8 02                      	call	!2a8 <unilib_pause>
 328:	8d e8                         	mov	a, 0xffee8
 32a:	5c 80                         	and	a, #128
 32c:	9d f0                         	mov	0xffef0, a
 32e:	f1                            	clrb	a
 32f:	9d f1                         	mov	0xffef1, a
 331:	ad f0                         	movw	ax, 0xffef0
 333:	44 00 00                      	cmpw	ax, #0
 336:	61 f8                         	sknz
 338:	ef 2f                         	br	$369 <.L10>
 33a:	8d e8                         	mov	a, 0xffee8
 33c:	5c 10                         	and	a, #16
 33e:	9d f2                         	mov	0xffef2, a
 340:	8d f1                         	mov	a, 0xffef1
 342:	9d f3                         	mov	0xffef3, a
 344:	ad f2                         	movw	ax, 0xffef2
 346:	44 00 00                      	cmpw	ax, #0
 349:	61 f8                         	sknz
 34b:	ef 04                         	br	$351 <.L11>
 34d:	51 13                         	mov	a, #19
 34f:	ef 02                         	br	$353 <.L29>

00000351 <.L11>:
 351:	51 11                         	mov	a, #17

00000353 <.L29>:
 353:	9f c5 02                      	mov	!f02c5 <PLLCTL>, a

00000356 <.L13>:
 356:	8f c6 02                      	mov	a, !f02c6 <PLLSTS>
 359:	4c 00                         	cmp	a, #0
 35b:	71 ff                         	xor1	cy, a.7
 35d:	61 c8                         	skc
 35f:	ef f5                         	br	$356 <.L13>
 361:	8f c5 02                      	mov	a, !f02c5 <PLLCTL>
 364:	6c 04                         	or	a, #4
 366:	9f c5 02                      	mov	!f02c5 <PLLCTL>, a

00000369 <.L10>:
 369:	8d e8                         	mov	a, 0xffee8
 36b:	5c 40                         	and	a, #64
 36d:	9d f0                         	mov	0xffef0, a
 36f:	f1                            	clrb	a
 370:	9d f1                         	mov	0xffef1, a
 372:	ad f0                         	movw	ax, 0xffef0
 374:	44 00 00                      	cmpw	ax, #0
 377:	61 f8                         	sknz
 379:	ef 30                         	br	$3ab <.L14>
 37b:	8d e8                         	mov	a, 0xffee8
 37d:	5c 10                         	and	a, #16
 37f:	9d f2                         	mov	0xffef2, a
 381:	8d f1                         	mov	a, 0xffef1
 383:	9d f3                         	mov	0xffef3, a
 385:	ad f2                         	movw	ax, 0xffef2
 387:	44 00 00                      	cmpw	ax, #0
 38a:	61 f8                         	sknz
 38c:	ef 07                         	br	$395 <.L15>
 38e:	51 03                         	mov	a, #3
 390:	9f c5 02                      	mov	!f02c5 <PLLCTL>, a
 393:	ef 03                         	br	$398 <.L17>

00000395 <.L15>:
 395:	e5 c5 02                      	oneb	!f02c5 <PLLCTL>

00000398 <.L17>:
 398:	8f c6 02                      	mov	a, !f02c6 <PLLSTS>
 39b:	4c 00                         	cmp	a, #0
 39d:	71 ff                         	xor1	cy, a.7
 39f:	61 c8                         	skc
 3a1:	ef f5                         	br	$398 <.L17>
 3a3:	8f c5 02                      	mov	a, !f02c5 <PLLCTL>
 3a6:	6c 04                         	or	a, #4
 3a8:	9f c5 02                      	mov	!f02c5 <PLLCTL>, a

000003ab <.L14>:
 3ab:	5a e8 03                      	and	0xffee8, #3
 3ae:	8d e8                         	mov	a, 0xffee8
 3b0:	9f c7 02                      	mov	!f02c7 <MDIV>, a
 3b3:	ad ea                         	movw	ax, 0xffeea
 3b5:	44 00 00                      	cmpw	ax, #0
 3b8:	61 f8                         	sknz
 3ba:	ef 0d                         	br	$3c9 <.L18>
 3bc:	f5 a4 ff                      	clrb	!fffa4 <CKC>
 3bf:	51 c0                         	mov	a, #192
 3c1:	9f a1 ff                      	mov	!fffa1 <CSC>, a
 3c4:	f5 a0 ff                      	clrb	!fffa0 <CMC>
 3c7:	ef 0a                         	br	$3d3 <.L7>

000003c9 <.L18>:
 3c9:	51 10                         	mov	a, #16
 3cb:	9f a4 ff                      	mov	!fffa4 <CKC>, a
 3ce:	51 41                         	mov	a, #65
 3d0:	9f a1 ff                      	mov	!fffa1 <CSC>, a

000003d3 <.L7>:
 3d3:	10 04                         	addw	sp, #4
 3d5:	61 ef                         	sel	rb2
 3d7:	c2                            	pop	bc
 3d8:	c0                            	pop	ax
 3d9:	61 cf                         	sel	rb0
 3db:	d7                            	ret

000003dc <unilib_pause_ms>:
 3dc:	a8 04                         	movw	ax, [sp+4]
 3de:	bd f4                         	movw	0xffef4, ax

000003e0 <.L32>:
 3e0:	ad f4                         	movw	ax, 0xffef4
 3e2:	44 00 00                      	cmpw	ax, #0
 3e5:	61 f8                         	sknz
 3e7:	ef 2b                         	br	$414 <.L37>
 3e9:	8f 04 df                      	mov	a, !fdf04 <unilib_cpu_freq>
 3ec:	70                            	mov	x, a
 3ed:	51 00                         	mov	a, #0
 3ef:	bd f6                         	movw	0xffef6, ax
 3f1:	01                            	addw	ax, ax
 3f2:	06 f6                         	addw	ax, 0xffef6
 3f4:	bd f2                         	movw	0xffef2, ax
 3f6:	31 5d                         	shlw	ax, 5
 3f8:	bd f0                         	movw	0xffef0, ax
 3fa:	ad f2                         	movw	ax, 0xffef2
 3fc:	06 f0                         	addw	ax, 0xffef0
 3fe:	06 f6                         	addw	ax, 0xffef6
 400:	bd f0                         	movw	0xffef0, ax

00000402 <.L33>:
 402:	ad f0                         	movw	ax, 0xffef0
 404:	44 00 00                      	cmpw	ax, #0
 407:	61 f8                         	sknz
 409:	ef 05                         	br	$410 <.L38>
 40b:	00                            	nop
 40c:	b6 f0                         	decw	0xffef0
 40e:	ef f2                         	br	$402 <.L33>

00000410 <.L38>:
 410:	b6 f4                         	decw	0xffef4
 412:	ef cc                         	br	$3e0 <.L32>

00000414 <.L37>:
 414:	d7                            	ret

00000415 <enable_interrupts>:
 415:	71 7a fa                      	ei
 418:	e5 02 df                      	oneb	!fdf02 <unilib_ints_enabled>
 41b:	51 fe                         	mov	a, #254
 41d:	9f 7c 00                      	mov	!f007c <INTMSK>, a
 420:	d7                            	ret

00000421 <disable_interrupts>:
 421:	71 7b fa                      	di
 424:	f5 02 df                      	clrb	!fdf02 <unilib_ints_enabled>
 427:	51 ff                         	mov	a, #255
 429:	9f 7c 00                      	mov	!f007c <INTMSK>, a
 42c:	d7                            	ret

0000042d <OUTPUT_MEMORY>:
 42d:	af 06 df                      	movw	ax, !fdf06 <memptr>
 430:	bd f0                         	movw	0xffef0, ax
 432:	a1                            	incw	ax
 433:	bf 06 df                      	movw	!fdf06 <memptr>, ax
 436:	ad f0                         	movw	ax, 0xffef0
 438:	12                            	movw	bc, ax
 439:	88 04                         	mov	a, [sp+4]
 43b:	48 00 00                      	mov	0[bc], a
 43e:	af 06 df                      	movw	ax, !fdf06 <memptr>
 441:	12                            	movw	bc, ax
 442:	f1                            	clrb	a
 443:	48 00 00                      	mov	0[bc], a
 446:	d7                            	ret

00000447 <set_outchar_routine>:
 447:	a8 04                         	movw	ax, [sp+4]
 449:	bf 08 df                      	movw	!fdf08 <printf_output>, ax
 44c:	d7                            	ret

0000044d <unilib_outchar>:
 44d:	20 02                         	subw	sp, #2
 44f:	88 06                         	mov	a, [sp+6]
 451:	98 00                         	mov	[sp+0], a
 453:	af 08 df                      	movw	ax, !fdf08 <printf_output>
 456:	12                            	movw	bc, ax
 457:	61 da                         	call	bc
 459:	10 02                         	addw	sp, #2
 45b:	d7                            	ret

0000045c <OUTPUT_NONE>:
 45c:	00                            	nop
 45d:	d7                            	ret

0000045e <set_outchar_memory>:
 45e:	a8 04                         	movw	ax, [sp+4]
 460:	bd f0                         	movw	0xffef0, ax
 462:	30 2d 04                      	movw	ax, #0x42d
 465:	bf 08 df                      	movw	!fdf08 <printf_output>, ax
 468:	ad f0                         	movw	ax, 0xffef0
 46a:	bf 06 df                      	movw	!fdf06 <memptr>, ax
 46d:	12                            	movw	bc, ax
 46e:	f1                            	clrb	a
 46f:	48 00 00                      	mov	0[bc], a
 472:	d7                            	ret

00000473 <portpin_set_output>:
 473:	c3                            	push	bc
 474:	88 06                         	mov	a, [sp+6]
 476:	72                            	mov	c, a
 477:	11 69 12 01                   	movw	ax, es:274[c]
 47b:	16                            	movw	hl, ax
 47c:	88 08                         	mov	a, [sp+8]
 47e:	5c 07                         	and	a, #7
 480:	72                            	mov	c, a
 481:	11 29 08 01                   	mov	a, es:264[c]
 485:	5d                            	and	a, [hl]
 486:	9b                            	mov	[hl], a
 487:	c2                            	pop	bc
 488:	d7                            	ret

00000489 <portpin_set_input_nopull>:
 489:	c3                            	push	bc
 48a:	c7                            	push	hl
 48b:	88 08                         	mov	a, [sp+8]
 48d:	72                            	mov	c, a
 48e:	11 69 12 01                   	movw	ax, es:274[c]
 492:	16                            	movw	hl, ax
 493:	88 0a                         	mov	a, [sp+10]
 495:	5c 07                         	and	a, #7
 497:	72                            	mov	c, a
 498:	11 29 00 01                   	mov	a, es:256[c]
 49c:	9d f0                         	mov	0xffef0, a
 49e:	6d                            	or	a, [hl]
 49f:	9b                            	mov	[hl], a
 4a0:	88 08                         	mov	a, [sp+8]
 4a2:	72                            	mov	c, a
 4a3:	11 69 14 01                   	movw	ax, es:276[c]
 4a7:	44 ff ff                      	cmpw	ax, #0xffff
 4aa:	dd 07                         	bz	$4b3 <set_pin_done>
 4ac:	16                            	movw	hl, ax
 4ad:	8d f0                         	mov	a, 0xffef0
 4af:	7c ff                         	xor	a, #255
 4b1:	5d                            	and	a, [hl]
 4b2:	9b                            	mov	[hl], a

000004b3 <set_pin_done>:
 4b3:	c6                            	pop	hl
 4b4:	c2                            	pop	bc
 4b5:	d7                            	ret

000004b6 <portpin_set_input_pullup>:
 4b6:	c3                            	push	bc
 4b7:	c7                            	push	hl
 4b8:	88 08                         	mov	a, [sp+8]
 4ba:	72                            	mov	c, a
 4bb:	11 69 12 01                   	movw	ax, es:274[c]
 4bf:	16                            	movw	hl, ax
 4c0:	88 0a                         	mov	a, [sp+10]
 4c2:	5c 07                         	and	a, #7
 4c4:	72                            	mov	c, a
 4c5:	11 29 00 01                   	mov	a, es:256[c]
 4c9:	9d f0                         	mov	0xffef0, a
 4cb:	6d                            	or	a, [hl]
 4cc:	9b                            	mov	[hl], a
 4cd:	88 08                         	mov	a, [sp+8]
 4cf:	72                            	mov	c, a
 4d0:	11 69 14 01                   	movw	ax, es:276[c]
 4d4:	44 ff ff                      	cmpw	ax, #0xffff
 4d7:	dd 05                         	bz	$4de <set_pip_done>
 4d9:	16                            	movw	hl, ax
 4da:	8d f0                         	mov	a, 0xffef0
 4dc:	6d                            	or	a, [hl]
 4dd:	9b                            	mov	[hl], a

000004de <set_pip_done>:
 4de:	c6                            	pop	hl
 4df:	c2                            	pop	bc
 4e0:	d7                            	ret

000004e1 <portpin_set>:
 4e1:	88 08                         	mov	a, [sp+8]
 4e3:	4c 00                         	cmp	a, #0
 4e5:	dd 18                         	bz	$4ff <portpin_set_low>

000004e7 <portpin_set_high>:
 4e7:	c3                            	push	bc
 4e8:	c7                            	push	hl
 4e9:	88 08                         	mov	a, [sp+8]
 4eb:	72                            	mov	c, a
 4ec:	11 69 10 01                   	movw	ax, es:272[c]
 4f0:	16                            	movw	hl, ax
 4f1:	88 0a                         	mov	a, [sp+10]
 4f3:	5c 07                         	and	a, #7
 4f5:	72                            	mov	c, a
 4f6:	11 29 00 01                   	mov	a, es:256[c]
 4fa:	6d                            	or	a, [hl]
 4fb:	9b                            	mov	[hl], a
 4fc:	c6                            	pop	hl
 4fd:	c2                            	pop	bc
 4fe:	d7                            	ret

000004ff <portpin_set_low>:
 4ff:	c3                            	push	bc
 500:	c7                            	push	hl
 501:	88 08                         	mov	a, [sp+8]
 503:	72                            	mov	c, a
 504:	11 69 10 01                   	movw	ax, es:272[c]
 508:	16                            	movw	hl, ax
 509:	88 0a                         	mov	a, [sp+10]
 50b:	5c 07                         	and	a, #7
 50d:	72                            	mov	c, a
 50e:	11 29 08 01                   	mov	a, es:264[c]
 512:	5d                            	and	a, [hl]
 513:	9b                            	mov	[hl], a
 514:	c6                            	pop	hl
 515:	c2                            	pop	bc
 516:	d7                            	ret

00000517 <port_set>:
 517:	c3                            	push	bc
 518:	c7                            	push	hl
 519:	88 08                         	mov	a, [sp+8]
 51b:	72                            	mov	c, a
 51c:	11 69 10 01                   	movw	ax, es:272[c]
 520:	16                            	movw	hl, ax
 521:	88 0a                         	mov	a, [sp+10]
 523:	9b                            	mov	[hl], a
 524:	c6                            	pop	hl
 525:	c2                            	pop	bc
 526:	d7                            	ret

00000527 <port_set_nibble0>:
 527:	c3                            	push	bc
 528:	c7                            	push	hl
 529:	88 08                         	mov	a, [sp+8]
 52b:	72                            	mov	c, a
 52c:	11 69 10 01                   	movw	ax, es:272[c]
 530:	16                            	movw	hl, ax
 531:	8b                            	mov	a, [hl]
 532:	5c f0                         	and	a, #240
 534:	9b                            	mov	[hl], a
 535:	88 0a                         	mov	a, [sp+10]
 537:	5c 0f                         	and	a, #15
 539:	0d                            	add	a, [hl]
 53a:	9b                            	mov	[hl], a
 53b:	c6                            	pop	hl
 53c:	c2                            	pop	bc
 53d:	d7                            	ret

0000053e <port_set_nibble1>:
 53e:	c3                            	push	bc
 53f:	c7                            	push	hl
 540:	88 08                         	mov	a, [sp+8]
 542:	72                            	mov	c, a
 543:	11 69 10 01                   	movw	ax, es:272[c]
 547:	16                            	movw	hl, ax
 548:	8b                            	mov	a, [hl]
 549:	5c 0f                         	and	a, #15
 54b:	9b                            	mov	[hl], a
 54c:	88 0a                         	mov	a, [sp+10]
 54e:	31 49                         	shl	a, 4
 550:	5c f0                         	and	a, #240
 552:	0d                            	add	a, [hl]
 553:	9b                            	mov	[hl], a
 554:	c6                            	pop	hl
 555:	c2                            	pop	bc

00000556 <port_set_nibble2>:
 556:	d7                            	ret

00000557 <port_set_high>:
 557:	c3                            	push	bc
 558:	c7                            	push	hl
 559:	88 08                         	mov	a, [sp+8]
 55b:	72                            	mov	c, a
 55c:	11 69 10 01                   	movw	ax, es:272[c]
 560:	16                            	movw	hl, ax
 561:	88 0a                         	mov	a, [sp+10]
 563:	6d                            	or	a, [hl]
 564:	9b                            	mov	[hl], a
 565:	c6                            	pop	hl
 566:	c2                            	pop	bc
 567:	d7                            	ret

00000568 <port_set_low>:
 568:	c3                            	push	bc
 569:	c7                            	push	hl
 56a:	88 08                         	mov	a, [sp+8]
 56c:	72                            	mov	c, a
 56d:	11 69 10 01                   	movw	ax, es:272[c]
 571:	16                            	movw	hl, ax
 572:	88 0a                         	mov	a, [sp+10]
 574:	7c ff                         	xor	a, #255
 576:	5d                            	and	a, [hl]
 577:	9b                            	mov	[hl], a
 578:	c6                            	pop	hl
 579:	c2                            	pop	bc
 57a:	d7                            	ret

0000057b <port_get>:
 57b:	c3                            	push	bc
 57c:	c7                            	push	hl
 57d:	88 08                         	mov	a, [sp+8]
 57f:	72                            	mov	c, a
 580:	11 69 10 01                   	movw	ax, es:272[c]
 584:	16                            	movw	hl, ax
 585:	8b                            	mov	a, [hl]
 586:	c6                            	pop	hl
 587:	c2                            	pop	bc
 588:	d7                            	ret

00000589 <portpin_get>:
 589:	c3                            	push	bc
 58a:	c7                            	push	hl
 58b:	88 08                         	mov	a, [sp+8]
 58d:	72                            	mov	c, a
 58e:	11 69 10 01                   	movw	ax, es:272[c]
 592:	16                            	movw	hl, ax
 593:	88 0a                         	mov	a, [sp+10]
 595:	5c 07                         	and	a, #7
 597:	72                            	mov	c, a
 598:	11 29 00 01                   	mov	a, es:256[c]
 59c:	5d                            	and	a, [hl]
 59d:	dd 07                         	bz	$5a6 <gpl_return0>

0000059f <gpl_return1>:
 59f:	51 01                         	mov	a, #1
 5a1:	9d f0                         	mov	0xffef0, a
 5a3:	c6                            	pop	hl
 5a4:	c2                            	pop	bc
 5a5:	d7                            	ret

000005a6 <gpl_return0>:
 5a6:	51 00                         	mov	a, #0
 5a8:	9d f0                         	mov	0xffef0, a
 5aa:	c6                            	pop	hl
 5ab:	c2                            	pop	bc
 5ac:	d7                            	ret

000005ad <isr_pwm0>:
 5ad:	61 fc                         	reti
 5af:	d7                            	ret

000005b0 <isr_pwm1>:
 5b0:	61 fc                         	reti
 5b2:	d7                            	ret

000005b3 <isr_pwm2>:
 5b3:	61 fc                         	reti
 5b5:	d7                            	ret

000005b6 <isr_pwm3>:
 5b6:	61 fc                         	reti
 5b8:	d7                            	ret

000005b9 <isr_uart0_send>:
 5b9:	61 fc                         	reti
 5bb:	d7                            	ret

000005bc <isr_recv_uart0>:
 5bc:	61 fc                         	reti
 5be:	d7                            	ret

000005bf <isr_uart1_send>:
 5bf:	61 fc                         	reti
 5c1:	d7                            	ret

000005c2 <isr_recv_uart1>:
 5c2:	61 fc                         	reti
 5c4:	d7                            	ret

000005c5 <isr_ext0>:
 5c5:	61 fc                         	reti
 5c7:	d7                            	ret

000005c8 <isr_ext1>:
 5c8:	61 fc                         	reti
 5ca:	d7                            	ret

000005cb <_tick_handler>:
 5cb:	61 cf                         	sel	rb0
 5cd:	c1                            	push	ax
 5ce:	c3                            	push	bc
 5cf:	c5                            	push	de
 5d0:	c7                            	push	hl
 5d1:	61 df                         	sel	rb1
 5d3:	c1                            	push	ax
 5d4:	c3                            	push	bc
 5d5:	c5                            	push	de
 5d6:	c7                            	push	hl
 5d7:	61 ef                         	sel	rb2
 5d9:	c7                            	push	hl
 5da:	61 cf                         	sel	rb0
 5dc:	51 21                         	mov	a, #33
 5de:	9f 40 02                      	mov	!f0240 <TRJCR0>, a
 5e1:	af 0c df                      	movw	ax, !fdf0c <unilib_tick_counter>
 5e4:	44 00 00                      	cmpw	ax, #0
 5e7:	61 f8                         	sknz
 5e9:	ef 0c                         	br	$5f7 <.L12>
 5eb:	af 0c df                      	movw	ax, !fdf0c <unilib_tick_counter>
 5ee:	bd f0                         	movw	0xffef0, ax
 5f0:	b6 f0                         	decw	0xffef0
 5f2:	ad f0                         	movw	ax, 0xffef0
 5f4:	bf 0c df                      	movw	!fdf0c <unilib_tick_counter>, ax

000005f7 <.L12>:
 5f7:	fd 9a 02                      	call	!29a <user_tick>
 5fa:	61 ef                         	sel	rb2
 5fc:	c6                            	pop	hl
 5fd:	61 df                         	sel	rb1
 5ff:	c6                            	pop	hl
 600:	c4                            	pop	de
 601:	c2                            	pop	bc
 602:	c0                            	pop	ax
 603:	61 cf                         	sel	rb0
 605:	c6                            	pop	hl
 606:	c4                            	pop	de
 607:	c2                            	pop	bc
 608:	c0                            	pop	ax
 609:	61 fc                         	reti

0000060b <main>:
 60b:	61 ef                         	sel	rb2
 60d:	c1                            	push	ax
 60e:	c3                            	push	bc
 60f:	61 cf                         	sel	rb0
 611:	20 04                         	subw	sp, #4
 613:	fd 9b 02                      	call	!29b <unilib_init>
 616:	51 12                         	mov	a, #18
 618:	98 00                         	mov	[sp+0], a
 61a:	f1                            	clrb	a
 61b:	98 02                         	mov	[sp+2], a
 61d:	fd 73 04                      	call	!473 <portpin_set_output>
 620:	51 12                         	mov	a, #18
 622:	98 00                         	mov	[sp+0], a
 624:	f1                            	clrb	a
 625:	98 02                         	mov	[sp+2], a
 627:	fd e7 04                      	call	!4e7 <portpin_set_high>
 62a:	30 31 10                      	movw	ax, #0x1031
 62d:	b8 00                         	movw	[sp+0], ax
 62f:	fd d5 02                      	call	!2d5 <clock_config>
 632:	e5 90 00                      	oneb	!f0090 <DFLCTL>
 635:	c9 ea 00 10                   	movw	0xffeea, #0x1000

00000639 <.L13>:
 639:	51 12                         	mov	a, #18
 63b:	98 00                         	mov	[sp+0], a
 63d:	f1                            	clrb	a
 63e:	98 02                         	mov	[sp+2], a
 640:	fd b6 04                      	call	!4b6 <portpin_set_input_pullup>

00000643 <.L10>:
 643:	51 12                         	mov	a, #18
 645:	98 00                         	mov	[sp+0], a
 647:	f1                            	clrb	a
 648:	98 02                         	mov	[sp+2], a
 64a:	fd 89 05                      	call	!589 <portpin_get>
 64d:	d4 f0                         	cmp0	0xffef0
 64f:	61 e8                         	skz
 651:	ef f0                         	br	$643 <.L10>

00000653 <.L11>:
 653:	51 12                         	mov	a, #18
 655:	98 00                         	mov	[sp+0], a
 657:	f1                            	clrb	a
 658:	98 02                         	mov	[sp+2], a
 65a:	fd 89 05                      	call	!589 <portpin_get>
 65d:	d4 f0                         	cmp0	0xffef0
 65f:	61 f8                         	sknz
 661:	ef f0                         	br	$653 <.L11>
 663:	30 05 00                      	movw	ax, #5
 666:	b8 00                         	movw	[sp+0], ax
 668:	fd dc 03                      	call	!3dc <unilib_pause_ms>
 66b:	51 12                         	mov	a, #18
 66d:	98 00                         	mov	[sp+0], a
 66f:	f1                            	clrb	a
 670:	98 02                         	mov	[sp+2], a
 672:	fd e7 04                      	call	!4e7 <portpin_set_high>
 675:	51 12                         	mov	a, #18
 677:	98 00                         	mov	[sp+0], a
 679:	f1                            	clrb	a
 67a:	98 02                         	mov	[sp+2], a
 67c:	fd 73 04                      	call	!473 <portpin_set_output>
 67f:	ad ea                         	movw	ax, 0xffeea
 681:	bd e8                         	movw	0xffee8, ax
 683:	04 00 08                      	addw	ax, #0x800
 686:	bd ea                         	movw	0xffeea, ax

00000688 <.L12>:
 688:	fa e8                         	movw	hl, 0xffee8
 68a:	8b                            	mov	a, [hl]
 68b:	98 00                         	mov	[sp+0], a
 68d:	fd 00 02                      	call	!200 <out_byte>
 690:	a6 e8                         	incw	0xffee8
 692:	ad ea                         	movw	ax, 0xffeea
 694:	46 e8                         	cmpw	ax, 0xffee8
 696:	61 f8                         	sknz
 698:	ef 9f                         	br	$639 <.L13>
 69a:	fa e8                         	movw	hl, 0xffee8
 69c:	8b                            	mov	a, [hl]
 69d:	98 00                         	mov	[sp+0], a
 69f:	fd 00 02                      	call	!200 <out_byte>
 6a2:	a6 e8                         	incw	0xffee8
 6a4:	ad ea                         	movw	ax, 0xffeea
 6a6:	46 e8                         	cmpw	ax, 0xffee8
 6a8:	61 e8                         	skz
 6aa:	ef dc                         	br	$688 <.L12>
 6ac:	ef 8b                         	br	$639 <.L13>
