
rl78-dump-flash.elf:     file format elf32-rl78
rl78-dump-flash.elf
architecture: rl78, flags 0x00000112:
EXEC_P, HAS_SYMS, D_PAGED
start address 0x00000000

Program Header:
    LOAD off    0x00001000 vaddr 0x00000000 paddr 0x00000000 align 2**12
         filesz 0x00000766 memsz 0x00000766 flags r-x
    LOAD off    0x00001b00 vaddr 0x000ffb00 paddr 0x000ffb00 align 2**12
         filesz 0x00000000 memsz 0x0000000e flags rw-
private flags = 0x0:

Sections:
Idx Name          Size      VMA       LMA       File off  Algn
  0 .text         00000766  00000000  00000000  00001000  2**8
                  CONTENTS, ALLOC, LOAD, READONLY, CODE
  1 .plt          00000000  00000766  00000766  00001766  2**1
                  CONTENTS, ALLOC, LOAD, READONLY, CODE
  2 .bss          0000000e  000ffb00  000ffb00  00001b00  2**1
                  ALLOC
SYMBOL TABLE:
00000000 l    d  .text	00000000 .text
00000766 l    d  .plt	00000000 .plt
000ffb00 l    d  .bss	00000000 .bss
00000000 l    df *ABS*	00000000 vectors.o
000fff01 l       *ABS*	00000000 P1
000fff03 l       *ABS*	00000000 P3
000fff04 l       *ABS*	00000000 P4
000fff08 l       *ABS*	00000000 P8
000fff0c l       *ABS*	00000000 P12
000fff0d l       *ABS*	00000000 P13
000fff10 l       *ABS*	00000000 SDR00
000fff10 l       *ABS*	00000000 SDR00L
000fff12 l       *ABS*	00000000 SDR01
000fff12 l       *ABS*	00000000 SDR01L
000fff18 l       *ABS*	00000000 TDR00
000fff1a l       *ABS*	00000000 TDR01
000fff1a l       *ABS*	00000000 TDR01L
000fff1b l       *ABS*	00000000 TDR01H
000fff1e l       *ABS*	00000000 ADCR
000fff1f l       *ABS*	00000000 ADCRH
000fff21 l       *ABS*	00000000 PM1
000fff23 l       *ABS*	00000000 PM3
000fff24 l       *ABS*	00000000 PM4
000fff28 l       *ABS*	00000000 PM8
000fff2c l       *ABS*	00000000 PM12
000fff30 l       *ABS*	00000000 ADM0
00000000 l       *ABS*	00000000 ADM0_ADCE
00000007 l       *ABS*	00000000 ADM0_ADCS
000fff31 l       *ABS*	00000000 ADS
000fff32 l       *ABS*	00000000 ADM1
000fff37 l       *ABS*	00000000 KRM
000fff38 l       *ABS*	00000000 EGP0
000fff39 l       *ABS*	00000000 EGN0
000fff3a l       *ABS*	00000000 EGP1
000fff3b l       *ABS*	00000000 EGN1
000fff54 l       *ABS*	00000000 SUBCUDW
000fff58 l       *ABS*	00000000 TRDGRC0
000fff5a l       *ABS*	00000000 TRDGRD0
000fff5c l       *ABS*	00000000 TRDGRC1
000fff5e l       *ABS*	00000000 TRDGRD1
000fff64 l       *ABS*	00000000 TDR02
000fff66 l       *ABS*	00000000 TDR03
000fff66 l       *ABS*	00000000 TDR03L
000fff67 l       *ABS*	00000000 TDR03H
000fff68 l       *ABS*	00000000 TDR04
000fff6a l       *ABS*	00000000 TDR05
000fff6c l       *ABS*	00000000 TDR06
000fff6e l       *ABS*	00000000 TDR07
000fff80 l       *ABS*	00000000 FLPMC
000fff81 l       *ABS*	00000000 FLARS
000fff82 l       *ABS*	00000000 FLAPL
000fff84 l       *ABS*	00000000 FLAPH
000fff85 l       *ABS*	00000000 FSSQ
00000006 l       *ABS*	00000000 FSSQ_FSSTP
00000007 l       *ABS*	00000000 FSSQ_SQST
000fff86 l       *ABS*	00000000 FLSEDL
000fff88 l       *ABS*	00000000 FLSEDH
000fff89 l       *ABS*	00000000 FLRST
000fff8a l       *ABS*	00000000 FSASTL
000fff8b l       *ABS*	00000000 FSASTH
00000006 l       *ABS*	00000000 FSASTH_SQEND
00000007 l       *ABS*	00000000 FSASTH_ESQEND
000fff8c l       *ABS*	00000000 FLWL
000fff8e l       *ABS*	00000000 FLWH
000fff90 l       *ABS*	00000000 ITMC
000fff92 l       *ABS*	00000000 SEC
000fff93 l       *ABS*	00000000 MIN
000fff94 l       *ABS*	00000000 HOUR
000fff95 l       *ABS*	00000000 WEEK
000fff96 l       *ABS*	00000000 DAY
000fff97 l       *ABS*	00000000 MONTH
000fff98 l       *ABS*	00000000 YEAR
000fff99 l       *ABS*	00000000 SUBCUD
000fff9a l       *ABS*	00000000 ALARMWM
000fff9b l       *ABS*	00000000 ALARMWH
000fff9c l       *ABS*	00000000 ALARMWW
000fff9d l       *ABS*	00000000 RTCC0
00000005 l       *ABS*	00000000 RTCC0_RCLOE1
00000007 l       *ABS*	00000000 RTCC0_RTCE
000fff9e l       *ABS*	00000000 RTCC1
00000000 l       *ABS*	00000000 RTCC1_RWAIT
00000001 l       *ABS*	00000000 RTCC1_RWST
00000003 l       *ABS*	00000000 RTCC1_RIFG
00000004 l       *ABS*	00000000 RTCC1_WAFG
00000006 l       *ABS*	00000000 RTCC1_WALIE
00000007 l       *ABS*	00000000 RTCC1_WALE
000fffa0 l       *ABS*	00000000 CMC
000fffa1 l       *ABS*	00000000 CSC
00000000 l       *ABS*	00000000 CSC_HIOSTOP
00000007 l       *ABS*	00000000 CSC_MSTOP
000fffa2 l       *ABS*	00000000 OSTC
000fffa3 l       *ABS*	00000000 OSTS
000fffa4 l       *ABS*	00000000 CKC
00000003 l       *ABS*	00000000 CKC_SDIV
00000004 l       *ABS*	00000000 CKC_MCM0
00000005 l       *ABS*	00000000 CKC_MCS
00000006 l       *ABS*	00000000 CKC_CSS
00000007 l       *ABS*	00000000 CKC_CLS
000fffa8 l       *ABS*	00000000 RESF
000fffa9 l       *ABS*	00000000 LVIM
00000000 l       *ABS*	00000000 LVIM_LVIF
00000001 l       *ABS*	00000000 LVIM_LVIOMSK
00000007 l       *ABS*	00000000 LVIM_LVISEN
000fffaa l       *ABS*	00000000 LVIS
00000000 l       *ABS*	00000000 LVIS_LVILV
00000007 l       *ABS*	00000000 LVIS_LVIMD
000fffab l       *ABS*	00000000 WDTE
000fffac l       *ABS*	00000000 CRCIN
000fffad l       *ABS*	00000000 RXB
000fffad l       *ABS*	00000000 TXS
000fffae l       *ABS*	00000000 MONSTA0
000fffaf l       *ABS*	00000000 ASIM
000fffd0 l       *ABS*	00000000 IF2
000fffd0 l       *ABS*	00000000 IF2L
00000000 l       *ABS*	00000000 IF2L_TMIF05
00000001 l       *ABS*	00000000 IF2L_TMIF06
00000002 l       *ABS*	00000000 IF2L_TMIF07
00000003 l       *ABS*	00000000 IF2L_LIN0WUPIF
00000004 l       *ABS*	00000000 IF2L_KRIF
000fffd1 l       *ABS*	00000000 IF2H
00000007 l       *ABS*	00000000 IF2H_FLIF
000fffd4 l       *ABS*	00000000 MK2
000fffd4 l       *ABS*	00000000 MK2L
00000000 l       *ABS*	00000000 MK2L_TMMK05
00000001 l       *ABS*	00000000 MK2L_TMMK06
00000002 l       *ABS*	00000000 MK2L_TMMK07
00000003 l       *ABS*	00000000 MK2L_LIN0WUPMK
00000004 l       *ABS*	00000000 MK2L_KRMK
000fffd5 l       *ABS*	00000000 MK2H
00000007 l       *ABS*	00000000 MK2H_FLMK
000fffd8 l       *ABS*	00000000 PR02
000fffd8 l       *ABS*	00000000 PR02L
00000000 l       *ABS*	00000000 PR02L_TMPR005
00000001 l       *ABS*	00000000 PR02L_TMPR006
00000002 l       *ABS*	00000000 PR02L_TMPR007
00000003 l       *ABS*	00000000 PR02L_LIN0WUPPR0
00000004 l       *ABS*	00000000 PR02L_KRPR0
000fffd9 l       *ABS*	00000000 PR02H
00000007 l       *ABS*	00000000 PR02H_FLPR0
000fffdc l       *ABS*	00000000 PR12
000fffdc l       *ABS*	00000000 PR12L
00000000 l       *ABS*	00000000 PR12L_TMPR105
00000001 l       *ABS*	00000000 PR12L_TMPR106
00000002 l       *ABS*	00000000 PR12L_TMPR107
00000003 l       *ABS*	00000000 PR12L_LIN0WUPPR1
00000004 l       *ABS*	00000000 PR12L_KRPR1
000fffdd l       *ABS*	00000000 PR12H
00000007 l       *ABS*	00000000 PR12H_FLPR1
000fffe0 l       *ABS*	00000000 IF0
000fffe0 l       *ABS*	00000000 IF0L
00000000 l       *ABS*	00000000 IF0L_WDTIIF
00000001 l       *ABS*	00000000 IF0L_LVIIF
00000002 l       *ABS*	00000000 IF0L_PIF0
00000003 l       *ABS*	00000000 IF0L_PIF1
00000004 l       *ABS*	00000000 IF0L_PIF2
00000005 l       *ABS*	00000000 IF0L_PIF3
00000006 l       *ABS*	00000000 IF0L_SPMIF
000fffe1 l       *ABS*	00000000 IF0H
00000000 l       *ABS*	00000000 IF0H_CLMIF
00000001 l       *ABS*	00000000 IF0H_STIF0
00000002 l       *ABS*	00000000 IF0H_SRIF0
00000003 l       *ABS*	00000000 IF0H_TRDIF0
00000004 l       *ABS*	00000000 IF0H_TRDIF1
00000005 l       *ABS*	00000000 IF0H_TRJIF0
00000006 l       *ABS*	00000000 IF0H_RAMIF
00000007 l       *ABS*	00000000 IF0H_LIN0TRMIF
000fffe2 l       *ABS*	00000000 IF1
000fffe2 l       *ABS*	00000000 IF1L
00000000 l       *ABS*	00000000 IF1L_LIN0RVCIF
00000001 l       *ABS*	00000000 IF1L_LIN0STAIF
00000003 l       *ABS*	00000000 IF1L_RTCIF
00000004 l       *ABS*	00000000 IF1L_TMIF00
00000005 l       *ABS*	00000000 IF1L_TMIF01
00000006 l       *ABS*	00000000 IF1L_TMIF02
00000007 l       *ABS*	00000000 IF1L_TMIF03
000fffe3 l       *ABS*	00000000 IF1H
00000000 l       *ABS*	00000000 IF1H_ADIF
00000003 l       *ABS*	00000000 IF1H_TMIF01H
00000004 l       *ABS*	00000000 IF1H_TMIF03H
00000007 l       *ABS*	00000000 IF1H_TMIF04
000fffe4 l       *ABS*	00000000 MK0
000fffe4 l       *ABS*	00000000 MK0L
00000000 l       *ABS*	00000000 MK0L_WDTIMK
00000001 l       *ABS*	00000000 MK0L_LVIMK
00000002 l       *ABS*	00000000 MK0L_PMK0
00000003 l       *ABS*	00000000 MK0L_PMK1
00000004 l       *ABS*	00000000 MK0L_PMK2
00000005 l       *ABS*	00000000 MK0L_PMK3
00000006 l       *ABS*	00000000 MK0L_SPMMK
000fffe5 l       *ABS*	00000000 MK0H
00000000 l       *ABS*	00000000 MK0H_CLMMK
00000001 l       *ABS*	00000000 MK0H_STMK0
00000002 l       *ABS*	00000000 MK0H_SRMK0
00000003 l       *ABS*	00000000 MK0H_TRDMK0
00000004 l       *ABS*	00000000 MK0H_TRDMK1
00000005 l       *ABS*	00000000 MK0H_TRJMK0
00000006 l       *ABS*	00000000 MK0H_RAMMK
00000007 l       *ABS*	00000000 MK0H_LIN0TRMMK
000fffe6 l       *ABS*	00000000 MK1
000fffe6 l       *ABS*	00000000 MK1L
00000000 l       *ABS*	00000000 MK1L_LIN0RVCMK
00000001 l       *ABS*	00000000 MK1L_LIN0STAMK
00000003 l       *ABS*	00000000 MK1L_RTCMK
00000004 l       *ABS*	00000000 MK1L_TMMK00
00000005 l       *ABS*	00000000 MK1L_TMMK01
00000006 l       *ABS*	00000000 MK1L_TMMK02
00000007 l       *ABS*	00000000 MK1L_TMMK03
000fffe7 l       *ABS*	00000000 MK1H
00000000 l       *ABS*	00000000 MK1H_ADMK
00000003 l       *ABS*	00000000 MK1H_TMMK01H
00000004 l       *ABS*	00000000 MK1H_TMMK03H
00000007 l       *ABS*	00000000 MK1H_TMMK04
000fffe8 l       *ABS*	00000000 PR00
000fffe8 l       *ABS*	00000000 PR00L
00000000 l       *ABS*	00000000 PR00L_WDTIPR0
00000001 l       *ABS*	00000000 PR00L_LVIPR0
00000002 l       *ABS*	00000000 PR00L_PPR00
00000003 l       *ABS*	00000000 PR00L_PPR01
00000004 l       *ABS*	00000000 PR00L_PPR02
00000005 l       *ABS*	00000000 PR00L_PPR03
00000006 l       *ABS*	00000000 PR00L_SPMPR0
000fffe9 l       *ABS*	00000000 PR00H
00000000 l       *ABS*	00000000 PR00H_CLMPR0
00000001 l       *ABS*	00000000 PR00H_STPR00
00000002 l       *ABS*	00000000 PR00H_SRPR00
00000003 l       *ABS*	00000000 PR00H_TRDPR00
00000004 l       *ABS*	00000000 PR00H_TRDPR01
00000005 l       *ABS*	00000000 PR00H_TRJPR00
00000006 l       *ABS*	00000000 PR00H_RAMPR0
00000007 l       *ABS*	00000000 PR00H_LIN0TRMPR0
000fffea l       *ABS*	00000000 PR01
000fffea l       *ABS*	00000000 PR01L
00000000 l       *ABS*	00000000 PR01L_LIN0RVCPR0
00000001 l       *ABS*	00000000 PR01L_LIN0STAPR0
00000003 l       *ABS*	00000000 PR01L_RTCPR0
00000004 l       *ABS*	00000000 PR01L_TMPR000
00000005 l       *ABS*	00000000 PR01L_TMPR001
00000006 l       *ABS*	00000000 PR01L_TMPR002
00000007 l       *ABS*	00000000 PR01L_TMPR003
000fffeb l       *ABS*	00000000 PR01H
00000000 l       *ABS*	00000000 PR01H_ADPR0
00000003 l       *ABS*	00000000 PR01H_TMPR001H
00000004 l       *ABS*	00000000 PR01H_TMPR003H
00000007 l       *ABS*	00000000 PR01H_TMPR004
000fffec l       *ABS*	00000000 PR10
000fffec l       *ABS*	00000000 PR10L
00000000 l       *ABS*	00000000 PR10L_WDTIPR1
00000001 l       *ABS*	00000000 PR10L_LVIPR1
00000002 l       *ABS*	00000000 PR10L_PPR10
00000003 l       *ABS*	00000000 PR10L_PPR11
00000004 l       *ABS*	00000000 PR10L_PPR12
00000005 l       *ABS*	00000000 PR10L_PPR13
00000006 l       *ABS*	00000000 PR10L_SPMPR1
000fffed l       *ABS*	00000000 PR10H
00000000 l       *ABS*	00000000 PR10H_CLMPR1
00000001 l       *ABS*	00000000 PR10H_STPR10
00000002 l       *ABS*	00000000 PR10H_SRPR10
00000003 l       *ABS*	00000000 PR10H_TRDPR10
00000004 l       *ABS*	00000000 PR10H_TRDPR11
00000005 l       *ABS*	00000000 PR10H_TRJPR10
00000006 l       *ABS*	00000000 PR10H_RAMPR1
00000007 l       *ABS*	00000000 PR10H_LIN0TRMPR1
000fffee l       *ABS*	00000000 PR11
000fffee l       *ABS*	00000000 PR11L
00000000 l       *ABS*	00000000 PR11L_LIN0RVCPR1
00000001 l       *ABS*	00000000 PR11L_LIN0STAPR1
00000003 l       *ABS*	00000000 PR11L_RTCPR1
00000004 l       *ABS*	00000000 PR11L_TMPR100
00000005 l       *ABS*	00000000 PR11L_TMPR101
00000006 l       *ABS*	00000000 PR11L_TMPR102
00000007 l       *ABS*	00000000 PR11L_TMPR103
000fffef l       *ABS*	00000000 PR11H
00000000 l       *ABS*	00000000 PR11H_ADPR1
00000003 l       *ABS*	00000000 PR11H_TMPR101H
00000004 l       *ABS*	00000000 PR11H_TMPR103H
00000007 l       *ABS*	00000000 PR11H_TMPR104
000ffff0 l       *ABS*	00000000 MACRL
000ffff2 l       *ABS*	00000000 MACRH
00000001 l       *ABS*	00000000 MACRH_ISP0
00000002 l       *ABS*	00000000 MACRH_ISP1
00000003 l       *ABS*	00000000 MACRH_RBS0
00000004 l       *ABS*	00000000 MACRH_AC
00000005 l       *ABS*	00000000 MACRH_RBS1
00000006 l       *ABS*	00000000 MACRH_Z
00000007 l       *ABS*	00000000 MACRH_IE
000ffffb l       *ABS*	00000000 MDUC
000ffffe l       *ABS*	00000000 PMC
00000000 l       *ABS*	00000000 PMC_MAA
000f0000 l       *ABS*	00000000 HDTCDUM
000f0010 l       *ABS*	00000000 ADM2
00000000 l       *ABS*	00000000 ADM2_ADTYP
00000002 l       *ABS*	00000000 ADM2_AWC
00000003 l       *ABS*	00000000 ADM2_ADRCK
000f0011 l       *ABS*	00000000 ADUL
000f0012 l       *ABS*	00000000 ADLL
000f0013 l       *ABS*	00000000 ADTES
000f001b l       *ABS*	00000000 PIOR5
000f001d l       *ABS*	00000000 PIOR7
000f0021 l       *ABS*	00000000 PITHL1
000f0023 l       *ABS*	00000000 PITHL3
000f002c l       *ABS*	00000000 PITHL12
000f0031 l       *ABS*	00000000 PU1
000f0033 l       *ABS*	00000000 PU3
000f0034 l       *ABS*	00000000 PU4
000f003c l       *ABS*	00000000 PU12
000f0041 l       *ABS*	00000000 PIM1
000f0043 l       *ABS*	00000000 PIM3
000f004c l       *ABS*	00000000 PIM12
000f0051 l       *ABS*	00000000 POM1
000f005c l       *ABS*	00000000 POM12
000f0070 l       *ABS*	00000000 NFEN0
000f0071 l       *ABS*	00000000 NFEN1
000f0073 l       *ABS*	00000000 ISC
000f0074 l       *ABS*	00000000 TIS0
000f0075 l       *ABS*	00000000 TIS1
000f0076 l       *ABS*	00000000 ADPC
000f0077 l       *ABS*	00000000 PMS
000f0078 l       *ABS*	00000000 IAWCTL
000f0079 l       *ABS*	00000000 INTFLG0
000f007b l       *ABS*	00000000 LCHSEL
000f007c l       *ABS*	00000000 INTMSK
000f007e l       *ABS*	00000000 PRDSEL
000f0080 l       *ABS*	00000000 TOOLEN
000f0081 l       *ABS*	00000000 BPAL0
000f0082 l       *ABS*	00000000 BPAH0
000f0083 l       *ABS*	00000000 BPAS0
000f0084 l       *ABS*	00000000 BACDVL0
000f0085 l       *ABS*	00000000 BACDVH0
000f0086 l       *ABS*	00000000 BACDML0
000f0087 l       *ABS*	00000000 BACDMH0
000f0088 l       *ABS*	00000000 MONMOD
000f0089 l       *ABS*	00000000 BPAL1
000f008a l       *ABS*	00000000 BPAH1
000f008b l       *ABS*	00000000 BPAS1
000f008c l       *ABS*	00000000 BACDVL1
000f008d l       *ABS*	00000000 BACDVH1
000f008e l       *ABS*	00000000 BACDML1
000f008f l       *ABS*	00000000 BACDMH1
000f0090 l       *ABS*	00000000 DFLCTL
00000000 l       *ABS*	00000000 DFLCTL_DFLEN
000f00a0 l       *ABS*	00000000 HIOTRM
000f00a1 l       *ABS*	00000000 BECTL
00000000 l       *ABS*	00000000 BECTL_BRSAM
000f00a8 l       *ABS*	00000000 HOCODIV
000f00ac l       *ABS*	00000000 TEMPCAL0
000f00ad l       *ABS*	00000000 TEMPCAL1
000f00ae l       *ABS*	00000000 TEMPCAL2
000f00af l       *ABS*	00000000 TEMPCAL3
000f00b0 l       *ABS*	00000000 FLSEC
000f00b2 l       *ABS*	00000000 FLFSWS
000f00b4 l       *ABS*	00000000 FLFSWE
000f00b6 l       *ABS*	00000000 FSSET
000f00b7 l       *ABS*	00000000 FSSE
00000007 l       *ABS*	00000000 FSSE_ESQST
000f00b8 l       *ABS*	00000000 FLFADL
000f00ba l       *ABS*	00000000 FLFADH
000f00c0 l       *ABS*	00000000 PFCMD
000f00c1 l       *ABS*	00000000 PFS
000f00c2 l       *ABS*	00000000 FLRL
000f00c4 l       *ABS*	00000000 FLRH
000f00c6 l       *ABS*	00000000 FLWE
000f00c7 l       *ABS*	00000000 FLRE
000f00c8 l       *ABS*	00000000 FLTMS
000f00ca l       *ABS*	00000000 DFLMC
000f00cc l       *ABS*	00000000 FLMCL
000f00ce l       *ABS*	00000000 FLMCH
000f00cf l       *ABS*	00000000 FSCTL
000f00d0 l       *ABS*	00000000 ICEADR
000f00d2 l       *ABS*	00000000 ICEDAT
000f00d8 l       *ABS*	00000000 SPMCTRL
000f00da l       *ABS*	00000000 SPOFR
000f00dc l       *ABS*	00000000 SPUFR
000f00f0 l       *ABS*	00000000 PER0
00000000 l       *ABS*	00000000 PER0_TAU0EN
00000002 l       *ABS*	00000000 PER0_SAU0EN
00000005 l       *ABS*	00000000 PER0_ADCEN
00000007 l       *ABS*	00000000 PER0_RTCEN
000f00f3 l       *ABS*	00000000 OSMC
000f00f4 l       *ABS*	00000000 RMC
00000000 l       *ABS*	00000000 RMC_PAENB
00000007 l       *ABS*	00000000 RMC_WDVOL
000f00f5 l       *ABS*	00000000 RPECTL
00000000 l       *ABS*	00000000 RPECTL_RPEF
00000007 l       *ABS*	00000000 RPECTL_RPERDIS
000f00fe l       *ABS*	00000000 BCDADJ
000f00ff l       *ABS*	00000000 VECTCTRL
000f0100 l       *ABS*	00000000 SSR00
000f0100 l       *ABS*	00000000 SSR00L
000f0102 l       *ABS*	00000000 SSR01
000f0102 l       *ABS*	00000000 SSR01L
000f0104 l       *ABS*	00000000 SIR00
000f0104 l       *ABS*	00000000 SIR00L
000f0106 l       *ABS*	00000000 SIR01
000f0106 l       *ABS*	00000000 SIR01L
000f0108 l       *ABS*	00000000 SMR00
000f010a l       *ABS*	00000000 SMR01
000f010c l       *ABS*	00000000 SCR00
000f010e l       *ABS*	00000000 SCR01
000f0110 l       *ABS*	00000000 SE0
000f0110 l       *ABS*	00000000 SE0L
000f0112 l       *ABS*	00000000 SS0
000f0112 l       *ABS*	00000000 SS0L
000f0114 l       *ABS*	00000000 ST0
000f0114 l       *ABS*	00000000 ST0L
000f0116 l       *ABS*	00000000 SPS0
000f0116 l       *ABS*	00000000 SPS0L
000f0118 l       *ABS*	00000000 SO0
000f011a l       *ABS*	00000000 SOE0
000f011a l       *ABS*	00000000 SOE0L
000f011c l       *ABS*	00000000 EDR00
000f011c l       *ABS*	00000000 EDR00L
000f011e l       *ABS*	00000000 EDR01
000f011e l       *ABS*	00000000 EDR01L
000f0120 l       *ABS*	00000000 SOL0
000f0120 l       *ABS*	00000000 SOL0L
000f0122 l       *ABS*	00000000 SSE0
000f0122 l       *ABS*	00000000 SSE0L
000f0180 l       *ABS*	00000000 TCR00
000f0182 l       *ABS*	00000000 TCR01
000f0184 l       *ABS*	00000000 TCR02
000f0186 l       *ABS*	00000000 TCR03
000f0188 l       *ABS*	00000000 TCR04
000f018a l       *ABS*	00000000 TCR05
000f018c l       *ABS*	00000000 TCR06
000f018e l       *ABS*	00000000 TCR07
000f0190 l       *ABS*	00000000 TMR00
000f0192 l       *ABS*	00000000 TMR01
000f0194 l       *ABS*	00000000 TMR02
000f0196 l       *ABS*	00000000 TMR03
000f0198 l       *ABS*	00000000 TMR04
000f019a l       *ABS*	00000000 TMR05
000f019c l       *ABS*	00000000 TMR06
000f019e l       *ABS*	00000000 TMR07
000f01a0 l       *ABS*	00000000 TSR00
000f01a0 l       *ABS*	00000000 TSR00L
000f01a2 l       *ABS*	00000000 TSR01
000f01a2 l       *ABS*	00000000 TSR01L
000f01a4 l       *ABS*	00000000 TSR02
000f01a4 l       *ABS*	00000000 TSR02L
000f01a6 l       *ABS*	00000000 TSR03
000f01a6 l       *ABS*	00000000 TSR03L
000f01a8 l       *ABS*	00000000 TSR04
000f01a8 l       *ABS*	00000000 TSR04L
000f01aa l       *ABS*	00000000 TSR05
000f01aa l       *ABS*	00000000 TSR05L
000f01ac l       *ABS*	00000000 TSR06
000f01ac l       *ABS*	00000000 TSR06L
000f01ae l       *ABS*	00000000 TSR07
000f01ae l       *ABS*	00000000 TSR07L
000f01b0 l       *ABS*	00000000 TE0
000f01b0 l       *ABS*	00000000 TE0L
000f01b2 l       *ABS*	00000000 TS0
000f01b2 l       *ABS*	00000000 TS0L
000f01b4 l       *ABS*	00000000 TT0
000f01b4 l       *ABS*	00000000 TT0L
000f01b6 l       *ABS*	00000000 TPS0
000f01b8 l       *ABS*	00000000 TO0
000f01b8 l       *ABS*	00000000 TO0L
000f01ba l       *ABS*	00000000 TOE0
000f01ba l       *ABS*	00000000 TOE0L
00000000 l       *ABS*	00000000 TOE0L_TOE0_0
00000001 l       *ABS*	00000000 TOE0L_TOE0_1
00000002 l       *ABS*	00000000 TOE0L_TOE0_2
00000003 l       *ABS*	00000000 TOE0L_TOE0_3
00000004 l       *ABS*	00000000 TOE0L_TOE0_4
00000005 l       *ABS*	00000000 TOE0L_TOE0_5
00000006 l       *ABS*	00000000 TOE0L_TOE0_6
00000007 l       *ABS*	00000000 TOE0L_TOE0_7
000f01bc l       *ABS*	00000000 TOL0
000f01bc l       *ABS*	00000000 TOL0L
000f01be l       *ABS*	00000000 TOM0
000f01be l       *ABS*	00000000 TOM0L
000f0200 l       *ABS*	00000000 ERADR
000f0202 l       *ABS*	00000000 ECCIER
000f0203 l       *ABS*	00000000 ECCER
000f0204 l       *ABS*	00000000 ECCTPR
000f0205 l       *ABS*	00000000 ECCTMDR
000f0206 l       *ABS*	00000000 ECCDWRVR
000f0208 l       *ABS*	00000000 RMODR
000f0209 l       *ABS*	00000000 RTSTR
000f020c l       *ABS*	00000000 WDTLIOTRM
000f0220 l       *ABS*	00000000 PSRSEL
000f0222 l       *ABS*	00000000 PSNZCNT0
000f0228 l       *ABS*	00000000 PWMDLY0
000f022a l       *ABS*	00000000 PWMDLY1
000f0240 l       *ABS*	00000000 TRJCR0
000f0242 l       *ABS*	00000000 TRJMR0
000f0263 l       *ABS*	00000000 TRDSTR
000f0264 l       *ABS*	00000000 TRDMR
00000000 l       *ABS*	00000000 TRDMR_TRDSYNC
00000004 l       *ABS*	00000000 TRDMR_TRDBFC0
00000005 l       *ABS*	00000000 TRDMR_TRDBFD0
00000006 l       *ABS*	00000000 TRDMR_TRDBFC1
00000007 l       *ABS*	00000000 TRDMR_TRDBFD1
000f0265 l       *ABS*	00000000 TRDPMR
00000000 l       *ABS*	00000000 TRDPMR_TRDPWMB0
00000001 l       *ABS*	00000000 TRDPMR_TRDPWMC0
00000002 l       *ABS*	00000000 TRDPMR_TRDPWMD0
00000004 l       *ABS*	00000000 TRDPMR_TRDPWMB1
00000005 l       *ABS*	00000000 TRDPMR_TRDPWMC1
00000006 l       *ABS*	00000000 TRDPMR_TRDPWMD1
000f0266 l       *ABS*	00000000 TRDFCR
000f0267 l       *ABS*	00000000 TRDOER1
000f0268 l       *ABS*	00000000 TRDOER2
00000000 l       *ABS*	00000000 TRDOER2_TRDSHUTS
00000007 l       *ABS*	00000000 TRDOER2_TRDPTO
000f0269 l       *ABS*	00000000 TRDOCR
000f026a l       *ABS*	00000000 TRDDF0
000f026b l       *ABS*	00000000 TRDDF1
000f0270 l       *ABS*	00000000 TRDCR0
000f0271 l       *ABS*	00000000 TRDIORA0
000f0272 l       *ABS*	00000000 TRDIORC0
000f0273 l       *ABS*	00000000 TRDSR0
000f0274 l       *ABS*	00000000 TRDIER0
000f0275 l       *ABS*	00000000 TRDPOCR0
000f0276 l       *ABS*	00000000 TRD0
000f0278 l       *ABS*	00000000 TRDGRA0
000f027a l       *ABS*	00000000 TRDGRB0
000f027c l       *ABS*	00000000 TRDGRC0M
000f027e l       *ABS*	00000000 TRDGRD0M
000f0280 l       *ABS*	00000000 TRDCR1
000f0281 l       *ABS*	00000000 TRDIORA1
000f0282 l       *ABS*	00000000 TRDIORC1
000f0283 l       *ABS*	00000000 TRDSR1
000f0284 l       *ABS*	00000000 TRDIER1
000f0285 l       *ABS*	00000000 TRDPOCR1
000f0286 l       *ABS*	00000000 TRD1
000f0288 l       *ABS*	00000000 TRDGRA1
000f028a l       *ABS*	00000000 TRDGRB1
000f028c l       *ABS*	00000000 TRDGRC1M
000f028e l       *ABS*	00000000 TRDGRD1M
000f02b0 l       *ABS*	00000000 C2CCNT
00000000 l       *ABS*	00000000 C2CCNT_C2CMODE
00000001 l       *ABS*	00000000 C2CCNT_C2CDIR
00000002 l       *ABS*	00000000 C2CCNT_C2CCYCLE0
00000003 l       *ABS*	00000000 C2CCNT_C2CCYCLE1
00000004 l       *ABS*	00000000 C2CCNT_E2CEXCK0
00000005 l       *ABS*	00000000 C2CCNT_E2CEXCK1
00000006 l       *ABS*	00000000 C2CCNT_C2CCSICH
00000007 l       *ABS*	00000000 C2CCNT_C2CON
000f02c0 l       *ABS*	00000000 PER1
00000000 l       *ABS*	00000000 PER1_TRJ0EN
00000003 l       *ABS*	00000000 PER1_DTCEN
00000004 l       *ABS*	00000000 PER1_TRD0EN
000f02c1 l       *ABS*	00000000 PER2
00000002 l       *ABS*	00000000 PER2_LIN0EN
00000007 l       *ABS*	00000000 PER2_C2CEN
000f02c3 l       *ABS*	00000000 LINCKSEL
00000000 l       *ABS*	00000000 LINCKSEL_LIN0MCK
00000004 l       *ABS*	00000000 LINCKSEL_LIN0MCKE
000f02c4 l       *ABS*	00000000 CKSEL
00000000 l       *ABS*	00000000 CKSEL_SELLOSC
00000002 l       *ABS*	00000000 CKSEL_TRD_CKSEL
00000006 l       *ABS*	00000000 CKSEL_FMAINDIV
000f02c5 l       *ABS*	00000000 PLLCTL
00000000 l       *ABS*	00000000 PLLCTL_PLLON
00000001 l       *ABS*	00000000 PLLCTL_PLLMUL
00000002 l       *ABS*	00000000 PLLCTL_SELPLL
00000004 l       *ABS*	00000000 PLLCTL_PLLDIV0
00000005 l       *ABS*	00000000 PLLCTL_PLLDIV1
00000006 l       *ABS*	00000000 PLLCTL_LCKSEL0
00000007 l       *ABS*	00000000 PLLCTL_LCKSEL1
000f02c6 l       *ABS*	00000000 PLLSTS
00000003 l       *ABS*	00000000 PLLSTS_SELPLLS
00000007 l       *ABS*	00000000 PLLSTS_LOCK
000f02c7 l       *ABS*	00000000 MDIV
000f02c8 l       *ABS*	00000000 RTCCL
000f02c9 l       *ABS*	00000000 POCRES
00000000 l       *ABS*	00000000 POCRES_POCRES0
00000004 l       *ABS*	00000000 POCRES_CLKRF
000f02cb l       *ABS*	00000000 TPGCSC
00000005 l       *ABS*	00000000 TPGCSC_TWWDTSTP
00000006 l       *ABS*	00000000 TPGCSC_TWDTLOSC
00000007 l       *ABS*	00000000 TPGCSC_TCKSPLL
000f02cc l       *ABS*	00000000 CLMTES
00000000 l       *ABS*	00000000 CLMTES_CK1MSK
00000001 l       *ABS*	00000000 CLMTES_CK2MSK
00000002 l       *ABS*	00000000 CLMTES_TCLKMB
00000003 l       *ABS*	00000000 CLMTES_TLIOUSE
00000007 l       *ABS*	00000000 CLMTES_TESEN
000f02d0 l       *ABS*	00000000 HDTCCR0
00000000 l       *ABS*	00000000 HDTCCR0_HMODE0
00000001 l       *ABS*	00000000 HDTCCR0_HRPTSEL0
00000002 l       *ABS*	00000000 HDTCCR0_HSAMOD0
00000003 l       *ABS*	00000000 HDTCCR0_HDAMOD0
00000004 l       *ABS*	00000000 HDTCCR0_HCHNE0
00000005 l       *ABS*	00000000 HDTCCR0_HRPTINT0
00000006 l       *ABS*	00000000 HDTCCR0_HSZ0
000f02d2 l       *ABS*	00000000 HDTCCT0
000f02d3 l       *ABS*	00000000 HDTRLD0
000f02d4 l       *ABS*	00000000 HDTSAR0
000f02d6 l       *ABS*	00000000 HDTDAR0
000f02d8 l       *ABS*	00000000 HDTCCR1
00000000 l       *ABS*	00000000 HDTCCR1_HMODE1
00000001 l       *ABS*	00000000 HDTCCR1_HRPTSEL1
00000002 l       *ABS*	00000000 HDTCCR1_HSAMOD1
00000003 l       *ABS*	00000000 HDTCCR1_HDAMOD1
00000004 l       *ABS*	00000000 HDTCCR1_HCHNE1
00000005 l       *ABS*	00000000 HDTCCR1_HRPTINT1
00000006 l       *ABS*	00000000 HDTCCR1_HSZ1
000f02da l       *ABS*	00000000 HDTCCT1
000f02db l       *ABS*	00000000 HDTRLD1
000f02dc l       *ABS*	00000000 HDTSAR1
000f02de l       *ABS*	00000000 HDTDAR1
000f02e0 l       *ABS*	00000000 DTCBAR
000f02e1 l       *ABS*	00000000 SELHS0
000f02e2 l       *ABS*	00000000 SELHS1
000f02e8 l       *ABS*	00000000 DTCEN0
00000002 l       *ABS*	00000000 DTCEN0_DTCEN02
00000003 l       *ABS*	00000000 DTCEN0_DTCEN03
00000004 l       *ABS*	00000000 DTCEN0_DTCEN04
00000005 l       *ABS*	00000000 DTCEN0_DTCEN05
00000006 l       *ABS*	00000000 DTCEN0_DTCEN06
00000007 l       *ABS*	00000000 DTCEN0_DTCEN07
000f02e9 l       *ABS*	00000000 DTCEN1
00000000 l       *ABS*	00000000 DTCEN1_DTCEN10
00000001 l       *ABS*	00000000 DTCEN1_DTCEN11
00000004 l       *ABS*	00000000 DTCEN1_DTCEN14
00000005 l       *ABS*	00000000 DTCEN1_DTCEN15
00000006 l       *ABS*	00000000 DTCEN1_DTCEN16
00000007 l       *ABS*	00000000 DTCEN1_DTCEN17
000f02ea l       *ABS*	00000000 DTCEN2
00000000 l       *ABS*	00000000 DTCEN2_DTCEN20
00000001 l       *ABS*	00000000 DTCEN2_DTCEN21
00000002 l       *ABS*	00000000 DTCEN2_DTCEN22
00000003 l       *ABS*	00000000 DTCEN2_DTCEN23
00000004 l       *ABS*	00000000 DTCEN2_DTCEN24
00000005 l       *ABS*	00000000 DTCEN2_DTCEN25
000f02eb l       *ABS*	00000000 DTCEN3
00000000 l       *ABS*	00000000 DTCEN3_DTCEN30
00000001 l       *ABS*	00000000 DTCEN3_DTCEN31
00000002 l       *ABS*	00000000 DTCEN3_DTCEN32
00000003 l       *ABS*	00000000 DTCEN3_DTCEN33
00000004 l       *ABS*	00000000 DTCEN3_DTCEN34
00000005 l       *ABS*	00000000 DTCEN3_DTCEN35
00000006 l       *ABS*	00000000 DTCEN3_DTCEN36
00000007 l       *ABS*	00000000 DTCEN3_DTCEN37
000f02ec l       *ABS*	00000000 DTCEN4
00000005 l       *ABS*	00000000 DTCEN4_DTCEN45
00000006 l       *ABS*	00000000 DTCEN4_DTCEN46
00000007 l       *ABS*	00000000 DTCEN4_DTCEN47
000f02f0 l       *ABS*	00000000 CRC0CTL
00000007 l       *ABS*	00000000 CRC0CTL_CRC0EN
000f02f2 l       *ABS*	00000000 PGCRCL
000f02f9 l       *ABS*	00000000 CRCMD
000f02fa l       *ABS*	00000000 CRCD
000f0500 l       *ABS*	00000000 C2CREG00
000f0501 l       *ABS*	00000000 C2CREG01
000f0502 l       *ABS*	00000000 C2CREG02
000f0503 l       *ABS*	00000000 C2CREG03
000f0504 l       *ABS*	00000000 C2CREG04
000f0505 l       *ABS*	00000000 C2CREG05
000f0506 l       *ABS*	00000000 C2CREG06
000f0507 l       *ABS*	00000000 C2CREG07
000f0508 l       *ABS*	00000000 C2CREG08
000f0509 l       *ABS*	00000000 C2CREG09
000f050a l       *ABS*	00000000 C2CREG0A
000f050b l       *ABS*	00000000 C2CREG0B
000f050c l       *ABS*	00000000 C2CREG0C
000f050d l       *ABS*	00000000 C2CREG0D
000f050e l       *ABS*	00000000 C2CREG0E
000f050f l       *ABS*	00000000 C2CREG0F
000f0510 l       *ABS*	00000000 C2CREG10
000f0511 l       *ABS*	00000000 C2CREG11
000f0512 l       *ABS*	00000000 C2CREG12
000f0513 l       *ABS*	00000000 C2CREG13
000f0514 l       *ABS*	00000000 C2CREG14
000f0515 l       *ABS*	00000000 C2CREG15
000f0516 l       *ABS*	00000000 C2CREG16
000f0517 l       *ABS*	00000000 C2CREG17
000f0518 l       *ABS*	00000000 C2CREG18
000f0519 l       *ABS*	00000000 C2CREG19
000f051a l       *ABS*	00000000 C2CREG1A
000f051b l       *ABS*	00000000 C2CREG1B
000f051c l       *ABS*	00000000 C2CREG1C
000f051d l       *ABS*	00000000 C2CREG1D
000f051e l       *ABS*	00000000 C2CREG1E
000f051f l       *ABS*	00000000 C2CREG1F
000f0520 l       *ABS*	00000000 C2CREG20
000f0521 l       *ABS*	00000000 C2CREG21
000f0522 l       *ABS*	00000000 C2CREG22
000f0523 l       *ABS*	00000000 C2CREG23
000f0524 l       *ABS*	00000000 C2CREG24
000f0525 l       *ABS*	00000000 C2CREG25
000f0526 l       *ABS*	00000000 C2CREG26
000f0527 l       *ABS*	00000000 C2CREG27
000f0528 l       *ABS*	00000000 C2CREG28
000f0529 l       *ABS*	00000000 C2CREG29
000f052a l       *ABS*	00000000 C2CREG2A
000f052b l       *ABS*	00000000 C2CREG2B
000f052c l       *ABS*	00000000 C2CREG2C
000f052d l       *ABS*	00000000 C2CREG2D
000f052e l       *ABS*	00000000 C2CREG2E
000f052f l       *ABS*	00000000 C2CREG2F
000f0530 l       *ABS*	00000000 C2CREG30
000f0531 l       *ABS*	00000000 C2CREG31
000f0532 l       *ABS*	00000000 C2CREG32
000f0533 l       *ABS*	00000000 C2CREG33
000f0534 l       *ABS*	00000000 C2CREG34
000f0535 l       *ABS*	00000000 C2CREG35
000f0536 l       *ABS*	00000000 C2CREG36
000f0537 l       *ABS*	00000000 C2CREG37
000f0538 l       *ABS*	00000000 C2CREG38
000f0539 l       *ABS*	00000000 C2CREG39
000f053a l       *ABS*	00000000 C2CREG3A
000f053b l       *ABS*	00000000 C2CREG3B
000f053c l       *ABS*	00000000 C2CREG3C
000f053d l       *ABS*	00000000 C2CREG3D
000f053e l       *ABS*	00000000 C2CREG3E
000f053f l       *ABS*	00000000 C2CREG3F
000f0540 l       *ABS*	00000000 C2CREG40
000f0541 l       *ABS*	00000000 C2CREG41
000f0542 l       *ABS*	00000000 C2CREG42
000f0543 l       *ABS*	00000000 C2CREG43
000f0544 l       *ABS*	00000000 C2CREG44
000f0545 l       *ABS*	00000000 C2CREG45
000f0546 l       *ABS*	00000000 C2CREG46
000f0547 l       *ABS*	00000000 C2CREG47
000f0548 l       *ABS*	00000000 C2CREG48
000f0549 l       *ABS*	00000000 C2CREG49
000f054a l       *ABS*	00000000 C2CREG4A
000f054b l       *ABS*	00000000 C2CREG4B
000f054c l       *ABS*	00000000 C2CREG4C
000f054d l       *ABS*	00000000 C2CREG4D
000f054e l       *ABS*	00000000 C2CREG4E
000f054f l       *ABS*	00000000 C2CREG4F
000f0550 l       *ABS*	00000000 C2CREG50
000f0551 l       *ABS*	00000000 C2CREG51
000f0552 l       *ABS*	00000000 C2CREG52
000f0553 l       *ABS*	00000000 C2CREG53
000f0554 l       *ABS*	00000000 C2CREG54
000f0555 l       *ABS*	00000000 C2CREG55
000f0556 l       *ABS*	00000000 C2CREG56
000f0557 l       *ABS*	00000000 C2CREG57
000f0558 l       *ABS*	00000000 C2CREG58
000f0559 l       *ABS*	00000000 C2CREG59
000f055a l       *ABS*	00000000 C2CREG5A
000f055b l       *ABS*	00000000 C2CREG5B
000f055c l       *ABS*	00000000 C2CREG5C
000f055d l       *ABS*	00000000 C2CREG5D
000f055e l       *ABS*	00000000 C2CREG5E
000f055f l       *ABS*	00000000 C2CREG5F
000f0560 l       *ABS*	00000000 C2CREG60
000f0561 l       *ABS*	00000000 C2CREG61
000f0562 l       *ABS*	00000000 C2CREG62
000f0563 l       *ABS*	00000000 C2CREG63
000f0564 l       *ABS*	00000000 C2CREG64
000f0565 l       *ABS*	00000000 C2CREG65
000f0566 l       *ABS*	00000000 C2CREG66
000f0567 l       *ABS*	00000000 C2CREG67
000f0568 l       *ABS*	00000000 C2CREG68
000f0569 l       *ABS*	00000000 C2CREG69
000f056a l       *ABS*	00000000 C2CREG6A
000f056b l       *ABS*	00000000 C2CREG6B
000f056c l       *ABS*	00000000 C2CREG6C
000f056d l       *ABS*	00000000 C2CREG6D
000f056e l       *ABS*	00000000 C2CREG6E
000f056f l       *ABS*	00000000 C2CREG6F
000f0570 l       *ABS*	00000000 C2CREG70
000f0571 l       *ABS*	00000000 C2CREG71
000f0572 l       *ABS*	00000000 C2CREG72
000f0573 l       *ABS*	00000000 C2CREG73
000f0574 l       *ABS*	00000000 C2CREG74
000f0575 l       *ABS*	00000000 C2CREG75
000f0576 l       *ABS*	00000000 C2CREG76
000f0577 l       *ABS*	00000000 C2CREG77
000f0578 l       *ABS*	00000000 C2CREG78
000f0579 l       *ABS*	00000000 C2CREG79
000f057a l       *ABS*	00000000 C2CREG7A
000f057b l       *ABS*	00000000 C2CREG7B
000f057c l       *ABS*	00000000 C2CREG7C
000f057d l       *ABS*	00000000 C2CREG7D
000f057e l       *ABS*	00000000 C2CREG7E
000f057f l       *ABS*	00000000 C2CREG7F
000f06c1 l       *ABS*	00000000 LWBR0
000f06c2 l       *ABS*	00000000 LBRP0
000f06c2 l       *ABS*	00000000 LBRP00
000f06c3 l       *ABS*	00000000 LBRP01
000f06c4 l       *ABS*	00000000 LSTC0
000f06c5 l       *ABS*	00000000 LUSC0
000f06c8 l       *ABS*	00000000 LMD0
000f06c9 l       *ABS*	00000000 LBFC0
000f06ca l       *ABS*	00000000 LSC0
000f06cb l       *ABS*	00000000 LWUP0
000f06cc l       *ABS*	00000000 LIE0
000f06cd l       *ABS*	00000000 LEDE0
000f06ce l       *ABS*	00000000 LCUC0
000f06d0 l       *ABS*	00000000 LTRC0
000f06d1 l       *ABS*	00000000 LMST0
000f06d2 l       *ABS*	00000000 LST0
000f06d3 l       *ABS*	00000000 LEST0
000f06d4 l       *ABS*	00000000 LDFC0
000f06d5 l       *ABS*	00000000 LIDB0
000f06d6 l       *ABS*	00000000 LCBR0
000f06d7 l       *ABS*	00000000 LUDB00
000f06d8 l       *ABS*	00000000 LDB01
000f06d9 l       *ABS*	00000000 LDB02
000f06da l       *ABS*	00000000 LDB03
000f06db l       *ABS*	00000000 LDB04
000f06dc l       *ABS*	00000000 LDB05
000f06dd l       *ABS*	00000000 LDB06
000f06de l       *ABS*	00000000 LDB07
000f06df l       *ABS*	00000000 LDB08
000f06e0 l       *ABS*	00000000 LUOER0
000f06e1 l       *ABS*	00000000 LUOR01
000f06e4 l       *ABS*	00000000 LUTDR0
000f06e4 l       *ABS*	00000000 LUTDR0L
000f06e5 l       *ABS*	00000000 LUTDR0H
000f06e6 l       *ABS*	00000000 LURDR0
000f06e6 l       *ABS*	00000000 LURDR0L
000f06e7 l       *ABS*	00000000 LURDR0H
000f06e8 l       *ABS*	00000000 LUWTDR0
000f06e8 l       *ABS*	00000000 LUWTDR0L
000f06e9 l       *ABS*	00000000 LUWTDR0H
000f06ea l       *ABS*	00000000 LURDE0
000f06ea l       *ABS*	00000000 LURDE0L
000f06eb l       *ABS*	00000000 LURDE0H
000f06f0 l       *ABS*	00000000 TRJ0
000f0720 l       *ABS*	00000000 MONMOD1
000f0721 l       *ABS*	00000000 TRCMA
000f0722 l       *ABS*	00000000 BRKMOD
000f0723 l       *ABS*	00000000 LDSTA
000f0723 l       *ABS*	00000000 SECCHK
000f0789 l       *ABS*	00000000 ADTRGS0
000f078d l       *ABS*	00000000 ADTRGS1
0000ffff l       *ABS*	00000000 P0_PIO
0000ffff l       *ABS*	00000000 P0_DIR
0000ffff l       *ABS*	00000000 P0_PEN
0000ffff l       *ABS*	00000000 P0_POM
0000ff01 l       *ABS*	00000000 P1_PIO
0000ff21 l       *ABS*	00000000 P1_DIR
00000031 l       *ABS*	00000000 P1_PEN
00000051 l       *ABS*	00000000 P1_POM
0000ffff l       *ABS*	00000000 P2_PIO
0000ffff l       *ABS*	00000000 P2_DIR
0000ffff l       *ABS*	00000000 P2_PEN
0000ffff l       *ABS*	00000000 P2_POM
0000ff03 l       *ABS*	00000000 P3_PIO
0000ff23 l       *ABS*	00000000 P3_DIR
00000033 l       *ABS*	00000000 P3_PEN
0000ffff l       *ABS*	00000000 P3_POM
0000ff04 l       *ABS*	00000000 P4_PIO
0000ff24 l       *ABS*	00000000 P4_DIR
00000034 l       *ABS*	00000000 P4_PEN
0000ffff l       *ABS*	00000000 P4_POM
0000ffff l       *ABS*	00000000 P5_PIO
0000ffff l       *ABS*	00000000 P5_DIR
0000ffff l       *ABS*	00000000 P5_PEN
0000ffff l       *ABS*	00000000 P5_POM
0000ffff l       *ABS*	00000000 P6_PIO
0000ffff l       *ABS*	00000000 P6_DIR
0000ffff l       *ABS*	00000000 P6_PEN
0000ffff l       *ABS*	00000000 P6_POM
0000ffff l       *ABS*	00000000 P7_PIO
0000ffff l       *ABS*	00000000 P7_DIR
0000ffff l       *ABS*	00000000 P7_PEN
0000ffff l       *ABS*	00000000 P7_POM
0000ff08 l       *ABS*	00000000 P8_PIO
0000ff28 l       *ABS*	00000000 P8_DIR
0000ffff l       *ABS*	00000000 P8_PEN
0000ffff l       *ABS*	00000000 P8_POM
0000ffff l       *ABS*	00000000 P9_PIO
0000ffff l       *ABS*	00000000 P9_DIR
0000ffff l       *ABS*	00000000 P9_PEN
0000ffff l       *ABS*	00000000 P9_POM
0000ffff l       *ABS*	00000000 P10_PIO
0000ffff l       *ABS*	00000000 P10_DIR
0000ffff l       *ABS*	00000000 P10_PEN
0000ffff l       *ABS*	00000000 P10_POM
0000ffff l       *ABS*	00000000 P11_PIO
0000ffff l       *ABS*	00000000 P11_DIR
0000ffff l       *ABS*	00000000 P11_PEN
0000ffff l       *ABS*	00000000 P11_POM
0000ff0c l       *ABS*	00000000 P12_PIO
0000ff2c l       *ABS*	00000000 P12_DIR
0000003c l       *ABS*	00000000 P12_PEN
0000005c l       *ABS*	00000000 P12_POM
0000ff0d l       *ABS*	00000000 P13_PIO
0000ffff l       *ABS*	00000000 P13_DIR
0000ffff l       *ABS*	00000000 P13_PEN
0000ffff l       *ABS*	00000000 P13_POM
0000ffff l       *ABS*	00000000 P14_PIO
0000ffff l       *ABS*	00000000 P14_DIR
0000ffff l       *ABS*	00000000 P14_PEN
0000ffff l       *ABS*	00000000 P14_POM
0000ffff l       *ABS*	00000000 P15_PIO
0000ffff l       *ABS*	00000000 P15_DIR
0000ffff l       *ABS*	00000000 P15_PEN
0000ffff l       *ABS*	00000000 P15_POM
00000000 l       *ABS*	00000000 PORT_1
00000008 l       *ABS*	00000000 PORT_3
00000010 l       *ABS*	00000000 PORT_4
00000018 l       *ABS*	00000000 PORT_8
00000020 l       *ABS*	00000000 PORT_12
00000028 l       *ABS*	00000000 PORT_13
00000140 l       .text	00000000 mystart
0000014b l       .text	00000000 default_handler
00000000 l    df *ABS*	00000000 build/src/main.o
000ffef0 l       *ABS*	00000000 r8
000ffee8 l       *ABS*	00000000 r16
000ffee0 l       *ABS*	00000000 r24
000ffef1 l       *ABS*	00000000 r9
000ffee9 l       *ABS*	00000000 r17
000ffee1 l       *ABS*	00000000 r25
000ffef2 l       *ABS*	00000000 r10
000ffeea l       *ABS*	00000000 r18
000ffee2 l       *ABS*	00000000 r26
000ffef3 l       *ABS*	00000000 r11
000ffeeb l       *ABS*	00000000 r19
000ffee3 l       *ABS*	00000000 r27
000ffef4 l       *ABS*	00000000 r12
000ffeec l       *ABS*	00000000 r20
000ffee4 l       *ABS*	00000000 r28
000ffef5 l       *ABS*	00000000 r13
000ffeed l       *ABS*	00000000 r21
000ffee5 l       *ABS*	00000000 r29
000ffef6 l       *ABS*	00000000 r14
000ffeee l       *ABS*	00000000 r22
000ffee6 l       *ABS*	00000000 r30
000ffef7 l       *ABS*	00000000 r15
000ffeef l       *ABS*	00000000 r23
000ffee7 l       *ABS*	00000000 r31
0000023d l       .text	00000000 .L2
00000244 l       .text	00000000 .L3
00000225 l       .text	00000000 .L4
000006a3 l       .text	00000000 .L8
000006b3 l       .text	00000000 .L9
00000702 l       .text	00000000 .L10
0000072f l       .text	00000000 .L11
00000717 l       .text	00000000 .L12
0000072c l       .text	00000000 .L13
000006e9 l       .text	00000000 .L14
00000699 l       .text	00000000 .L15
00000000 l    df *ABS*	00000000 build/src/interrupts.o
000ffef0 l       *ABS*	00000000 r8
000ffee8 l       *ABS*	00000000 r16
000ffee0 l       *ABS*	00000000 r24
000ffef1 l       *ABS*	00000000 r9
000ffee9 l       *ABS*	00000000 r17
000ffee1 l       *ABS*	00000000 r25
000ffef2 l       *ABS*	00000000 r10
000ffeea l       *ABS*	00000000 r18
000ffee2 l       *ABS*	00000000 r26
000ffef3 l       *ABS*	00000000 r11
000ffeeb l       *ABS*	00000000 r19
000ffee3 l       *ABS*	00000000 r27
000ffef4 l       *ABS*	00000000 r12
000ffeec l       *ABS*	00000000 r20
000ffee4 l       *ABS*	00000000 r28
000ffef5 l       *ABS*	00000000 r13
000ffeed l       *ABS*	00000000 r21
000ffee5 l       *ABS*	00000000 r29
000ffef6 l       *ABS*	00000000 r14
000ffeee l       *ABS*	00000000 r22
000ffee6 l       *ABS*	00000000 r30
000ffef7 l       *ABS*	00000000 r15
000ffeef l       *ABS*	00000000 r23
000ffee7 l       *ABS*	00000000 r31
00000000 l    df *ABS*	00000000 unilib.o
000ffef0 l       *ABS*	00000000 r8
000ffee8 l       *ABS*	00000000 r16
000ffee0 l       *ABS*	00000000 r24
000ffef1 l       *ABS*	00000000 r9
000ffee9 l       *ABS*	00000000 r17
000ffee1 l       *ABS*	00000000 r25
000ffef2 l       *ABS*	00000000 r10
000ffeea l       *ABS*	00000000 r18
000ffee2 l       *ABS*	00000000 r26
000ffef3 l       *ABS*	00000000 r11
000ffeeb l       *ABS*	00000000 r19
000ffee3 l       *ABS*	00000000 r27
000ffef4 l       *ABS*	00000000 r12
000ffeec l       *ABS*	00000000 r20
000ffee4 l       *ABS*	00000000 r28
000ffef5 l       *ABS*	00000000 r13
000ffeed l       *ABS*	00000000 r21
000ffee5 l       *ABS*	00000000 r29
000ffef6 l       *ABS*	00000000 r14
000ffeee l       *ABS*	00000000 r22
000ffee6 l       *ABS*	00000000 r30
000ffef7 l       *ABS*	00000000 r15
000ffeef l       *ABS*	00000000 r23
000ffee7 l       *ABS*	00000000 r31
000002f8 l       .text	00000000 .L6
000002d4 l       .text	00000000 .L3
0000032f l       .text	00000000 .L8
0000033c l       .text	00000000 .L28
0000038d l       .text	00000000 .L10
00000375 l       .text	00000000 .L11
00000377 l       .text	00000000 .L29
0000037a l       .text	00000000 .L13
000003cf l       .text	00000000 .L14
000003b9 l       .text	00000000 .L15
000003bc l       .text	00000000 .L17
000003ed l       .text	00000000 .L18
000003f7 l       .text	00000000 .L7
00000438 l       .text	00000000 .L37
00000434 l       .text	00000000 .L38
00000426 l       .text	00000000 .L33
00000404 l       .text	00000000 .L32
00000000 l    df *ABS*	00000000 outchar.o
000ffef0 l       *ABS*	00000000 r8
000ffee8 l       *ABS*	00000000 r16
000ffee0 l       *ABS*	00000000 r24
000ffef1 l       *ABS*	00000000 r9
000ffee9 l       *ABS*	00000000 r17
000ffee1 l       *ABS*	00000000 r25
000ffef2 l       *ABS*	00000000 r10
000ffeea l       *ABS*	00000000 r18
000ffee2 l       *ABS*	00000000 r26
000ffef3 l       *ABS*	00000000 r11
000ffeeb l       *ABS*	00000000 r19
000ffee3 l       *ABS*	00000000 r27
000ffef4 l       *ABS*	00000000 r12
000ffeec l       *ABS*	00000000 r20
000ffee4 l       *ABS*	00000000 r28
000ffef5 l       *ABS*	00000000 r13
000ffeed l       *ABS*	00000000 r21
000ffee5 l       *ABS*	00000000 r29
000ffef6 l       *ABS*	00000000 r14
000ffeee l       *ABS*	00000000 r22
000ffee6 l       *ABS*	00000000 r30
000ffef7 l       *ABS*	00000000 r15
000ffeef l       *ABS*	00000000 r23
000ffee7 l       *ABS*	00000000 r31
00000000 l    df *ABS*	00000000 unilib_portio_asm.o
00000513 l       .text	00000000 set_pin_done
0000053e l       .text	00000000 set_pip_done
0000055f l       .text	00000000 portpin_set_low
000005b7 l       .text	00000000 port_set_high
000005c8 l       .text	00000000 port_set_low
00000606 l       .text	00000000 gpl_return0
000005ff l       .text	00000000 gpl_return1
00000000 l    df *ABS*	00000000 unilib_interrupts.o
000ffef0 l       *ABS*	00000000 r8
000ffee8 l       *ABS*	00000000 r16
000ffee0 l       *ABS*	00000000 r24
000ffef1 l       *ABS*	00000000 r9
000ffee9 l       *ABS*	00000000 r17
000ffee1 l       *ABS*	00000000 r25
000ffef2 l       *ABS*	00000000 r10
000ffeea l       *ABS*	00000000 r18
000ffee2 l       *ABS*	00000000 r26
000ffef3 l       *ABS*	00000000 r11
000ffeeb l       *ABS*	00000000 r19
000ffee3 l       *ABS*	00000000 r27
000ffef4 l       *ABS*	00000000 r12
000ffeec l       *ABS*	00000000 r20
000ffee4 l       *ABS*	00000000 r28
000ffef5 l       *ABS*	00000000 r13
000ffeed l       *ABS*	00000000 r21
000ffee5 l       *ABS*	00000000 r29
000ffef6 l       *ABS*	00000000 r14
000ffeee l       *ABS*	00000000 r22
000ffee6 l       *ABS*	00000000 r30
000ffef7 l       *ABS*	00000000 r15
000ffeef l       *ABS*	00000000 r23
000ffee7 l       *ABS*	00000000 r31
00000657 l       .text	00000000 .L12
000005b6 g       .text	00000000 port_set_nibble2
00000445 g     F .text	0000000c disable_interrupts
00000547 g       .text	00000000 portpin_set_high
000004c0 g       .text	00000000 portpin_set_odio
000ffb08 g     O .bss	00000002 printf_output
000ffb0c g     O .bss	00000002 unilib_tick_counter
0000028f g       .text	00000000 get_fbyte1
00000480 g     F .text	00000002 OUTPUT_NONE
00000766 g       .text	00000000 etext
000ffb06 g     O .bss	00000002 memptr
0000046b g     F .text	00000006 set_outchar_routine
0000000e g       *ABS*	00000000 _bss_size
00000497 g       .text	00000000 portpin_set_output
000002cc g     F .text	0000002d unilib_pause
0000027f g       .text	00000000 get_fbyte0
000004e9 g       .text	00000000 portpin_set_input_nopull
000ffb02 g     O .bss	00000001 unilib_ints_enabled
00000766 g       .plt	00000000 _data_image
00000108 g       .text	00000000 unilib_and_table
000ffb00 g       .plt	00000000 _data_section_start
00000616  w    F .text	00000003 isr_pwm3
00000400 g     F .text	00000039 unilib_pause_ms
0000029f g       .text	00000000 get_fbyte2
00000587 g       .text	00000000 port_set_nibble0
000ffb03 g     O .bss	00000001 unilib_cpu_prescaler
000005b6 g       .text	00000000 port_set_nibble3
000ffb00 g     O .bss	00000002 unilib_lastclockmode
000002f9 g     F .text	00000107 clock_config
000005e9 g       .text	00000000 portpin_get
00000622  w    F .text	00000003 isr_recv_uart1
00000000 g       *ABS*	00000000 _data_section_size
0000061c  w    F .text	00000003 isr_recv_uart0
00000000 g       .text	00000000 start
000005db g       .text	00000000 port_get
00000110 g       .text	00000000 unilib_port_table
0000059e g       .text	00000000 port_set_nibble1
0000055f g       .text	00000000 portpin_set_low
00000613  w    F .text	00000003 isr_pwm2
00000516 g       .text	00000000 portpin_set_input_pullup
00000451 g     F .text	0000001a OUTPUT_MEMORY
000ffb00 g       .bss	00000000 _bss_start
00000100 g       .text	00000000 unilib_or_table
000002bf g     F .text	0000000d unilib_init
00000766 g       *ABS*	00000000 _data_image_end
00000628  w    F .text	00000003 isr_ext1
0000062b g     F .text	00000043 _tick_handler
00000482 g     F .text	00000015 set_outchar_memory
00000471 g     F .text	0000000f unilib_outchar
0000060d  w    F .text	00000003 isr_pwm0
00000200 g     F .text	0000008b out_byte
00000577 g       .text	00000000 port_set
00000625  w    F .text	00000003 isr_ext0
00000610  w    F .text	00000003 isr_pwm1
00000619  w    F .text	00000003 isr_uart0_send
0000061f  w    F .text	00000003 isr_uart1_send
00000439 g     F .text	0000000c enable_interrupts
000ffb00 g       .plt	00000000 edata
000002af g       .text	00000000 get_fbyte3
000ffb04 g     O .bss	00000001 unilib_cpu_freq
00000541 g       .text	00000000 portpin_set
0000027e g     F .text	00000001 user_tick
0000066b g     F .text	0000011d main
000ffb0a g     O .bss	00000002 unilib_tick_scale



Disassembly of section .text:

00000000 <start>:
   0:	40 01 4b 01                   	cmp	!f4b01 <ADTRGS1+0x4374>, #1
   4:	4b 01                         	cmp	a, 0xfff01
   6:	4b 01                         	cmp	a, 0xfff01
   8:	4b 01                         	cmp	a, 0xfff01
   a:	4b 01                         	cmp	a, 0xfff01
   c:	4b 01                         	cmp	a, 0xfff01
   e:	4b 01                         	cmp	a, 0xfff01
  10:	4b 01                         	cmp	a, 0xfff01
  12:	25                            	subw	ax, de
  13:	06 4b                         	addw	ax, 0xffe4b
  15:	01                            	addw	ax, ax
  16:	4b 01                         	cmp	a, 0xfff01
  18:	4b 01                         	cmp	a, 0xfff01
  1a:	4b 01                         	cmp	a, 0xfff01
  1c:	4b 01                         	cmp	a, 0xfff01
  1e:	2b 06                         	sub	a, 0xfff06
  20:	4b 01                         	cmp	a, 0xfff01
  22:	19 06 1c 06                   	mov	7174[b], #6
  26:	4b 01                         	cmp	a, 0xfff01
  28:	4b 01                         	cmp	a, 0xfff01
  2a:	4b 01                         	cmp	a, 0xfff01
  2c:	0d                            	add	a, [hl]
  2d:	06 4b                         	addw	ax, 0xffe4b
  2f:	01                            	addw	ax, ax
  30:	10 06                         	addw	sp, #6
  32:	4b 01                         	cmp	a, 0xfff01
  34:	4b 01                         	cmp	a, 0xfff01
  36:	1f 06 22                      	addc	a, !f2206 <ADTRGS1+0x1a79>
  39:	06 4b                         	addw	ax, 0xffe4b
  3b:	01                            	addw	ax, ax
  3c:	4b 01                         	cmp	a, 0xfff01
  3e:	4b 01                         	cmp	a, 0xfff01
  40:	4b 01                         	cmp	a, 0xfff01
  42:	4b 01                         	cmp	a, 0xfff01
  44:	4b 01                         	cmp	a, 0xfff01
  46:	4b 01                         	cmp	a, 0xfff01
  48:	4b 01                         	cmp	a, 0xfff01
  4a:	28 06 4b                      	mov	19206[c], a
  4d:	01                            	addw	ax, ax
  4e:	4b 01                         	cmp	a, 0xfff01
  50:	4b 01                         	cmp	a, 0xfff01
  52:	4b 01                         	cmp	a, 0xfff01
  54:	4b 01                         	cmp	a, 0xfff01
  56:	13                            	movw	ax, bc
  57:	06 4b                         	addw	ax, 0xffe4b
  59:	01                            	addw	ax, ax
  5a:	16                            	movw	hl, ax
  5b:	06 4b                         	addw	ax, 0xffe4b
  5d:	01                            	addw	ax, ax
  5e:	4b 01                         	cmp	a, 0xfff01
  60:	4b 01                         	cmp	a, 0xfff01
  62:	4b 01                         	cmp	a, 0xfff01
  64:	4b 01                         	cmp	a, 0xfff01
  66:	4b 01                         	cmp	a, 0xfff01
  68:	4b 01                         	cmp	a, 0xfff01
  6a:	4b 01                         	cmp	a, 0xfff01
  6c:	4b 01                         	cmp	a, 0xfff01
  6e:	4b 01                         	cmp	a, 0xfff01
  70:	4b 01                         	cmp	a, 0xfff01
  72:	4b 01                         	cmp	a, 0xfff01
  74:	4b 01                         	cmp	a, 0xfff01
  76:	4b 01                         	cmp	a, 0xfff01
  78:	4b 01                         	cmp	a, 0xfff01
  7a:	4b 01                         	cmp	a, 0xfff01
  7c:	4b 01                         	cmp	a, 0xfff01
  7e:	4b 01                         	cmp	a, 0xfff01
  80:	4b 01                         	cmp	a, 0xfff01
  82:	4b 01                         	cmp	a, 0xfff01
  84:	4b 01                         	cmp	a, 0xfff01
  86:	4b 01                         	cmp	a, 0xfff01
  88:	4b 01                         	cmp	a, 0xfff01
  8a:	4b 01                         	cmp	a, 0xfff01
  8c:	4b 01                         	cmp	a, 0xfff01
  8e:	4b 01                         	cmp	a, 0xfff01
  90:	4b 01                         	cmp	a, 0xfff01
  92:	4b 01                         	cmp	a, 0xfff01
  94:	4b 01                         	cmp	a, 0xfff01
  96:	4b 01                         	cmp	a, 0xfff01
  98:	4b 01                         	cmp	a, 0xfff01
  9a:	4b 01                         	cmp	a, 0xfff01
  9c:	4b 01                         	cmp	a, 0xfff01
  9e:	4b 01                         	cmp	a, 0xfff01
  a0:	4b 01                         	cmp	a, 0xfff01
  a2:	4b 01                         	cmp	a, 0xfff01
  a4:	4b 01                         	cmp	a, 0xfff01
  a6:	4b 01                         	cmp	a, 0xfff01
  a8:	4b 01                         	cmp	a, 0xfff01
  aa:	4b 01                         	cmp	a, 0xfff01
  ac:	4b 01                         	cmp	a, 0xfff01
  ae:	4b 01                         	cmp	a, 0xfff01
  b0:	4b 01                         	cmp	a, 0xfff01
  b2:	4b 01                         	cmp	a, 0xfff01
  b4:	4b 01                         	cmp	a, 0xfff01
  b6:	4b 01                         	cmp	a, 0xfff01
  b8:	4b 01                         	cmp	a, 0xfff01
  ba:	4b 01                         	cmp	a, 0xfff01
  bc:	4b 01                         	cmp	a, 0xfff01
  be:	4b 01                         	cmp	a, 0xfff01
  c0:	00                            	nop
  c1:	81                            	inc	a
  c2:	e8 04                         	mov	b, 0xfff04
	...

00000100 <unilib_or_table>:
 100:	01                            	addw	ax, ax
 101:	02 04 08                      	addw	ax, !f0804 <ADTRGS1+0x77>
 104:	10 20                         	addw	sp, #32
 106:	40 80 fe fd                   	cmp	!ffe80 <unilib_tick_counter+0x374>, #253

00000108 <unilib_and_table>:
 108:	fe fd fb                      	call	$!fffffd08 <PMC+0xffeffd0a>
 10b:	f7                            	clrw	bc
 10c:	ef df                         	br	$ed <P12_POM+0x91>
 10e:	bf 7f 01                      	movw	!f017f <SSE0+0x5d>, ax

00000110 <unilib_port_table>:
 110:	01                            	addw	ax, ax
 111:	ff                            	brk1
 112:	21                            	subw	ax, ax
 113:	ff                            	brk1
 114:	31 00 51 00                   	btclr	0xffe51.0, $118 <unilib_port_table+0x8>
 118:	03                            	addw	ax, bc
 119:	ff                            	brk1
 11a:	23                            	subw	ax, bc
 11b:	ff                            	brk1
 11c:	33                            	xchw	ax, bc
 11d:	00                            	nop
 11e:	ff                            	brk1
 11f:	ff                            	brk1
 120:	04 ff 24                      	addw	ax, #0x24ff
 123:	ff                            	brk1
 124:	34 00 ff                      	movw	de, #0xff00
 127:	ff                            	brk1
 128:	08                            	xch	a, x
 129:	ff                            	brk1
 12a:	28 ff ff                      	mov	65535[c], a
 12d:	ff                            	brk1
 12e:	ff                            	brk1
 12f:	ff                            	brk1
 130:	0c ff                         	add	a, #255
 132:	2c ff                         	sub	a, #255
 134:	3c 00                         	subc	a, #0
 136:	5c 00                         	and	a, #0
 138:	0d                            	add	a, [hl]
 139:	ff                            	brk1
 13a:	ff                            	brk1
 13b:	ff                            	brk1
 13c:	ff                            	brk1
 13d:	ff                            	brk1
 13e:	ff                            	brk1
 13f:	ff                            	brk1

00000140 <mystart>:
 140:	cb f8 e0 fe                   	movw	sp, #0xfee0
 144:	61 cf                         	sel	rb0
 146:	41 00                         	mov	es, #0
 148:	ee 20 05                      	br	$!66b <main>

0000014b <default_handler>:
 14b:	61 fc                         	reti
	...

00000200 <out_byte>:
 200:	61 ef                         	sel	rb2
 202:	c1                            	push	ax
 203:	c3                            	push	bc
 204:	61 cf                         	sel	rb0
 206:	20 04                         	subw	sp, #4
 208:	88 0c                         	mov	a, [sp+12]
 20a:	9d ea                         	mov	0xffeea, a
 20c:	51 0c                         	mov	a, #12
 20e:	98 00                         	mov	[sp+0], a
 210:	f1                            	clrb	a
 211:	98 02                         	mov	[sp+2], a
 213:	fd 5f 05                      	call	!55f <portpin_set_low>
 216:	30 12 00                      	movw	ax, #18
 219:	b8 00                         	movw	[sp+0], ax
 21b:	f6                            	clrw	ax
 21c:	b8 02                         	movw	[sp+2], ax
 21e:	fd cc 02                      	call	!2cc <unilib_pause>
 221:	c9 e8 08 00                   	movw	0xffee8, #8

00000225 <.L4>:
 225:	8d ea                         	mov	a, 0xffeea
 227:	5c 01                         	and	a, #1
 229:	9d f0                         	mov	0xffef0, a
 22b:	51 0c                         	mov	a, #12
 22d:	98 00                         	mov	[sp+0], a
 22f:	d4 f0                         	cmp0	0xffef0
 231:	61 f8                         	sknz
 233:	ef 08                         	br	$23d <.L2>
 235:	f1                            	clrb	a
 236:	98 02                         	mov	[sp+2], a
 238:	fd 47 05                      	call	!547 <portpin_set_high>
 23b:	ef 07                         	br	$244 <.L3>

0000023d <.L2>:
 23d:	8d f0                         	mov	a, 0xffef0
 23f:	98 02                         	mov	[sp+2], a
 241:	fd 5f 05                      	call	!55f <portpin_set_low>

00000244 <.L3>:
 244:	8d ea                         	mov	a, 0xffeea
 246:	31 1a                         	shr	a, 1
 248:	9d ea                         	mov	0xffeea, a
 24a:	30 12 00                      	movw	ax, #18
 24d:	b8 00                         	movw	[sp+0], ax
 24f:	f6                            	clrw	ax
 250:	b8 02                         	movw	[sp+2], ax
 252:	fd cc 02                      	call	!2cc <unilib_pause>
 255:	b6 e8                         	decw	0xffee8
 257:	ad e8                         	movw	ax, 0xffee8
 259:	44 00 00                      	cmpw	ax, #0
 25c:	61 e8                         	skz
 25e:	ef c5                         	br	$225 <.L4>
 260:	51 0c                         	mov	a, #12
 262:	98 00                         	mov	[sp+0], a
 264:	f1                            	clrb	a
 265:	98 02                         	mov	[sp+2], a
 267:	fd 47 05                      	call	!547 <portpin_set_high>
 26a:	30 24 00                      	movw	ax, #36
 26d:	b8 00                         	movw	[sp+0], ax
 26f:	f6                            	clrw	ax
 270:	b8 02                         	movw	[sp+2], ax
 272:	fd cc 02                      	call	!2cc <unilib_pause>
 275:	10 04                         	addw	sp, #4
 277:	61 ef                         	sel	rb2
 279:	c2                            	pop	bc
 27a:	c0                            	pop	ax
 27b:	61 cf                         	sel	rb0
 27d:	d7                            	ret

0000027e <user_tick>:
 27e:	d7                            	ret

0000027f <get_fbyte0>:
 27f:	c3                            	push	bc
 280:	c7                            	push	hl
 281:	a8 08                         	movw	ax, [sp+8]
 283:	16                            	movw	hl, ax
 284:	41 00                         	mov	es, #0
 286:	11 8b                         	mov	a, es:[hl]
 288:	41 00                         	mov	es, #0
 28a:	9d f0                         	mov	0xffef0, a
 28c:	c6                            	pop	hl
 28d:	c2                            	pop	bc
 28e:	d7                            	ret

0000028f <get_fbyte1>:
 28f:	c3                            	push	bc
 290:	c7                            	push	hl
 291:	a8 08                         	movw	ax, [sp+8]
 293:	16                            	movw	hl, ax
 294:	41 01                         	mov	es, #1
 296:	11 8b                         	mov	a, es:[hl]
 298:	41 00                         	mov	es, #0
 29a:	9d f0                         	mov	0xffef0, a
 29c:	c6                            	pop	hl
 29d:	c2                            	pop	bc
 29e:	d7                            	ret

0000029f <get_fbyte2>:
 29f:	c3                            	push	bc
 2a0:	c7                            	push	hl
 2a1:	a8 08                         	movw	ax, [sp+8]
 2a3:	16                            	movw	hl, ax
 2a4:	41 02                         	mov	es, #2
 2a6:	11 8b                         	mov	a, es:[hl]
 2a8:	41 00                         	mov	es, #0
 2aa:	9d f0                         	mov	0xffef0, a
 2ac:	c6                            	pop	hl
 2ad:	c2                            	pop	bc
 2ae:	d7                            	ret

000002af <get_fbyte3>:
 2af:	c3                            	push	bc
 2b0:	c7                            	push	hl
 2b1:	a8 08                         	movw	ax, [sp+8]
 2b3:	16                            	movw	hl, ax
 2b4:	41 03                         	mov	es, #3
 2b6:	11 8b                         	mov	a, es:[hl]
 2b8:	41 00                         	mov	es, #0
 2ba:	9d f0                         	mov	0xffef0, a
 2bc:	c6                            	pop	hl
 2bd:	c2                            	pop	bc
 2be:	d7                            	ret

000002bf <unilib_init>:
 2bf:	f5 02 fb                      	clrb	!ffb02 <unilib_ints_enabled>
 2c2:	e5 03 fb                      	oneb	!ffb03 <unilib_cpu_prescaler>
 2c5:	30 80 04                      	movw	ax, #0x480
 2c8:	bf 08 fb                      	movw	!ffb08 <printf_output>, ax
 2cb:	d7                            	ret

000002cc <unilib_pause>:
 2cc:	a8 04                         	movw	ax, [sp+4]
 2ce:	bd f0                         	movw	0xffef0, ax
 2d0:	a8 06                         	movw	ax, [sp+6]
 2d2:	bd f2                         	movw	0xffef2, ax

000002d4 <.L3>:
 2d4:	ad f2                         	movw	ax, 0xffef2
 2d6:	44 00 00                      	cmpw	ax, #0
 2d9:	ad f0                         	movw	ax, 0xffef0
 2db:	61 f8                         	sknz
 2dd:	44 00 00                      	cmpw	ax, #0
 2e0:	61 f8                         	sknz
 2e2:	ef 14                         	br	$2f8 <.L6>
 2e4:	00                            	nop
 2e5:	ad f0                         	movw	ax, 0xffef0
 2e7:	04 ff ff                      	addw	ax, #0xffff
 2ea:	bd f0                         	movw	0xffef0, ax
 2ec:	ad f2                         	movw	ax, 0xffef2
 2ee:	61 d8                         	sknc
 2f0:	a1                            	incw	ax
 2f1:	04 ff ff                      	addw	ax, #0xffff
 2f4:	bd f2                         	movw	0xffef2, ax
 2f6:	ef dc                         	br	$2d4 <.L3>

000002f8 <.L6>:
 2f8:	d7                            	ret

000002f9 <clock_config>:
 2f9:	61 ef                         	sel	rb2
 2fb:	c1                            	push	ax
 2fc:	c3                            	push	bc
 2fd:	61 cf                         	sel	rb0
 2ff:	20 04                         	subw	sp, #4
 301:	a8 0c                         	movw	ax, [sp+12]
 303:	bd e8                         	movw	0xffee8, ax
 305:	8f 04 fb                      	mov	a, !ffb04 <unilib_cpu_freq>
 308:	8f c5 02                      	mov	a, !f02c5 <PLLCTL>
 30b:	5c fb                         	and	a, #251
 30d:	9f c5 02                      	mov	!f02c5 <PLLCTL>, a
 310:	f5 a4 ff                      	clrb	!fffa4 <CKC>
 313:	8d e8                         	mov	a, 0xffee8
 315:	5c 20                         	and	a, #32
 317:	9d ea                         	mov	0xffeea, a
 319:	f1                            	clrb	a
 31a:	9d eb                         	mov	0xffeeb, a
 31c:	ad ea                         	movw	ax, 0xffeea
 31e:	44 00 00                      	cmpw	ax, #0
 321:	61 f8                         	sknz
 323:	ef 0a                         	br	$32f <.L8>
 325:	8f a1 ff                      	mov	a, !fffa1 <CSC>
 328:	9d f0                         	mov	0xffef0, a
 32a:	5a f0 fe                      	and	0xffef0, #254
 32d:	ef 0d                         	br	$33c <.L28>

0000032f <.L8>:
 32f:	51 40                         	mov	a, #64
 331:	9f a0 ff                      	mov	!fffa0 <CMC>, a
 334:	8f a1 ff                      	mov	a, !fffa1 <CSC>
 337:	9d f0                         	mov	0xffef0, a
 339:	5a f0 7f                      	and	0xffef0, #127

0000033c <.L28>:
 33c:	8d f0                         	mov	a, 0xffef0
 33e:	9f a1 ff                      	mov	!fffa1 <CSC>, a
 341:	30 e8 03                      	movw	ax, #0x3e8
 344:	b8 00                         	movw	[sp+0], ax
 346:	f6                            	clrw	ax
 347:	b8 02                         	movw	[sp+2], ax
 349:	fd cc 02                      	call	!2cc <unilib_pause>
 34c:	8d e8                         	mov	a, 0xffee8
 34e:	5c 80                         	and	a, #128
 350:	9d f0                         	mov	0xffef0, a
 352:	f1                            	clrb	a
 353:	9d f1                         	mov	0xffef1, a
 355:	ad f0                         	movw	ax, 0xffef0
 357:	44 00 00                      	cmpw	ax, #0
 35a:	61 f8                         	sknz
 35c:	ef 2f                         	br	$38d <.L10>
 35e:	8d e8                         	mov	a, 0xffee8
 360:	5c 10                         	and	a, #16
 362:	9d f2                         	mov	0xffef2, a
 364:	8d f1                         	mov	a, 0xffef1
 366:	9d f3                         	mov	0xffef3, a
 368:	ad f2                         	movw	ax, 0xffef2
 36a:	44 00 00                      	cmpw	ax, #0
 36d:	61 f8                         	sknz
 36f:	ef 04                         	br	$375 <.L11>
 371:	51 13                         	mov	a, #19
 373:	ef 02                         	br	$377 <.L29>

00000375 <.L11>:
 375:	51 11                         	mov	a, #17

00000377 <.L29>:
 377:	9f c5 02                      	mov	!f02c5 <PLLCTL>, a

0000037a <.L13>:
 37a:	8f c6 02                      	mov	a, !f02c6 <PLLSTS>
 37d:	4c 00                         	cmp	a, #0
 37f:	71 ff                         	xor1	cy, a.7
 381:	61 c8                         	skc
 383:	ef f5                         	br	$37a <.L13>
 385:	8f c5 02                      	mov	a, !f02c5 <PLLCTL>
 388:	6c 04                         	or	a, #4
 38a:	9f c5 02                      	mov	!f02c5 <PLLCTL>, a

0000038d <.L10>:
 38d:	8d e8                         	mov	a, 0xffee8
 38f:	5c 40                         	and	a, #64
 391:	9d f0                         	mov	0xffef0, a
 393:	f1                            	clrb	a
 394:	9d f1                         	mov	0xffef1, a
 396:	ad f0                         	movw	ax, 0xffef0
 398:	44 00 00                      	cmpw	ax, #0
 39b:	61 f8                         	sknz
 39d:	ef 30                         	br	$3cf <.L14>
 39f:	8d e8                         	mov	a, 0xffee8
 3a1:	5c 10                         	and	a, #16
 3a3:	9d f2                         	mov	0xffef2, a
 3a5:	8d f1                         	mov	a, 0xffef1
 3a7:	9d f3                         	mov	0xffef3, a
 3a9:	ad f2                         	movw	ax, 0xffef2
 3ab:	44 00 00                      	cmpw	ax, #0
 3ae:	61 f8                         	sknz
 3b0:	ef 07                         	br	$3b9 <.L15>
 3b2:	51 03                         	mov	a, #3
 3b4:	9f c5 02                      	mov	!f02c5 <PLLCTL>, a
 3b7:	ef 03                         	br	$3bc <.L17>

000003b9 <.L15>:
 3b9:	e5 c5 02                      	oneb	!f02c5 <PLLCTL>

000003bc <.L17>:
 3bc:	8f c6 02                      	mov	a, !f02c6 <PLLSTS>
 3bf:	4c 00                         	cmp	a, #0
 3c1:	71 ff                         	xor1	cy, a.7
 3c3:	61 c8                         	skc
 3c5:	ef f5                         	br	$3bc <.L17>
 3c7:	8f c5 02                      	mov	a, !f02c5 <PLLCTL>
 3ca:	6c 04                         	or	a, #4
 3cc:	9f c5 02                      	mov	!f02c5 <PLLCTL>, a

000003cf <.L14>:
 3cf:	5a e8 03                      	and	0xffee8, #3
 3d2:	8d e8                         	mov	a, 0xffee8
 3d4:	9f c7 02                      	mov	!f02c7 <MDIV>, a
 3d7:	ad ea                         	movw	ax, 0xffeea
 3d9:	44 00 00                      	cmpw	ax, #0
 3dc:	61 f8                         	sknz
 3de:	ef 0d                         	br	$3ed <.L18>
 3e0:	f5 a4 ff                      	clrb	!fffa4 <CKC>
 3e3:	51 c0                         	mov	a, #192
 3e5:	9f a1 ff                      	mov	!fffa1 <CSC>, a
 3e8:	f5 a0 ff                      	clrb	!fffa0 <CMC>
 3eb:	ef 0a                         	br	$3f7 <.L7>

000003ed <.L18>:
 3ed:	51 10                         	mov	a, #16
 3ef:	9f a4 ff                      	mov	!fffa4 <CKC>, a
 3f2:	51 41                         	mov	a, #65
 3f4:	9f a1 ff                      	mov	!fffa1 <CSC>, a

000003f7 <.L7>:
 3f7:	10 04                         	addw	sp, #4
 3f9:	61 ef                         	sel	rb2
 3fb:	c2                            	pop	bc
 3fc:	c0                            	pop	ax
 3fd:	61 cf                         	sel	rb0
 3ff:	d7                            	ret

00000400 <unilib_pause_ms>:
 400:	a8 04                         	movw	ax, [sp+4]
 402:	bd f4                         	movw	0xffef4, ax

00000404 <.L32>:
 404:	ad f4                         	movw	ax, 0xffef4
 406:	44 00 00                      	cmpw	ax, #0
 409:	61 f8                         	sknz
 40b:	ef 2b                         	br	$438 <.L37>
 40d:	8f 04 fb                      	mov	a, !ffb04 <unilib_cpu_freq>
 410:	70                            	mov	x, a
 411:	51 00                         	mov	a, #0
 413:	bd f6                         	movw	0xffef6, ax
 415:	01                            	addw	ax, ax
 416:	06 f6                         	addw	ax, 0xffef6
 418:	bd f2                         	movw	0xffef2, ax
 41a:	31 5d                         	shlw	ax, 5
 41c:	bd f0                         	movw	0xffef0, ax
 41e:	ad f2                         	movw	ax, 0xffef2
 420:	06 f0                         	addw	ax, 0xffef0
 422:	06 f6                         	addw	ax, 0xffef6
 424:	bd f0                         	movw	0xffef0, ax

00000426 <.L33>:
 426:	ad f0                         	movw	ax, 0xffef0
 428:	44 00 00                      	cmpw	ax, #0
 42b:	61 f8                         	sknz
 42d:	ef 05                         	br	$434 <.L38>
 42f:	00                            	nop
 430:	b6 f0                         	decw	0xffef0
 432:	ef f2                         	br	$426 <.L33>

00000434 <.L38>:
 434:	b6 f4                         	decw	0xffef4
 436:	ef cc                         	br	$404 <.L32>

00000438 <.L37>:
 438:	d7                            	ret

00000439 <enable_interrupts>:
 439:	71 7a fa                      	ei
 43c:	e5 02 fb                      	oneb	!ffb02 <unilib_ints_enabled>
 43f:	51 fe                         	mov	a, #254
 441:	9f 7c 00                      	mov	!f007c <INTMSK>, a
 444:	d7                            	ret

00000445 <disable_interrupts>:
 445:	71 7b fa                      	di
 448:	f5 02 fb                      	clrb	!ffb02 <unilib_ints_enabled>
 44b:	51 ff                         	mov	a, #255
 44d:	9f 7c 00                      	mov	!f007c <INTMSK>, a
 450:	d7                            	ret

00000451 <OUTPUT_MEMORY>:
 451:	af 06 fb                      	movw	ax, !ffb06 <memptr>
 454:	bd f0                         	movw	0xffef0, ax
 456:	a1                            	incw	ax
 457:	bf 06 fb                      	movw	!ffb06 <memptr>, ax
 45a:	ad f0                         	movw	ax, 0xffef0
 45c:	12                            	movw	bc, ax
 45d:	88 04                         	mov	a, [sp+4]
 45f:	48 00 00                      	mov	0[bc], a
 462:	af 06 fb                      	movw	ax, !ffb06 <memptr>
 465:	12                            	movw	bc, ax
 466:	f1                            	clrb	a
 467:	48 00 00                      	mov	0[bc], a
 46a:	d7                            	ret

0000046b <set_outchar_routine>:
 46b:	a8 04                         	movw	ax, [sp+4]
 46d:	bf 08 fb                      	movw	!ffb08 <printf_output>, ax
 470:	d7                            	ret

00000471 <unilib_outchar>:
 471:	20 02                         	subw	sp, #2
 473:	88 06                         	mov	a, [sp+6]
 475:	98 00                         	mov	[sp+0], a
 477:	af 08 fb                      	movw	ax, !ffb08 <printf_output>
 47a:	12                            	movw	bc, ax
 47b:	61 da                         	call	bc
 47d:	10 02                         	addw	sp, #2
 47f:	d7                            	ret

00000480 <OUTPUT_NONE>:
 480:	00                            	nop
 481:	d7                            	ret

00000482 <set_outchar_memory>:
 482:	a8 04                         	movw	ax, [sp+4]
 484:	bd f0                         	movw	0xffef0, ax
 486:	30 51 04                      	movw	ax, #0x451
 489:	bf 08 fb                      	movw	!ffb08 <printf_output>, ax
 48c:	ad f0                         	movw	ax, 0xffef0
 48e:	bf 06 fb                      	movw	!ffb06 <memptr>, ax
 491:	12                            	movw	bc, ax
 492:	f1                            	clrb	a
 493:	48 00 00                      	mov	0[bc], a
 496:	d7                            	ret

00000497 <portpin_set_output>:
 497:	c3                            	push	bc
 498:	88 06                         	mov	a, [sp+6]
 49a:	72                            	mov	c, a
 49b:	11 69 12 01                   	movw	ax, es:274[c]
 49f:	16                            	movw	hl, ax
 4a0:	88 08                         	mov	a, [sp+8]
 4a2:	5c 07                         	and	a, #7
 4a4:	72                            	mov	c, a
 4a5:	11 29 08 01                   	mov	a, es:264[c]
 4a9:	5d                            	and	a, [hl]
 4aa:	9b                            	mov	[hl], a
 4ab:	88 06                         	mov	a, [sp+6]
 4ad:	72                            	mov	c, a
 4ae:	11 69 16 01                   	movw	ax, es:278[c]
 4b2:	16                            	movw	hl, ax
 4b3:	88 08                         	mov	a, [sp+8]
 4b5:	5c 07                         	and	a, #7
 4b7:	72                            	mov	c, a
 4b8:	11 29 08 01                   	mov	a, es:264[c]
 4bc:	5d                            	and	a, [hl]
 4bd:	9b                            	mov	[hl], a
 4be:	c2                            	pop	bc
 4bf:	d7                            	ret

000004c0 <portpin_set_odio>:
 4c0:	c3                            	push	bc
 4c1:	88 06                         	mov	a, [sp+6]
 4c3:	72                            	mov	c, a
 4c4:	11 69 12 01                   	movw	ax, es:274[c]
 4c8:	16                            	movw	hl, ax
 4c9:	88 08                         	mov	a, [sp+8]
 4cb:	5c 07                         	and	a, #7
 4cd:	72                            	mov	c, a
 4ce:	11 29 08 01                   	mov	a, es:264[c]
 4d2:	5d                            	and	a, [hl]
 4d3:	9b                            	mov	[hl], a
 4d4:	88 06                         	mov	a, [sp+6]
 4d6:	72                            	mov	c, a
 4d7:	11 69 16 01                   	movw	ax, es:278[c]
 4db:	16                            	movw	hl, ax
 4dc:	88 08                         	mov	a, [sp+8]
 4de:	5c 07                         	and	a, #7
 4e0:	72                            	mov	c, a
 4e1:	11 29 00 01                   	mov	a, es:256[c]
 4e5:	6d                            	or	a, [hl]
 4e6:	9b                            	mov	[hl], a
 4e7:	c2                            	pop	bc
 4e8:	d7                            	ret

000004e9 <portpin_set_input_nopull>:
 4e9:	c3                            	push	bc
 4ea:	c7                            	push	hl
 4eb:	88 08                         	mov	a, [sp+8]
 4ed:	72                            	mov	c, a
 4ee:	11 69 12 01                   	movw	ax, es:274[c]
 4f2:	16                            	movw	hl, ax
 4f3:	88 0a                         	mov	a, [sp+10]
 4f5:	5c 07                         	and	a, #7
 4f7:	72                            	mov	c, a
 4f8:	11 29 00 01                   	mov	a, es:256[c]
 4fc:	9d f0                         	mov	0xffef0, a
 4fe:	6d                            	or	a, [hl]
 4ff:	9b                            	mov	[hl], a
 500:	88 08                         	mov	a, [sp+8]
 502:	72                            	mov	c, a
 503:	11 69 14 01                   	movw	ax, es:276[c]
 507:	44 ff ff                      	cmpw	ax, #0xffff
 50a:	dd 07                         	bz	$513 <set_pin_done>
 50c:	16                            	movw	hl, ax
 50d:	8d f0                         	mov	a, 0xffef0
 50f:	7c ff                         	xor	a, #255
 511:	5d                            	and	a, [hl]
 512:	9b                            	mov	[hl], a

00000513 <set_pin_done>:
 513:	c6                            	pop	hl
 514:	c2                            	pop	bc
 515:	d7                            	ret

00000516 <portpin_set_input_pullup>:
 516:	c3                            	push	bc
 517:	c7                            	push	hl
 518:	88 08                         	mov	a, [sp+8]
 51a:	72                            	mov	c, a
 51b:	11 69 12 01                   	movw	ax, es:274[c]
 51f:	16                            	movw	hl, ax
 520:	88 0a                         	mov	a, [sp+10]
 522:	5c 07                         	and	a, #7
 524:	72                            	mov	c, a
 525:	11 29 00 01                   	mov	a, es:256[c]
 529:	9d f0                         	mov	0xffef0, a
 52b:	6d                            	or	a, [hl]
 52c:	9b                            	mov	[hl], a
 52d:	88 08                         	mov	a, [sp+8]
 52f:	72                            	mov	c, a
 530:	11 69 14 01                   	movw	ax, es:276[c]
 534:	44 ff ff                      	cmpw	ax, #0xffff
 537:	dd 05                         	bz	$53e <set_pip_done>
 539:	16                            	movw	hl, ax
 53a:	8d f0                         	mov	a, 0xffef0
 53c:	6d                            	or	a, [hl]
 53d:	9b                            	mov	[hl], a

0000053e <set_pip_done>:
 53e:	c6                            	pop	hl
 53f:	c2                            	pop	bc
 540:	d7                            	ret

00000541 <portpin_set>:
 541:	88 08                         	mov	a, [sp+8]
 543:	4c 00                         	cmp	a, #0
 545:	dd 18                         	bz	$55f <portpin_set_low>

00000547 <portpin_set_high>:
 547:	c3                            	push	bc
 548:	c7                            	push	hl
 549:	88 08                         	mov	a, [sp+8]
 54b:	72                            	mov	c, a
 54c:	11 69 10 01                   	movw	ax, es:272[c]
 550:	16                            	movw	hl, ax
 551:	88 0a                         	mov	a, [sp+10]
 553:	5c 07                         	and	a, #7
 555:	72                            	mov	c, a
 556:	11 29 00 01                   	mov	a, es:256[c]
 55a:	6d                            	or	a, [hl]
 55b:	9b                            	mov	[hl], a
 55c:	c6                            	pop	hl
 55d:	c2                            	pop	bc
 55e:	d7                            	ret

0000055f <portpin_set_low>:
 55f:	c3                            	push	bc
 560:	c7                            	push	hl
 561:	88 08                         	mov	a, [sp+8]
 563:	72                            	mov	c, a
 564:	11 69 10 01                   	movw	ax, es:272[c]
 568:	16                            	movw	hl, ax
 569:	88 0a                         	mov	a, [sp+10]
 56b:	5c 07                         	and	a, #7
 56d:	72                            	mov	c, a
 56e:	11 29 08 01                   	mov	a, es:264[c]
 572:	5d                            	and	a, [hl]
 573:	9b                            	mov	[hl], a
 574:	c6                            	pop	hl
 575:	c2                            	pop	bc
 576:	d7                            	ret

00000577 <port_set>:
 577:	c3                            	push	bc
 578:	c7                            	push	hl
 579:	88 08                         	mov	a, [sp+8]
 57b:	72                            	mov	c, a
 57c:	11 69 10 01                   	movw	ax, es:272[c]
 580:	16                            	movw	hl, ax
 581:	88 0a                         	mov	a, [sp+10]
 583:	9b                            	mov	[hl], a
 584:	c6                            	pop	hl
 585:	c2                            	pop	bc
 586:	d7                            	ret

00000587 <port_set_nibble0>:
 587:	c3                            	push	bc
 588:	c7                            	push	hl
 589:	88 08                         	mov	a, [sp+8]
 58b:	72                            	mov	c, a
 58c:	11 69 10 01                   	movw	ax, es:272[c]
 590:	16                            	movw	hl, ax
 591:	8b                            	mov	a, [hl]
 592:	5c f0                         	and	a, #240
 594:	9b                            	mov	[hl], a
 595:	88 0a                         	mov	a, [sp+10]
 597:	5c 0f                         	and	a, #15
 599:	0d                            	add	a, [hl]
 59a:	9b                            	mov	[hl], a
 59b:	c6                            	pop	hl
 59c:	c2                            	pop	bc
 59d:	d7                            	ret

0000059e <port_set_nibble1>:
 59e:	c3                            	push	bc
 59f:	c7                            	push	hl
 5a0:	88 08                         	mov	a, [sp+8]
 5a2:	72                            	mov	c, a
 5a3:	11 69 10 01                   	movw	ax, es:272[c]
 5a7:	16                            	movw	hl, ax
 5a8:	8b                            	mov	a, [hl]
 5a9:	5c 0f                         	and	a, #15
 5ab:	9b                            	mov	[hl], a
 5ac:	88 0a                         	mov	a, [sp+10]
 5ae:	31 49                         	shl	a, 4
 5b0:	5c f0                         	and	a, #240
 5b2:	0d                            	add	a, [hl]
 5b3:	9b                            	mov	[hl], a
 5b4:	c6                            	pop	hl
 5b5:	c2                            	pop	bc

000005b6 <port_set_nibble2>:
 5b6:	d7                            	ret

000005b7 <port_set_high>:
 5b7:	c3                            	push	bc
 5b8:	c7                            	push	hl
 5b9:	88 08                         	mov	a, [sp+8]
 5bb:	72                            	mov	c, a
 5bc:	11 69 10 01                   	movw	ax, es:272[c]
 5c0:	16                            	movw	hl, ax
 5c1:	88 0a                         	mov	a, [sp+10]
 5c3:	6d                            	or	a, [hl]
 5c4:	9b                            	mov	[hl], a
 5c5:	c6                            	pop	hl
 5c6:	c2                            	pop	bc
 5c7:	d7                            	ret

000005c8 <port_set_low>:
 5c8:	c3                            	push	bc
 5c9:	c7                            	push	hl
 5ca:	88 08                         	mov	a, [sp+8]
 5cc:	72                            	mov	c, a
 5cd:	11 69 10 01                   	movw	ax, es:272[c]
 5d1:	16                            	movw	hl, ax
 5d2:	88 0a                         	mov	a, [sp+10]
 5d4:	7c ff                         	xor	a, #255
 5d6:	5d                            	and	a, [hl]
 5d7:	9b                            	mov	[hl], a
 5d8:	c6                            	pop	hl
 5d9:	c2                            	pop	bc
 5da:	d7                            	ret

000005db <port_get>:
 5db:	c3                            	push	bc
 5dc:	c7                            	push	hl
 5dd:	88 08                         	mov	a, [sp+8]
 5df:	72                            	mov	c, a
 5e0:	11 69 10 01                   	movw	ax, es:272[c]
 5e4:	16                            	movw	hl, ax
 5e5:	8b                            	mov	a, [hl]
 5e6:	c6                            	pop	hl
 5e7:	c2                            	pop	bc
 5e8:	d7                            	ret

000005e9 <portpin_get>:
 5e9:	c3                            	push	bc
 5ea:	c7                            	push	hl
 5eb:	88 08                         	mov	a, [sp+8]
 5ed:	72                            	mov	c, a
 5ee:	11 69 10 01                   	movw	ax, es:272[c]
 5f2:	16                            	movw	hl, ax
 5f3:	88 0a                         	mov	a, [sp+10]
 5f5:	5c 07                         	and	a, #7
 5f7:	72                            	mov	c, a
 5f8:	11 29 00 01                   	mov	a, es:256[c]
 5fc:	5d                            	and	a, [hl]
 5fd:	dd 07                         	bz	$606 <gpl_return0>

000005ff <gpl_return1>:
 5ff:	51 01                         	mov	a, #1
 601:	9d f0                         	mov	0xffef0, a
 603:	c6                            	pop	hl
 604:	c2                            	pop	bc
 605:	d7                            	ret

00000606 <gpl_return0>:
 606:	51 00                         	mov	a, #0
 608:	9d f0                         	mov	0xffef0, a
 60a:	c6                            	pop	hl
 60b:	c2                            	pop	bc
 60c:	d7                            	ret

0000060d <isr_pwm0>:
 60d:	61 fc                         	reti
 60f:	d7                            	ret

00000610 <isr_pwm1>:
 610:	61 fc                         	reti
 612:	d7                            	ret

00000613 <isr_pwm2>:
 613:	61 fc                         	reti
 615:	d7                            	ret

00000616 <isr_pwm3>:
 616:	61 fc                         	reti
 618:	d7                            	ret

00000619 <isr_uart0_send>:
 619:	61 fc                         	reti
 61b:	d7                            	ret

0000061c <isr_recv_uart0>:
 61c:	61 fc                         	reti
 61e:	d7                            	ret

0000061f <isr_uart1_send>:
 61f:	61 fc                         	reti
 621:	d7                            	ret

00000622 <isr_recv_uart1>:
 622:	61 fc                         	reti
 624:	d7                            	ret

00000625 <isr_ext0>:
 625:	61 fc                         	reti
 627:	d7                            	ret

00000628 <isr_ext1>:
 628:	61 fc                         	reti
 62a:	d7                            	ret

0000062b <_tick_handler>:
 62b:	61 cf                         	sel	rb0
 62d:	c1                            	push	ax
 62e:	c3                            	push	bc
 62f:	c5                            	push	de
 630:	c7                            	push	hl
 631:	61 df                         	sel	rb1
 633:	c1                            	push	ax
 634:	c3                            	push	bc
 635:	c5                            	push	de
 636:	c7                            	push	hl
 637:	61 ef                         	sel	rb2
 639:	c7                            	push	hl
 63a:	61 cf                         	sel	rb0
 63c:	51 21                         	mov	a, #33
 63e:	9f 40 02                      	mov	!f0240 <TRJCR0>, a
 641:	af 0c fb                      	movw	ax, !ffb0c <unilib_tick_counter>
 644:	44 00 00                      	cmpw	ax, #0
 647:	61 f8                         	sknz
 649:	ef 0c                         	br	$657 <.L12>
 64b:	af 0c fb                      	movw	ax, !ffb0c <unilib_tick_counter>
 64e:	bd f0                         	movw	0xffef0, ax
 650:	b6 f0                         	decw	0xffef0
 652:	ad f0                         	movw	ax, 0xffef0
 654:	bf 0c fb                      	movw	!ffb0c <unilib_tick_counter>, ax

00000657 <.L12>:
 657:	fd 7e 02                      	call	!27e <user_tick>
 65a:	61 ef                         	sel	rb2
 65c:	c6                            	pop	hl
 65d:	61 df                         	sel	rb1
 65f:	c6                            	pop	hl
 660:	c4                            	pop	de
 661:	c2                            	pop	bc
 662:	c0                            	pop	ax
 663:	61 cf                         	sel	rb0
 665:	c6                            	pop	hl
 666:	c4                            	pop	de
 667:	c2                            	pop	bc
 668:	c0                            	pop	ax
 669:	61 fc                         	reti

0000066b <main>:
 66b:	61 ef                         	sel	rb2
 66d:	c1                            	push	ax
 66e:	c3                            	push	bc
 66f:	c5                            	push	de
 670:	61 cf                         	sel	rb0
 672:	20 08                         	subw	sp, #8
 674:	fd bf 02                      	call	!2bf <unilib_init>
 677:	51 0c                         	mov	a, #12
 679:	98 00                         	mov	[sp+0], a
 67b:	f1                            	clrb	a
 67c:	98 02                         	mov	[sp+2], a
 67e:	fd 97 04                      	call	!497 <portpin_set_output>
 681:	51 0c                         	mov	a, #12
 683:	98 00                         	mov	[sp+0], a
 685:	f1                            	clrb	a
 686:	98 02                         	mov	[sp+2], a
 688:	fd 47 05                      	call	!547 <portpin_set_high>
 68b:	30 31 10                      	movw	ax, #0x1031
 68e:	b8 00                         	movw	[sp+0], ax
 690:	fd f9 02                      	call	!2f9 <clock_config>
 693:	f6                            	clrw	ax
 694:	b8 04                         	movw	[sp+4], ax
 696:	f6                            	clrw	ax
 697:	b8 06                         	movw	[sp+6], ax

00000699 <.L15>:
 699:	51 0c                         	mov	a, #12
 69b:	98 00                         	mov	[sp+0], a
 69d:	f1                            	clrb	a
 69e:	98 02                         	mov	[sp+2], a
 6a0:	fd 16 05                      	call	!516 <portpin_set_input_pullup>

000006a3 <.L8>:
 6a3:	51 0c                         	mov	a, #12
 6a5:	98 00                         	mov	[sp+0], a
 6a7:	f1                            	clrb	a
 6a8:	98 02                         	mov	[sp+2], a
 6aa:	fd e9 05                      	call	!5e9 <portpin_get>
 6ad:	d4 f0                         	cmp0	0xffef0
 6af:	61 e8                         	skz
 6b1:	ef f0                         	br	$6a3 <.L8>

000006b3 <.L9>:
 6b3:	51 0c                         	mov	a, #12
 6b5:	98 00                         	mov	[sp+0], a
 6b7:	f1                            	clrb	a
 6b8:	98 02                         	mov	[sp+2], a
 6ba:	fd e9 05                      	call	!5e9 <portpin_get>
 6bd:	d4 f0                         	cmp0	0xffef0
 6bf:	61 f8                         	sknz
 6c1:	ef f0                         	br	$6b3 <.L9>
 6c3:	e6                            	onew	ax
 6c4:	b8 00                         	movw	[sp+0], ax
 6c6:	fd 00 04                      	call	!400 <unilib_pause_ms>
 6c9:	51 0c                         	mov	a, #12
 6cb:	98 00                         	mov	[sp+0], a
 6cd:	f1                            	clrb	a
 6ce:	98 02                         	mov	[sp+2], a
 6d0:	fd 47 05                      	call	!547 <portpin_set_high>
 6d3:	51 0c                         	mov	a, #12
 6d5:	98 00                         	mov	[sp+0], a
 6d7:	f1                            	clrb	a
 6d8:	98 02                         	mov	[sp+2], a
 6da:	fd 97 04                      	call	!497 <portpin_set_output>
 6dd:	a8 04                         	movw	ax, [sp+4]
 6df:	bd e8                         	movw	0xffee8, ax
 6e1:	a8 06                         	movw	ax, [sp+6]
 6e3:	bd ea                         	movw	0xffeea, ax
 6e5:	c9 ec 00 08                   	movw	0xffeec, #0x800

000006e9 <.L14>:
 6e9:	ad e8                         	movw	ax, 0xffee8
 6eb:	b8 00                         	movw	[sp+0], ax
 6ed:	ad ea                         	movw	ax, 0xffeea
 6ef:	44 00 00                      	cmpw	ax, #0
 6f2:	ad e8                         	movw	ax, 0xffee8
 6f4:	61 f8                         	sknz
 6f6:	44 ff ff                      	cmpw	ax, #0xffff
 6f9:	61 f3                         	sknh
 6fb:	ef 05                         	br	$702 <.L10>
 6fd:	fd 7f 02                      	call	!27f <get_fbyte0>
 700:	ef 2d                         	br	$72f <.L11>

00000702 <.L10>:
 702:	ad ea                         	movw	ax, 0xffeea
 704:	44 01 00                      	cmpw	ax, #1
 707:	ad e8                         	movw	ax, 0xffee8
 709:	61 f8                         	sknz
 70b:	44 ff ff                      	cmpw	ax, #0xffff
 70e:	61 f3                         	sknh
 710:	ef 05                         	br	$717 <.L12>
 712:	fd 8f 02                      	call	!28f <get_fbyte1>
 715:	ef 18                         	br	$72f <.L11>

00000717 <.L12>:
 717:	ad ea                         	movw	ax, 0xffeea
 719:	44 02 00                      	cmpw	ax, #2
 71c:	ad e8                         	movw	ax, 0xffee8
 71e:	61 f8                         	sknz
 720:	44 ff ff                      	cmpw	ax, #0xffff
 723:	61 f3                         	sknh
 725:	ef 05                         	br	$72c <.L13>
 727:	fd 9f 02                      	call	!29f <get_fbyte2>
 72a:	ef 03                         	br	$72f <.L11>

0000072c <.L13>:
 72c:	fd af 02                      	call	!2af <get_fbyte3>

0000072f <.L11>:
 72f:	ad e8                         	movw	ax, 0xffee8
 731:	04 01 00                      	addw	ax, #1
 734:	bd e8                         	movw	0xffee8, ax
 736:	ad ea                         	movw	ax, 0xffeea
 738:	61 d8                         	sknc
 73a:	a1                            	incw	ax
 73b:	04 00 00                      	addw	ax, #0
 73e:	bd ea                         	movw	0xffeea, ax
 740:	8d f0                         	mov	a, 0xffef0
 742:	98 00                         	mov	[sp+0], a
 744:	fd 00 02                      	call	!200 <out_byte>
 747:	b6 ec                         	decw	0xffeec
 749:	ad ec                         	movw	ax, 0xffeec
 74b:	44 00 00                      	cmpw	ax, #0
 74e:	61 e8                         	skz
 750:	ef 97                         	br	$6e9 <.L14>
 752:	a8 04                         	movw	ax, [sp+4]
 754:	04 00 08                      	addw	ax, #0x800
 757:	b8 04                         	movw	[sp+4], ax
 759:	a8 06                         	movw	ax, [sp+6]
 75b:	61 d8                         	sknc
 75d:	a1                            	incw	ax
 75e:	04 00 00                      	addw	ax, #0
 761:	b8 06                         	movw	[sp+6], ax
 763:	ed 99 06                      	br	!699 <.L15>
